ARM GAS  C:\Users\alanl\AppData\Local\Temp\ccf1ENHg.s 			page 1


   1              		.cpu cortex-m4
   2              		.arch armv7e-m
   3              		.fpu fpv4-sp-d16
   4              		.eabi_attribute 27, 1
   5              		.eabi_attribute 28, 1
   6              		.eabi_attribute 20, 1
   7              		.eabi_attribute 21, 1
   8              		.eabi_attribute 23, 3
   9              		.eabi_attribute 24, 1
  10              		.eabi_attribute 25, 1
  11              		.eabi_attribute 26, 1
  12              		.eabi_attribute 30, 6
  13              		.eabi_attribute 34, 1
  14              		.eabi_attribute 18, 4
  15              		.file	"stm32wbxx_hal_pwr.c"
  16              		.text
  17              	.Ltext0:
  18              		.cfi_sections	.debug_frame
  19              		.file 1 "Drivers/STM32WBxx_HAL_Driver/Src/stm32wbxx_hal_pwr.c"
  20              		.section	.text.LL_EXTI_EnableIT_0_31,"ax",%progbits
  21              		.align	1
  22              		.syntax unified
  23              		.thumb
  24              		.thumb_func
  26              	LL_EXTI_EnableIT_0_31:
  27              	.LFB443:
  28              		.file 2 "Drivers/STM32WBxx_HAL_Driver/Inc/stm32wbxx_ll_exti.h"
   1:Drivers/STM32WBxx_HAL_Driver/Inc/stm32wbxx_ll_exti.h **** /**
   2:Drivers/STM32WBxx_HAL_Driver/Inc/stm32wbxx_ll_exti.h ****   ******************************************************************************
   3:Drivers/STM32WBxx_HAL_Driver/Inc/stm32wbxx_ll_exti.h ****   * @file    stm32wbxx_ll_exti.h
   4:Drivers/STM32WBxx_HAL_Driver/Inc/stm32wbxx_ll_exti.h ****   * @author  MCD Application Team
   5:Drivers/STM32WBxx_HAL_Driver/Inc/stm32wbxx_ll_exti.h ****   * @brief   Header file of EXTI LL module.
   6:Drivers/STM32WBxx_HAL_Driver/Inc/stm32wbxx_ll_exti.h ****   ******************************************************************************
   7:Drivers/STM32WBxx_HAL_Driver/Inc/stm32wbxx_ll_exti.h ****   * @attention
   8:Drivers/STM32WBxx_HAL_Driver/Inc/stm32wbxx_ll_exti.h ****   *
   9:Drivers/STM32WBxx_HAL_Driver/Inc/stm32wbxx_ll_exti.h ****   * Copyright (c) 2019 STMicroelectronics.
  10:Drivers/STM32WBxx_HAL_Driver/Inc/stm32wbxx_ll_exti.h ****   * All rights reserved.
  11:Drivers/STM32WBxx_HAL_Driver/Inc/stm32wbxx_ll_exti.h ****   *
  12:Drivers/STM32WBxx_HAL_Driver/Inc/stm32wbxx_ll_exti.h ****   * This software is licensed under terms that can be found in the LICENSE file
  13:Drivers/STM32WBxx_HAL_Driver/Inc/stm32wbxx_ll_exti.h ****   * in the root directory of this software component.
  14:Drivers/STM32WBxx_HAL_Driver/Inc/stm32wbxx_ll_exti.h ****   * If no LICENSE file comes with this software, it is provided AS-IS.
  15:Drivers/STM32WBxx_HAL_Driver/Inc/stm32wbxx_ll_exti.h ****   *
  16:Drivers/STM32WBxx_HAL_Driver/Inc/stm32wbxx_ll_exti.h ****   ******************************************************************************
  17:Drivers/STM32WBxx_HAL_Driver/Inc/stm32wbxx_ll_exti.h ****   */
  18:Drivers/STM32WBxx_HAL_Driver/Inc/stm32wbxx_ll_exti.h **** 
  19:Drivers/STM32WBxx_HAL_Driver/Inc/stm32wbxx_ll_exti.h **** /* Define to prevent recursive inclusion -------------------------------------*/
  20:Drivers/STM32WBxx_HAL_Driver/Inc/stm32wbxx_ll_exti.h **** #ifndef STM32WBxx_LL_EXTI_H
  21:Drivers/STM32WBxx_HAL_Driver/Inc/stm32wbxx_ll_exti.h **** #define STM32WBxx_LL_EXTI_H
  22:Drivers/STM32WBxx_HAL_Driver/Inc/stm32wbxx_ll_exti.h **** 
  23:Drivers/STM32WBxx_HAL_Driver/Inc/stm32wbxx_ll_exti.h **** #ifdef __cplusplus
  24:Drivers/STM32WBxx_HAL_Driver/Inc/stm32wbxx_ll_exti.h **** extern "C" {
  25:Drivers/STM32WBxx_HAL_Driver/Inc/stm32wbxx_ll_exti.h **** #endif
  26:Drivers/STM32WBxx_HAL_Driver/Inc/stm32wbxx_ll_exti.h **** 
  27:Drivers/STM32WBxx_HAL_Driver/Inc/stm32wbxx_ll_exti.h **** /* Includes ------------------------------------------------------------------*/
  28:Drivers/STM32WBxx_HAL_Driver/Inc/stm32wbxx_ll_exti.h **** #include "stm32wbxx.h"
  29:Drivers/STM32WBxx_HAL_Driver/Inc/stm32wbxx_ll_exti.h **** 
  30:Drivers/STM32WBxx_HAL_Driver/Inc/stm32wbxx_ll_exti.h **** /** @addtogroup STM32WBxx_LL_Driver
ARM GAS  C:\Users\alanl\AppData\Local\Temp\ccf1ENHg.s 			page 2


  31:Drivers/STM32WBxx_HAL_Driver/Inc/stm32wbxx_ll_exti.h ****   * @{
  32:Drivers/STM32WBxx_HAL_Driver/Inc/stm32wbxx_ll_exti.h ****   */
  33:Drivers/STM32WBxx_HAL_Driver/Inc/stm32wbxx_ll_exti.h **** 
  34:Drivers/STM32WBxx_HAL_Driver/Inc/stm32wbxx_ll_exti.h **** #if defined (EXTI)
  35:Drivers/STM32WBxx_HAL_Driver/Inc/stm32wbxx_ll_exti.h **** 
  36:Drivers/STM32WBxx_HAL_Driver/Inc/stm32wbxx_ll_exti.h **** /** @defgroup EXTI_LL EXTI
  37:Drivers/STM32WBxx_HAL_Driver/Inc/stm32wbxx_ll_exti.h ****   * @{
  38:Drivers/STM32WBxx_HAL_Driver/Inc/stm32wbxx_ll_exti.h ****   */
  39:Drivers/STM32WBxx_HAL_Driver/Inc/stm32wbxx_ll_exti.h **** 
  40:Drivers/STM32WBxx_HAL_Driver/Inc/stm32wbxx_ll_exti.h **** /* Private types -------------------------------------------------------------*/
  41:Drivers/STM32WBxx_HAL_Driver/Inc/stm32wbxx_ll_exti.h **** /* Private variables ---------------------------------------------------------*/
  42:Drivers/STM32WBxx_HAL_Driver/Inc/stm32wbxx_ll_exti.h **** /* Private constants ---------------------------------------------------------*/
  43:Drivers/STM32WBxx_HAL_Driver/Inc/stm32wbxx_ll_exti.h **** /* Private Macros ------------------------------------------------------------*/
  44:Drivers/STM32WBxx_HAL_Driver/Inc/stm32wbxx_ll_exti.h **** #if defined(USE_FULL_LL_DRIVER)
  45:Drivers/STM32WBxx_HAL_Driver/Inc/stm32wbxx_ll_exti.h **** /** @defgroup EXTI_LL_Private_Macros EXTI Private Macros
  46:Drivers/STM32WBxx_HAL_Driver/Inc/stm32wbxx_ll_exti.h ****   * @{
  47:Drivers/STM32WBxx_HAL_Driver/Inc/stm32wbxx_ll_exti.h ****   */
  48:Drivers/STM32WBxx_HAL_Driver/Inc/stm32wbxx_ll_exti.h **** /**
  49:Drivers/STM32WBxx_HAL_Driver/Inc/stm32wbxx_ll_exti.h ****   * @}
  50:Drivers/STM32WBxx_HAL_Driver/Inc/stm32wbxx_ll_exti.h ****   */
  51:Drivers/STM32WBxx_HAL_Driver/Inc/stm32wbxx_ll_exti.h **** #endif /*USE_FULL_LL_DRIVER*/
  52:Drivers/STM32WBxx_HAL_Driver/Inc/stm32wbxx_ll_exti.h **** /* Exported types ------------------------------------------------------------*/
  53:Drivers/STM32WBxx_HAL_Driver/Inc/stm32wbxx_ll_exti.h **** #if defined(USE_FULL_LL_DRIVER)
  54:Drivers/STM32WBxx_HAL_Driver/Inc/stm32wbxx_ll_exti.h **** /** @defgroup EXTI_LL_ES_INIT EXTI Exported Init structure
  55:Drivers/STM32WBxx_HAL_Driver/Inc/stm32wbxx_ll_exti.h ****   * @{
  56:Drivers/STM32WBxx_HAL_Driver/Inc/stm32wbxx_ll_exti.h ****   */
  57:Drivers/STM32WBxx_HAL_Driver/Inc/stm32wbxx_ll_exti.h **** typedef struct
  58:Drivers/STM32WBxx_HAL_Driver/Inc/stm32wbxx_ll_exti.h **** {
  59:Drivers/STM32WBxx_HAL_Driver/Inc/stm32wbxx_ll_exti.h **** 
  60:Drivers/STM32WBxx_HAL_Driver/Inc/stm32wbxx_ll_exti.h ****   uint32_t Line_0_31;           /*!< Specifies the EXTI lines to be enabled or disabled for Lines i
  61:Drivers/STM32WBxx_HAL_Driver/Inc/stm32wbxx_ll_exti.h ****                                      This parameter can be any combination of @ref EXTI_LL_EC_LINE 
  62:Drivers/STM32WBxx_HAL_Driver/Inc/stm32wbxx_ll_exti.h **** 
  63:Drivers/STM32WBxx_HAL_Driver/Inc/stm32wbxx_ll_exti.h ****   uint32_t Line_32_63;          /*!< Specifies the EXTI lines to be enabled or disabled for Lines i
  64:Drivers/STM32WBxx_HAL_Driver/Inc/stm32wbxx_ll_exti.h ****                                      This parameter can be any combination of @ref EXTI_LL_EC_LINE 
  65:Drivers/STM32WBxx_HAL_Driver/Inc/stm32wbxx_ll_exti.h **** 
  66:Drivers/STM32WBxx_HAL_Driver/Inc/stm32wbxx_ll_exti.h ****   FunctionalState LineCommand;  /*!< Specifies the new state of the selected EXTI lines.
  67:Drivers/STM32WBxx_HAL_Driver/Inc/stm32wbxx_ll_exti.h ****                                      This parameter can be set either to ENABLE or DISABLE */
  68:Drivers/STM32WBxx_HAL_Driver/Inc/stm32wbxx_ll_exti.h **** 
  69:Drivers/STM32WBxx_HAL_Driver/Inc/stm32wbxx_ll_exti.h ****   uint8_t Mode;                 /*!< Specifies the mode for the EXTI lines.
  70:Drivers/STM32WBxx_HAL_Driver/Inc/stm32wbxx_ll_exti.h ****                                      This parameter can be a value of @ref EXTI_LL_EC_MODE. */
  71:Drivers/STM32WBxx_HAL_Driver/Inc/stm32wbxx_ll_exti.h **** 
  72:Drivers/STM32WBxx_HAL_Driver/Inc/stm32wbxx_ll_exti.h ****   uint8_t Trigger;              /*!< Specifies the trigger signal active edge for the EXTI lines.
  73:Drivers/STM32WBxx_HAL_Driver/Inc/stm32wbxx_ll_exti.h ****                                      This parameter can be a value of @ref EXTI_LL_EC_TRIGGER. */
  74:Drivers/STM32WBxx_HAL_Driver/Inc/stm32wbxx_ll_exti.h **** } LL_EXTI_InitTypeDef;
  75:Drivers/STM32WBxx_HAL_Driver/Inc/stm32wbxx_ll_exti.h **** 
  76:Drivers/STM32WBxx_HAL_Driver/Inc/stm32wbxx_ll_exti.h **** /**
  77:Drivers/STM32WBxx_HAL_Driver/Inc/stm32wbxx_ll_exti.h ****   * @}
  78:Drivers/STM32WBxx_HAL_Driver/Inc/stm32wbxx_ll_exti.h ****   */
  79:Drivers/STM32WBxx_HAL_Driver/Inc/stm32wbxx_ll_exti.h **** #endif /*USE_FULL_LL_DRIVER*/
  80:Drivers/STM32WBxx_HAL_Driver/Inc/stm32wbxx_ll_exti.h **** 
  81:Drivers/STM32WBxx_HAL_Driver/Inc/stm32wbxx_ll_exti.h **** /* Exported constants --------------------------------------------------------*/
  82:Drivers/STM32WBxx_HAL_Driver/Inc/stm32wbxx_ll_exti.h **** /** @defgroup EXTI_LL_Exported_Constants EXTI Exported Constants
  83:Drivers/STM32WBxx_HAL_Driver/Inc/stm32wbxx_ll_exti.h ****   * @{
  84:Drivers/STM32WBxx_HAL_Driver/Inc/stm32wbxx_ll_exti.h ****   */
  85:Drivers/STM32WBxx_HAL_Driver/Inc/stm32wbxx_ll_exti.h **** 
  86:Drivers/STM32WBxx_HAL_Driver/Inc/stm32wbxx_ll_exti.h **** /** @defgroup EXTI_LL_EC_LINE LINE
  87:Drivers/STM32WBxx_HAL_Driver/Inc/stm32wbxx_ll_exti.h ****   * @{
ARM GAS  C:\Users\alanl\AppData\Local\Temp\ccf1ENHg.s 			page 3


  88:Drivers/STM32WBxx_HAL_Driver/Inc/stm32wbxx_ll_exti.h ****   */
  89:Drivers/STM32WBxx_HAL_Driver/Inc/stm32wbxx_ll_exti.h **** #define LL_EXTI_LINE_0                 EXTI_IMR1_IM0           /*!< Extended line 0 */
  90:Drivers/STM32WBxx_HAL_Driver/Inc/stm32wbxx_ll_exti.h **** #define LL_EXTI_LINE_1                 EXTI_IMR1_IM1           /*!< Extended line 1 */
  91:Drivers/STM32WBxx_HAL_Driver/Inc/stm32wbxx_ll_exti.h **** #define LL_EXTI_LINE_2                 EXTI_IMR1_IM2           /*!< Extended line 2 */
  92:Drivers/STM32WBxx_HAL_Driver/Inc/stm32wbxx_ll_exti.h **** #define LL_EXTI_LINE_3                 EXTI_IMR1_IM3           /*!< Extended line 3 */
  93:Drivers/STM32WBxx_HAL_Driver/Inc/stm32wbxx_ll_exti.h **** #define LL_EXTI_LINE_4                 EXTI_IMR1_IM4           /*!< Extended line 4 */
  94:Drivers/STM32WBxx_HAL_Driver/Inc/stm32wbxx_ll_exti.h **** #define LL_EXTI_LINE_5                 EXTI_IMR1_IM5           /*!< Extended line 5 */
  95:Drivers/STM32WBxx_HAL_Driver/Inc/stm32wbxx_ll_exti.h **** #define LL_EXTI_LINE_6                 EXTI_IMR1_IM6           /*!< Extended line 6 */
  96:Drivers/STM32WBxx_HAL_Driver/Inc/stm32wbxx_ll_exti.h **** #define LL_EXTI_LINE_7                 EXTI_IMR1_IM7           /*!< Extended line 7 */
  97:Drivers/STM32WBxx_HAL_Driver/Inc/stm32wbxx_ll_exti.h **** #define LL_EXTI_LINE_8                 EXTI_IMR1_IM8           /*!< Extended line 8 */
  98:Drivers/STM32WBxx_HAL_Driver/Inc/stm32wbxx_ll_exti.h **** #define LL_EXTI_LINE_9                 EXTI_IMR1_IM9           /*!< Extended line 9 */
  99:Drivers/STM32WBxx_HAL_Driver/Inc/stm32wbxx_ll_exti.h **** #define LL_EXTI_LINE_10                EXTI_IMR1_IM10          /*!< Extended line 10 */
 100:Drivers/STM32WBxx_HAL_Driver/Inc/stm32wbxx_ll_exti.h **** #define LL_EXTI_LINE_11                EXTI_IMR1_IM11          /*!< Extended line 11 */
 101:Drivers/STM32WBxx_HAL_Driver/Inc/stm32wbxx_ll_exti.h **** #define LL_EXTI_LINE_12                EXTI_IMR1_IM12          /*!< Extended line 12 */
 102:Drivers/STM32WBxx_HAL_Driver/Inc/stm32wbxx_ll_exti.h **** #define LL_EXTI_LINE_13                EXTI_IMR1_IM13          /*!< Extended line 13 */
 103:Drivers/STM32WBxx_HAL_Driver/Inc/stm32wbxx_ll_exti.h **** #define LL_EXTI_LINE_14                EXTI_IMR1_IM14          /*!< Extended line 14 */
 104:Drivers/STM32WBxx_HAL_Driver/Inc/stm32wbxx_ll_exti.h **** #define LL_EXTI_LINE_15                EXTI_IMR1_IM15          /*!< Extended line 15 */
 105:Drivers/STM32WBxx_HAL_Driver/Inc/stm32wbxx_ll_exti.h **** #define LL_EXTI_LINE_16                EXTI_IMR1_IM16          /*!< Extended line 16 */
 106:Drivers/STM32WBxx_HAL_Driver/Inc/stm32wbxx_ll_exti.h **** #define LL_EXTI_LINE_17                EXTI_IMR1_IM17          /*!< Extended line 17 */
 107:Drivers/STM32WBxx_HAL_Driver/Inc/stm32wbxx_ll_exti.h **** #define LL_EXTI_LINE_18                EXTI_IMR1_IM18          /*!< Extended line 18 */
 108:Drivers/STM32WBxx_HAL_Driver/Inc/stm32wbxx_ll_exti.h **** #define LL_EXTI_LINE_19                EXTI_IMR1_IM19          /*!< Extended line 19 */
 109:Drivers/STM32WBxx_HAL_Driver/Inc/stm32wbxx_ll_exti.h **** #if defined (STM32WB55xx) || defined (STM32WB5Mxx) || defined (STM32WB35xx) || defined (STM32WB15xx
 110:Drivers/STM32WBxx_HAL_Driver/Inc/stm32wbxx_ll_exti.h **** #define LL_EXTI_LINE_20                EXTI_IMR1_IM20          /*!< Extended line 20 */
 111:Drivers/STM32WBxx_HAL_Driver/Inc/stm32wbxx_ll_exti.h **** #endif /* STM32WB55xx || STM32WB5Mxx || ... */
 112:Drivers/STM32WBxx_HAL_Driver/Inc/stm32wbxx_ll_exti.h **** #if defined (STM32WB55xx) || defined (STM32WB5Mxx) || defined (STM32WB35xx)
 113:Drivers/STM32WBxx_HAL_Driver/Inc/stm32wbxx_ll_exti.h **** #define LL_EXTI_LINE_21                EXTI_IMR1_IM21          /*!< Extended line 21 */
 114:Drivers/STM32WBxx_HAL_Driver/Inc/stm32wbxx_ll_exti.h **** #endif /* STM32WB55xx || STM32WB5Mxx || STM32WB35xx */
 115:Drivers/STM32WBxx_HAL_Driver/Inc/stm32wbxx_ll_exti.h **** #define LL_EXTI_LINE_22                EXTI_IMR1_IM22          /*!< Extended line 22 */
 116:Drivers/STM32WBxx_HAL_Driver/Inc/stm32wbxx_ll_exti.h **** #if defined (STM32WB55xx) || defined (STM32WB5Mxx) || defined (STM32WB35xx)
 117:Drivers/STM32WBxx_HAL_Driver/Inc/stm32wbxx_ll_exti.h **** #define LL_EXTI_LINE_23                EXTI_IMR1_IM23          /*!< Extended line 23 */
 118:Drivers/STM32WBxx_HAL_Driver/Inc/stm32wbxx_ll_exti.h **** #endif /* STM32WB55xx || STM32WB5Mxx || STM32WB35xx */
 119:Drivers/STM32WBxx_HAL_Driver/Inc/stm32wbxx_ll_exti.h **** #define LL_EXTI_LINE_24                EXTI_IMR1_IM24          /*!< Extended line 24 */
 120:Drivers/STM32WBxx_HAL_Driver/Inc/stm32wbxx_ll_exti.h **** #if defined (STM32WB55xx) || defined (STM32WB5Mxx) || defined (STM32WB35xx) || defined (STM32WB15xx
 121:Drivers/STM32WBxx_HAL_Driver/Inc/stm32wbxx_ll_exti.h **** #define LL_EXTI_LINE_25                EXTI_IMR1_IM25          /*!< Extended line 25 */
 122:Drivers/STM32WBxx_HAL_Driver/Inc/stm32wbxx_ll_exti.h **** #endif /* STM32WB55xx || STM32WB5Mxx || ... */
 123:Drivers/STM32WBxx_HAL_Driver/Inc/stm32wbxx_ll_exti.h **** #if defined (STM32WB55xx) || defined (STM32WB5Mxx) || defined (STM32WB35xx)
 124:Drivers/STM32WBxx_HAL_Driver/Inc/stm32wbxx_ll_exti.h **** #define LL_EXTI_LINE_28                EXTI_IMR1_IM28          /*!< Extended line 28 */
 125:Drivers/STM32WBxx_HAL_Driver/Inc/stm32wbxx_ll_exti.h **** #endif /* STM32WB55xx || STM32WB5Mxx || STM32WB35xx */
 126:Drivers/STM32WBxx_HAL_Driver/Inc/stm32wbxx_ll_exti.h **** #define LL_EXTI_LINE_29                EXTI_IMR1_IM29          /*!< Extended line 29 */
 127:Drivers/STM32WBxx_HAL_Driver/Inc/stm32wbxx_ll_exti.h **** #define LL_EXTI_LINE_30                EXTI_IMR1_IM30          /*!< Extended line 30 */
 128:Drivers/STM32WBxx_HAL_Driver/Inc/stm32wbxx_ll_exti.h **** #if defined (STM32WB55xx) || defined (STM32WB5Mxx) || defined (STM32WB35xx) || defined (STM32WB15xx
 129:Drivers/STM32WBxx_HAL_Driver/Inc/stm32wbxx_ll_exti.h **** #define LL_EXTI_LINE_31                EXTI_IMR1_IM31          /*!< Extended line 31 */
 130:Drivers/STM32WBxx_HAL_Driver/Inc/stm32wbxx_ll_exti.h **** #endif /* STM32WB55xx || STM32WB5Mxx || ... */
 131:Drivers/STM32WBxx_HAL_Driver/Inc/stm32wbxx_ll_exti.h **** 
 132:Drivers/STM32WBxx_HAL_Driver/Inc/stm32wbxx_ll_exti.h **** #if defined (STM32WB55xx) || defined (STM32WB5Mxx) || defined (STM32WB35xx)
 133:Drivers/STM32WBxx_HAL_Driver/Inc/stm32wbxx_ll_exti.h **** #define LL_EXTI_LINE_ALL_0_31          (LL_EXTI_LINE_0 | LL_EXTI_LINE_1 | LL_EXTI_LINE_2 | \
 134:Drivers/STM32WBxx_HAL_Driver/Inc/stm32wbxx_ll_exti.h ****                                         LL_EXTI_LINE_3 | LL_EXTI_LINE_4 | LL_EXTI_LINE_5 | \
 135:Drivers/STM32WBxx_HAL_Driver/Inc/stm32wbxx_ll_exti.h ****                                         LL_EXTI_LINE_6 | LL_EXTI_LINE_7 | LL_EXTI_LINE_8 | \
 136:Drivers/STM32WBxx_HAL_Driver/Inc/stm32wbxx_ll_exti.h ****                                         LL_EXTI_LINE_9 | LL_EXTI_LINE_10 | LL_EXTI_LINE_11 | \
 137:Drivers/STM32WBxx_HAL_Driver/Inc/stm32wbxx_ll_exti.h ****                                         LL_EXTI_LINE_12 | LL_EXTI_LINE_13 | LL_EXTI_LINE_14 | \
 138:Drivers/STM32WBxx_HAL_Driver/Inc/stm32wbxx_ll_exti.h ****                                         LL_EXTI_LINE_15 | LL_EXTI_LINE_16 | LL_EXTI_LINE_17 | \
 139:Drivers/STM32WBxx_HAL_Driver/Inc/stm32wbxx_ll_exti.h ****                                         LL_EXTI_LINE_18 | LL_EXTI_LINE_19 | LL_EXTI_LINE_20 | \
 140:Drivers/STM32WBxx_HAL_Driver/Inc/stm32wbxx_ll_exti.h ****                                         LL_EXTI_LINE_21 | LL_EXTI_LINE_22 | LL_EXTI_LINE_23 | \
 141:Drivers/STM32WBxx_HAL_Driver/Inc/stm32wbxx_ll_exti.h ****                                         LL_EXTI_LINE_24 | LL_EXTI_LINE_25 | LL_EXTI_LINE_28 | \
 142:Drivers/STM32WBxx_HAL_Driver/Inc/stm32wbxx_ll_exti.h ****                                         LL_EXTI_LINE_29 | LL_EXTI_LINE_30 | LL_EXTI_LINE_31) /*!< A
 143:Drivers/STM32WBxx_HAL_Driver/Inc/stm32wbxx_ll_exti.h **** #elif defined (STM32WB15xx) || defined(STM32WB1Mxx)
 144:Drivers/STM32WBxx_HAL_Driver/Inc/stm32wbxx_ll_exti.h **** #define LL_EXTI_LINE_ALL_0_31          (LL_EXTI_LINE_0 | LL_EXTI_LINE_1 | LL_EXTI_LINE_2 | \
ARM GAS  C:\Users\alanl\AppData\Local\Temp\ccf1ENHg.s 			page 4


 145:Drivers/STM32WBxx_HAL_Driver/Inc/stm32wbxx_ll_exti.h ****                                         LL_EXTI_LINE_3 | LL_EXTI_LINE_4 | LL_EXTI_LINE_5 | \
 146:Drivers/STM32WBxx_HAL_Driver/Inc/stm32wbxx_ll_exti.h ****                                         LL_EXTI_LINE_6 | LL_EXTI_LINE_7 | LL_EXTI_LINE_8 | \
 147:Drivers/STM32WBxx_HAL_Driver/Inc/stm32wbxx_ll_exti.h ****                                         LL_EXTI_LINE_9 | LL_EXTI_LINE_10 | LL_EXTI_LINE_11 | \
 148:Drivers/STM32WBxx_HAL_Driver/Inc/stm32wbxx_ll_exti.h ****                                         LL_EXTI_LINE_12 | LL_EXTI_LINE_13 | LL_EXTI_LINE_14 | \
 149:Drivers/STM32WBxx_HAL_Driver/Inc/stm32wbxx_ll_exti.h ****                                         LL_EXTI_LINE_15 | LL_EXTI_LINE_16 | LL_EXTI_LINE_17 | \
 150:Drivers/STM32WBxx_HAL_Driver/Inc/stm32wbxx_ll_exti.h ****                                         LL_EXTI_LINE_18 | LL_EXTI_LINE_19 | LL_EXTI_LINE_20 | \
 151:Drivers/STM32WBxx_HAL_Driver/Inc/stm32wbxx_ll_exti.h ****                                         LL_EXTI_LINE_22 | LL_EXTI_LINE_24 | LL_EXTI_LINE_25 | \
 152:Drivers/STM32WBxx_HAL_Driver/Inc/stm32wbxx_ll_exti.h ****                                         LL_EXTI_LINE_29 | LL_EXTI_LINE_30 | LL_EXTI_LINE_31) /*!< A
 153:Drivers/STM32WBxx_HAL_Driver/Inc/stm32wbxx_ll_exti.h **** #else
 154:Drivers/STM32WBxx_HAL_Driver/Inc/stm32wbxx_ll_exti.h **** #define LL_EXTI_LINE_ALL_0_31          (LL_EXTI_LINE_0 | LL_EXTI_LINE_1 | LL_EXTI_LINE_2 | \
 155:Drivers/STM32WBxx_HAL_Driver/Inc/stm32wbxx_ll_exti.h ****                                         LL_EXTI_LINE_3 | LL_EXTI_LINE_4 | LL_EXTI_LINE_5 | \
 156:Drivers/STM32WBxx_HAL_Driver/Inc/stm32wbxx_ll_exti.h ****                                         LL_EXTI_LINE_6 | LL_EXTI_LINE_7 | LL_EXTI_LINE_8 | \
 157:Drivers/STM32WBxx_HAL_Driver/Inc/stm32wbxx_ll_exti.h ****                                         LL_EXTI_LINE_9 | LL_EXTI_LINE_10 | LL_EXTI_LINE_11 | \
 158:Drivers/STM32WBxx_HAL_Driver/Inc/stm32wbxx_ll_exti.h ****                                         LL_EXTI_LINE_12 | LL_EXTI_LINE_13 | LL_EXTI_LINE_14 | \
 159:Drivers/STM32WBxx_HAL_Driver/Inc/stm32wbxx_ll_exti.h ****                                         LL_EXTI_LINE_15 | LL_EXTI_LINE_16 | LL_EXTI_LINE_17 | \
 160:Drivers/STM32WBxx_HAL_Driver/Inc/stm32wbxx_ll_exti.h ****                                         LL_EXTI_LINE_18 | LL_EXTI_LINE_19 | LL_EXTI_LINE_22 | \
 161:Drivers/STM32WBxx_HAL_Driver/Inc/stm32wbxx_ll_exti.h ****                                         LL_EXTI_LINE_24 | LL_EXTI_LINE_29 | LL_EXTI_LINE_30) /*!< A
 162:Drivers/STM32WBxx_HAL_Driver/Inc/stm32wbxx_ll_exti.h **** #endif /* STM32WB55xx || STM32WB5Mxx || STM32WB35xx */
 163:Drivers/STM32WBxx_HAL_Driver/Inc/stm32wbxx_ll_exti.h **** 
 164:Drivers/STM32WBxx_HAL_Driver/Inc/stm32wbxx_ll_exti.h **** #define LL_EXTI_LINE_33                EXTI_IMR2_IM33          /*!< Extended line 33 */
 165:Drivers/STM32WBxx_HAL_Driver/Inc/stm32wbxx_ll_exti.h **** #define LL_EXTI_LINE_36                EXTI_IMR2_IM36          /*!< Extended line 36 */
 166:Drivers/STM32WBxx_HAL_Driver/Inc/stm32wbxx_ll_exti.h **** #define LL_EXTI_LINE_37                EXTI_IMR2_IM37          /*!< Extended line 37 */
 167:Drivers/STM32WBxx_HAL_Driver/Inc/stm32wbxx_ll_exti.h **** #define LL_EXTI_LINE_38                EXTI_IMR2_IM38          /*!< Extended line 38 */
 168:Drivers/STM32WBxx_HAL_Driver/Inc/stm32wbxx_ll_exti.h **** #define LL_EXTI_LINE_39                EXTI_IMR2_IM39          /*!< Extended line 39 */
 169:Drivers/STM32WBxx_HAL_Driver/Inc/stm32wbxx_ll_exti.h **** #define LL_EXTI_LINE_40                EXTI_IMR2_IM40          /*!< Extended line 40 */
 170:Drivers/STM32WBxx_HAL_Driver/Inc/stm32wbxx_ll_exti.h **** #define LL_EXTI_LINE_41                EXTI_IMR2_IM41          /*!< Extended line 41 */
 171:Drivers/STM32WBxx_HAL_Driver/Inc/stm32wbxx_ll_exti.h **** #define LL_EXTI_LINE_42                EXTI_IMR2_IM42          /*!< Extended line 42 */
 172:Drivers/STM32WBxx_HAL_Driver/Inc/stm32wbxx_ll_exti.h **** #if defined (STM32WB55xx) || defined (STM32WB5Mxx)
 173:Drivers/STM32WBxx_HAL_Driver/Inc/stm32wbxx_ll_exti.h **** #define LL_EXTI_LINE_43                EXTI_IMR2_IM43          /*!< Extended line 43 */
 174:Drivers/STM32WBxx_HAL_Driver/Inc/stm32wbxx_ll_exti.h **** #endif /* STM32WB55xx || STM32WB5Mxx */
 175:Drivers/STM32WBxx_HAL_Driver/Inc/stm32wbxx_ll_exti.h **** #define LL_EXTI_LINE_44                EXTI_IMR2_IM44          /*!< Extended line 44 */
 176:Drivers/STM32WBxx_HAL_Driver/Inc/stm32wbxx_ll_exti.h **** #define LL_EXTI_LINE_45                EXTI_IMR2_IM45          /*!< Extended line 45 */
 177:Drivers/STM32WBxx_HAL_Driver/Inc/stm32wbxx_ll_exti.h **** #if defined (STM32WB55xx) || defined (STM32WB5Mxx) || defined (STM32WB50xx) || defined (STM32WB35xx
 178:Drivers/STM32WBxx_HAL_Driver/Inc/stm32wbxx_ll_exti.h **** #define LL_EXTI_LINE_46                EXTI_IMR2_IM46          /*!< Extended line 46 */
 179:Drivers/STM32WBxx_HAL_Driver/Inc/stm32wbxx_ll_exti.h **** #endif /* STM32WB55xx || STM32WB5Mxx || ... */
 180:Drivers/STM32WBxx_HAL_Driver/Inc/stm32wbxx_ll_exti.h **** #define LL_EXTI_LINE_48                EXTI_IMR2_IM48          /*!< Extended line 48 */
 181:Drivers/STM32WBxx_HAL_Driver/Inc/stm32wbxx_ll_exti.h **** 
 182:Drivers/STM32WBxx_HAL_Driver/Inc/stm32wbxx_ll_exti.h **** #if defined (STM32WB55xx) || defined (STM32WB5Mxx)
 183:Drivers/STM32WBxx_HAL_Driver/Inc/stm32wbxx_ll_exti.h **** #define LL_EXTI_LINE_ALL_32_63         (LL_EXTI_LINE_33 | LL_EXTI_LINE_36 | LL_EXTI_LINE_37 | \
 184:Drivers/STM32WBxx_HAL_Driver/Inc/stm32wbxx_ll_exti.h ****                                         LL_EXTI_LINE_38 | LL_EXTI_LINE_39 | LL_EXTI_LINE_40 | \
 185:Drivers/STM32WBxx_HAL_Driver/Inc/stm32wbxx_ll_exti.h ****                                         LL_EXTI_LINE_41 | LL_EXTI_LINE_42 | LL_EXTI_LINE_43 | \
 186:Drivers/STM32WBxx_HAL_Driver/Inc/stm32wbxx_ll_exti.h ****                                         LL_EXTI_LINE_44 | LL_EXTI_LINE_45 | LL_EXTI_LINE_46 | \
 187:Drivers/STM32WBxx_HAL_Driver/Inc/stm32wbxx_ll_exti.h ****                                         LL_EXTI_LINE_48)                    /*!< All Extended line 
 188:Drivers/STM32WBxx_HAL_Driver/Inc/stm32wbxx_ll_exti.h **** #elif defined (STM32WB50xx) || defined (STM32WB35xx) || defined (STM32WB30xx)
 189:Drivers/STM32WBxx_HAL_Driver/Inc/stm32wbxx_ll_exti.h **** #define LL_EXTI_LINE_ALL_32_63         (LL_EXTI_LINE_33 | LL_EXTI_LINE_36 | LL_EXTI_LINE_37 | \
 190:Drivers/STM32WBxx_HAL_Driver/Inc/stm32wbxx_ll_exti.h ****                                         LL_EXTI_LINE_38 | LL_EXTI_LINE_39 | LL_EXTI_LINE_40 | \
 191:Drivers/STM32WBxx_HAL_Driver/Inc/stm32wbxx_ll_exti.h ****                                         LL_EXTI_LINE_41 | LL_EXTI_LINE_42 | LL_EXTI_LINE_44 | \
 192:Drivers/STM32WBxx_HAL_Driver/Inc/stm32wbxx_ll_exti.h ****                                         LL_EXTI_LINE_45 | LL_EXTI_LINE_46 | LL_EXTI_LINE_48)  /*!< 
 193:Drivers/STM32WBxx_HAL_Driver/Inc/stm32wbxx_ll_exti.h **** #else
 194:Drivers/STM32WBxx_HAL_Driver/Inc/stm32wbxx_ll_exti.h **** #define LL_EXTI_LINE_ALL_32_63         (LL_EXTI_LINE_33 | LL_EXTI_LINE_36 | LL_EXTI_LINE_37 | \
 195:Drivers/STM32WBxx_HAL_Driver/Inc/stm32wbxx_ll_exti.h ****                                         LL_EXTI_LINE_38 | LL_EXTI_LINE_39 | LL_EXTI_LINE_40 | \
 196:Drivers/STM32WBxx_HAL_Driver/Inc/stm32wbxx_ll_exti.h ****                                         LL_EXTI_LINE_41 | LL_EXTI_LINE_42 | LL_EXTI_LINE_44 | \
 197:Drivers/STM32WBxx_HAL_Driver/Inc/stm32wbxx_ll_exti.h ****                                         LL_EXTI_LINE_45 | LL_EXTI_LINE_48)  /*!< All Extended line 
 198:Drivers/STM32WBxx_HAL_Driver/Inc/stm32wbxx_ll_exti.h **** #endif /* STM32WB55xx || STM32WB5Mxx */
 199:Drivers/STM32WBxx_HAL_Driver/Inc/stm32wbxx_ll_exti.h **** 
 200:Drivers/STM32WBxx_HAL_Driver/Inc/stm32wbxx_ll_exti.h **** 
 201:Drivers/STM32WBxx_HAL_Driver/Inc/stm32wbxx_ll_exti.h **** #define LL_EXTI_LINE_ALL               (0xFFFFFFFFU)  /*!< All Extended line */
ARM GAS  C:\Users\alanl\AppData\Local\Temp\ccf1ENHg.s 			page 5


 202:Drivers/STM32WBxx_HAL_Driver/Inc/stm32wbxx_ll_exti.h **** 
 203:Drivers/STM32WBxx_HAL_Driver/Inc/stm32wbxx_ll_exti.h **** #if defined(USE_FULL_LL_DRIVER)
 204:Drivers/STM32WBxx_HAL_Driver/Inc/stm32wbxx_ll_exti.h **** #define LL_EXTI_LINE_NONE              (0x00000000U)  /*!< None Extended line */
 205:Drivers/STM32WBxx_HAL_Driver/Inc/stm32wbxx_ll_exti.h **** #endif /*USE_FULL_LL_DRIVER*/
 206:Drivers/STM32WBxx_HAL_Driver/Inc/stm32wbxx_ll_exti.h **** 
 207:Drivers/STM32WBxx_HAL_Driver/Inc/stm32wbxx_ll_exti.h **** /**
 208:Drivers/STM32WBxx_HAL_Driver/Inc/stm32wbxx_ll_exti.h ****   * @}
 209:Drivers/STM32WBxx_HAL_Driver/Inc/stm32wbxx_ll_exti.h ****   */
 210:Drivers/STM32WBxx_HAL_Driver/Inc/stm32wbxx_ll_exti.h **** #if defined(USE_FULL_LL_DRIVER)
 211:Drivers/STM32WBxx_HAL_Driver/Inc/stm32wbxx_ll_exti.h **** 
 212:Drivers/STM32WBxx_HAL_Driver/Inc/stm32wbxx_ll_exti.h **** /** @defgroup EXTI_LL_EC_MODE Mode
 213:Drivers/STM32WBxx_HAL_Driver/Inc/stm32wbxx_ll_exti.h ****   * @{
 214:Drivers/STM32WBxx_HAL_Driver/Inc/stm32wbxx_ll_exti.h ****   */
 215:Drivers/STM32WBxx_HAL_Driver/Inc/stm32wbxx_ll_exti.h **** #define LL_EXTI_MODE_IT                 ((uint8_t)0x00U) /*!< Interrupt Mode */
 216:Drivers/STM32WBxx_HAL_Driver/Inc/stm32wbxx_ll_exti.h **** #define LL_EXTI_MODE_EVENT              ((uint8_t)0x01U) /*!< Event Mode */
 217:Drivers/STM32WBxx_HAL_Driver/Inc/stm32wbxx_ll_exti.h **** #define LL_EXTI_MODE_IT_EVENT           ((uint8_t)0x02U) /*!< Interrupt & Event Mode */
 218:Drivers/STM32WBxx_HAL_Driver/Inc/stm32wbxx_ll_exti.h **** /**
 219:Drivers/STM32WBxx_HAL_Driver/Inc/stm32wbxx_ll_exti.h ****   * @}
 220:Drivers/STM32WBxx_HAL_Driver/Inc/stm32wbxx_ll_exti.h ****   */
 221:Drivers/STM32WBxx_HAL_Driver/Inc/stm32wbxx_ll_exti.h **** 
 222:Drivers/STM32WBxx_HAL_Driver/Inc/stm32wbxx_ll_exti.h **** /** @defgroup EXTI_LL_EC_TRIGGER Edge Trigger
 223:Drivers/STM32WBxx_HAL_Driver/Inc/stm32wbxx_ll_exti.h ****   * @{
 224:Drivers/STM32WBxx_HAL_Driver/Inc/stm32wbxx_ll_exti.h ****   */
 225:Drivers/STM32WBxx_HAL_Driver/Inc/stm32wbxx_ll_exti.h **** #define LL_EXTI_TRIGGER_NONE            ((uint8_t)0x00U) /*!< No Trigger Mode */
 226:Drivers/STM32WBxx_HAL_Driver/Inc/stm32wbxx_ll_exti.h **** #define LL_EXTI_TRIGGER_RISING          ((uint8_t)0x01U) /*!< Trigger Rising Mode */
 227:Drivers/STM32WBxx_HAL_Driver/Inc/stm32wbxx_ll_exti.h **** #define LL_EXTI_TRIGGER_FALLING         ((uint8_t)0x02U) /*!< Trigger Falling Mode */
 228:Drivers/STM32WBxx_HAL_Driver/Inc/stm32wbxx_ll_exti.h **** #define LL_EXTI_TRIGGER_RISING_FALLING  ((uint8_t)0x03U) /*!< Trigger Rising & Falling Mode */
 229:Drivers/STM32WBxx_HAL_Driver/Inc/stm32wbxx_ll_exti.h **** 
 230:Drivers/STM32WBxx_HAL_Driver/Inc/stm32wbxx_ll_exti.h **** /**
 231:Drivers/STM32WBxx_HAL_Driver/Inc/stm32wbxx_ll_exti.h ****   * @}
 232:Drivers/STM32WBxx_HAL_Driver/Inc/stm32wbxx_ll_exti.h ****   */
 233:Drivers/STM32WBxx_HAL_Driver/Inc/stm32wbxx_ll_exti.h **** 
 234:Drivers/STM32WBxx_HAL_Driver/Inc/stm32wbxx_ll_exti.h **** 
 235:Drivers/STM32WBxx_HAL_Driver/Inc/stm32wbxx_ll_exti.h **** #endif /*USE_FULL_LL_DRIVER*/
 236:Drivers/STM32WBxx_HAL_Driver/Inc/stm32wbxx_ll_exti.h **** 
 237:Drivers/STM32WBxx_HAL_Driver/Inc/stm32wbxx_ll_exti.h **** 
 238:Drivers/STM32WBxx_HAL_Driver/Inc/stm32wbxx_ll_exti.h **** /**
 239:Drivers/STM32WBxx_HAL_Driver/Inc/stm32wbxx_ll_exti.h ****   * @}
 240:Drivers/STM32WBxx_HAL_Driver/Inc/stm32wbxx_ll_exti.h ****   */
 241:Drivers/STM32WBxx_HAL_Driver/Inc/stm32wbxx_ll_exti.h **** 
 242:Drivers/STM32WBxx_HAL_Driver/Inc/stm32wbxx_ll_exti.h **** /* Exported macro ------------------------------------------------------------*/
 243:Drivers/STM32WBxx_HAL_Driver/Inc/stm32wbxx_ll_exti.h **** /** @defgroup EXTI_LL_Exported_Macros EXTI Exported Macros
 244:Drivers/STM32WBxx_HAL_Driver/Inc/stm32wbxx_ll_exti.h ****   * @{
 245:Drivers/STM32WBxx_HAL_Driver/Inc/stm32wbxx_ll_exti.h ****   */
 246:Drivers/STM32WBxx_HAL_Driver/Inc/stm32wbxx_ll_exti.h **** 
 247:Drivers/STM32WBxx_HAL_Driver/Inc/stm32wbxx_ll_exti.h **** /** @defgroup EXTI_LL_EM_WRITE_READ Common Write and read registers Macros
 248:Drivers/STM32WBxx_HAL_Driver/Inc/stm32wbxx_ll_exti.h ****   * @{
 249:Drivers/STM32WBxx_HAL_Driver/Inc/stm32wbxx_ll_exti.h ****   */
 250:Drivers/STM32WBxx_HAL_Driver/Inc/stm32wbxx_ll_exti.h **** 
 251:Drivers/STM32WBxx_HAL_Driver/Inc/stm32wbxx_ll_exti.h **** /**
 252:Drivers/STM32WBxx_HAL_Driver/Inc/stm32wbxx_ll_exti.h ****   * @brief  Write a value in EXTI register
 253:Drivers/STM32WBxx_HAL_Driver/Inc/stm32wbxx_ll_exti.h ****   * @param  __REG__ Register to be written
 254:Drivers/STM32WBxx_HAL_Driver/Inc/stm32wbxx_ll_exti.h ****   * @param  __VALUE__ Value to be written in the register
 255:Drivers/STM32WBxx_HAL_Driver/Inc/stm32wbxx_ll_exti.h ****   * @retval None
 256:Drivers/STM32WBxx_HAL_Driver/Inc/stm32wbxx_ll_exti.h ****   */
 257:Drivers/STM32WBxx_HAL_Driver/Inc/stm32wbxx_ll_exti.h **** #define LL_EXTI_WriteReg(__REG__, __VALUE__) WRITE_REG(EXTI->__REG__, (__VALUE__))
 258:Drivers/STM32WBxx_HAL_Driver/Inc/stm32wbxx_ll_exti.h **** 
ARM GAS  C:\Users\alanl\AppData\Local\Temp\ccf1ENHg.s 			page 6


 259:Drivers/STM32WBxx_HAL_Driver/Inc/stm32wbxx_ll_exti.h **** /**
 260:Drivers/STM32WBxx_HAL_Driver/Inc/stm32wbxx_ll_exti.h ****   * @brief  Read a value in EXTI register
 261:Drivers/STM32WBxx_HAL_Driver/Inc/stm32wbxx_ll_exti.h ****   * @param  __REG__ Register to be read
 262:Drivers/STM32WBxx_HAL_Driver/Inc/stm32wbxx_ll_exti.h ****   * @retval Register value
 263:Drivers/STM32WBxx_HAL_Driver/Inc/stm32wbxx_ll_exti.h ****   */
 264:Drivers/STM32WBxx_HAL_Driver/Inc/stm32wbxx_ll_exti.h **** #define LL_EXTI_ReadReg(__REG__) READ_REG(EXTI->__REG__)
 265:Drivers/STM32WBxx_HAL_Driver/Inc/stm32wbxx_ll_exti.h **** /**
 266:Drivers/STM32WBxx_HAL_Driver/Inc/stm32wbxx_ll_exti.h ****   * @}
 267:Drivers/STM32WBxx_HAL_Driver/Inc/stm32wbxx_ll_exti.h ****   */
 268:Drivers/STM32WBxx_HAL_Driver/Inc/stm32wbxx_ll_exti.h **** 
 269:Drivers/STM32WBxx_HAL_Driver/Inc/stm32wbxx_ll_exti.h **** 
 270:Drivers/STM32WBxx_HAL_Driver/Inc/stm32wbxx_ll_exti.h **** /**
 271:Drivers/STM32WBxx_HAL_Driver/Inc/stm32wbxx_ll_exti.h ****   * @}
 272:Drivers/STM32WBxx_HAL_Driver/Inc/stm32wbxx_ll_exti.h ****   */
 273:Drivers/STM32WBxx_HAL_Driver/Inc/stm32wbxx_ll_exti.h **** 
 274:Drivers/STM32WBxx_HAL_Driver/Inc/stm32wbxx_ll_exti.h **** 
 275:Drivers/STM32WBxx_HAL_Driver/Inc/stm32wbxx_ll_exti.h **** 
 276:Drivers/STM32WBxx_HAL_Driver/Inc/stm32wbxx_ll_exti.h **** /* Exported functions --------------------------------------------------------*/
 277:Drivers/STM32WBxx_HAL_Driver/Inc/stm32wbxx_ll_exti.h **** /** @defgroup EXTI_LL_Exported_Functions EXTI Exported Functions
 278:Drivers/STM32WBxx_HAL_Driver/Inc/stm32wbxx_ll_exti.h ****   * @{
 279:Drivers/STM32WBxx_HAL_Driver/Inc/stm32wbxx_ll_exti.h ****   */
 280:Drivers/STM32WBxx_HAL_Driver/Inc/stm32wbxx_ll_exti.h **** /** @defgroup EXTI_LL_EF_IT_Management IT_Management
 281:Drivers/STM32WBxx_HAL_Driver/Inc/stm32wbxx_ll_exti.h ****   * @{
 282:Drivers/STM32WBxx_HAL_Driver/Inc/stm32wbxx_ll_exti.h ****   */
 283:Drivers/STM32WBxx_HAL_Driver/Inc/stm32wbxx_ll_exti.h **** 
 284:Drivers/STM32WBxx_HAL_Driver/Inc/stm32wbxx_ll_exti.h **** /**
 285:Drivers/STM32WBxx_HAL_Driver/Inc/stm32wbxx_ll_exti.h ****   * @brief  Enable ExtiLine Interrupt request for Lines in range 0 to 31
 286:Drivers/STM32WBxx_HAL_Driver/Inc/stm32wbxx_ll_exti.h ****   * @rmtoll IMR1         IMx           LL_EXTI_EnableIT_0_31
 287:Drivers/STM32WBxx_HAL_Driver/Inc/stm32wbxx_ll_exti.h ****   * @param  ExtiLine This parameter can be a combination of the following values:
 288:Drivers/STM32WBxx_HAL_Driver/Inc/stm32wbxx_ll_exti.h ****   *         @arg @ref LL_EXTI_LINE_0
 289:Drivers/STM32WBxx_HAL_Driver/Inc/stm32wbxx_ll_exti.h ****   *         @arg @ref LL_EXTI_LINE_1
 290:Drivers/STM32WBxx_HAL_Driver/Inc/stm32wbxx_ll_exti.h ****   *         @arg @ref LL_EXTI_LINE_2
 291:Drivers/STM32WBxx_HAL_Driver/Inc/stm32wbxx_ll_exti.h ****   *         @arg @ref LL_EXTI_LINE_3
 292:Drivers/STM32WBxx_HAL_Driver/Inc/stm32wbxx_ll_exti.h ****   *         @arg @ref LL_EXTI_LINE_4
 293:Drivers/STM32WBxx_HAL_Driver/Inc/stm32wbxx_ll_exti.h ****   *         @arg @ref LL_EXTI_LINE_5
 294:Drivers/STM32WBxx_HAL_Driver/Inc/stm32wbxx_ll_exti.h ****   *         @arg @ref LL_EXTI_LINE_6
 295:Drivers/STM32WBxx_HAL_Driver/Inc/stm32wbxx_ll_exti.h ****   *         @arg @ref LL_EXTI_LINE_7
 296:Drivers/STM32WBxx_HAL_Driver/Inc/stm32wbxx_ll_exti.h ****   *         @arg @ref LL_EXTI_LINE_8
 297:Drivers/STM32WBxx_HAL_Driver/Inc/stm32wbxx_ll_exti.h ****   *         @arg @ref LL_EXTI_LINE_9
 298:Drivers/STM32WBxx_HAL_Driver/Inc/stm32wbxx_ll_exti.h ****   *         @arg @ref LL_EXTI_LINE_10
 299:Drivers/STM32WBxx_HAL_Driver/Inc/stm32wbxx_ll_exti.h ****   *         @arg @ref LL_EXTI_LINE_11
 300:Drivers/STM32WBxx_HAL_Driver/Inc/stm32wbxx_ll_exti.h ****   *         @arg @ref LL_EXTI_LINE_12
 301:Drivers/STM32WBxx_HAL_Driver/Inc/stm32wbxx_ll_exti.h ****   *         @arg @ref LL_EXTI_LINE_13
 302:Drivers/STM32WBxx_HAL_Driver/Inc/stm32wbxx_ll_exti.h ****   *         @arg @ref LL_EXTI_LINE_14
 303:Drivers/STM32WBxx_HAL_Driver/Inc/stm32wbxx_ll_exti.h ****   *         @arg @ref LL_EXTI_LINE_15
 304:Drivers/STM32WBxx_HAL_Driver/Inc/stm32wbxx_ll_exti.h ****   *         @arg @ref LL_EXTI_LINE_16
 305:Drivers/STM32WBxx_HAL_Driver/Inc/stm32wbxx_ll_exti.h ****   *         @arg @ref LL_EXTI_LINE_17
 306:Drivers/STM32WBxx_HAL_Driver/Inc/stm32wbxx_ll_exti.h ****   *         @arg @ref LL_EXTI_LINE_18
 307:Drivers/STM32WBxx_HAL_Driver/Inc/stm32wbxx_ll_exti.h ****   *         @arg @ref LL_EXTI_LINE_19
 308:Drivers/STM32WBxx_HAL_Driver/Inc/stm32wbxx_ll_exti.h ****   *         @arg @ref LL_EXTI_LINE_20 (*)
 309:Drivers/STM32WBxx_HAL_Driver/Inc/stm32wbxx_ll_exti.h ****   *         @arg @ref LL_EXTI_LINE_21 (*)
 310:Drivers/STM32WBxx_HAL_Driver/Inc/stm32wbxx_ll_exti.h ****   *         @arg @ref LL_EXTI_LINE_22
 311:Drivers/STM32WBxx_HAL_Driver/Inc/stm32wbxx_ll_exti.h ****   *         @arg @ref LL_EXTI_LINE_23 (*)
 312:Drivers/STM32WBxx_HAL_Driver/Inc/stm32wbxx_ll_exti.h ****   *         @arg @ref LL_EXTI_LINE_24
 313:Drivers/STM32WBxx_HAL_Driver/Inc/stm32wbxx_ll_exti.h ****   *         @arg @ref LL_EXTI_LINE_25 (*)
 314:Drivers/STM32WBxx_HAL_Driver/Inc/stm32wbxx_ll_exti.h ****   *         @arg @ref LL_EXTI_LINE_28 (*)
 315:Drivers/STM32WBxx_HAL_Driver/Inc/stm32wbxx_ll_exti.h ****   *         @arg @ref LL_EXTI_LINE_29
ARM GAS  C:\Users\alanl\AppData\Local\Temp\ccf1ENHg.s 			page 7


 316:Drivers/STM32WBxx_HAL_Driver/Inc/stm32wbxx_ll_exti.h ****   *         @arg @ref LL_EXTI_LINE_30
 317:Drivers/STM32WBxx_HAL_Driver/Inc/stm32wbxx_ll_exti.h ****   *         @arg @ref LL_EXTI_LINE_31 (*)
 318:Drivers/STM32WBxx_HAL_Driver/Inc/stm32wbxx_ll_exti.h ****   *         @arg @ref LL_EXTI_LINE_ALL_0_31
 319:Drivers/STM32WBxx_HAL_Driver/Inc/stm32wbxx_ll_exti.h ****   *         (*) value not defined in all devices
 320:Drivers/STM32WBxx_HAL_Driver/Inc/stm32wbxx_ll_exti.h ****   * @retval None
 321:Drivers/STM32WBxx_HAL_Driver/Inc/stm32wbxx_ll_exti.h ****   */
 322:Drivers/STM32WBxx_HAL_Driver/Inc/stm32wbxx_ll_exti.h **** __STATIC_INLINE void LL_EXTI_EnableIT_0_31(uint32_t ExtiLine)
 323:Drivers/STM32WBxx_HAL_Driver/Inc/stm32wbxx_ll_exti.h **** {
  29              		.loc 2 323 1
  30              		.cfi_startproc
  31              		@ args = 0, pretend = 0, frame = 8
  32              		@ frame_needed = 1, uses_anonymous_args = 0
  33              		@ link register save eliminated.
  34 0000 80B4     		push	{r7}
  35              	.LCFI0:
  36              		.cfi_def_cfa_offset 4
  37              		.cfi_offset 7, -4
  38 0002 83B0     		sub	sp, sp, #12
  39              	.LCFI1:
  40              		.cfi_def_cfa_offset 16
  41 0004 00AF     		add	r7, sp, #0
  42              	.LCFI2:
  43              		.cfi_def_cfa_register 7
  44 0006 7860     		str	r0, [r7, #4]
 324:Drivers/STM32WBxx_HAL_Driver/Inc/stm32wbxx_ll_exti.h ****   SET_BIT(EXTI->IMR1, ExtiLine);
  45              		.loc 2 324 3
  46 0008 064B     		ldr	r3, .L2
  47 000a D3F88020 		ldr	r2, [r3, #128]
  48 000e 0549     		ldr	r1, .L2
  49 0010 7B68     		ldr	r3, [r7, #4]
  50 0012 1343     		orrs	r3, r3, r2
  51 0014 C1F88030 		str	r3, [r1, #128]
 325:Drivers/STM32WBxx_HAL_Driver/Inc/stm32wbxx_ll_exti.h **** }
  52              		.loc 2 325 1
  53 0018 00BF     		nop
  54 001a 0C37     		adds	r7, r7, #12
  55              	.LCFI3:
  56              		.cfi_def_cfa_offset 4
  57 001c BD46     		mov	sp, r7
  58              	.LCFI4:
  59              		.cfi_def_cfa_register 13
  60              		@ sp needed
  61 001e 5DF8047B 		ldr	r7, [sp], #4
  62              	.LCFI5:
  63              		.cfi_restore 7
  64              		.cfi_def_cfa_offset 0
  65 0022 7047     		bx	lr
  66              	.L3:
  67              		.align	2
  68              	.L2:
  69 0024 00080058 		.word	1476397056
  70              		.cfi_endproc
  71              	.LFE443:
  73              		.section	.text.LL_EXTI_DisableIT_0_31,"ax",%progbits
  74              		.align	1
  75              		.syntax unified
  76              		.thumb
ARM GAS  C:\Users\alanl\AppData\Local\Temp\ccf1ENHg.s 			page 8


  77              		.thumb_func
  79              	LL_EXTI_DisableIT_0_31:
  80              	.LFB447:
 326:Drivers/STM32WBxx_HAL_Driver/Inc/stm32wbxx_ll_exti.h **** 
 327:Drivers/STM32WBxx_HAL_Driver/Inc/stm32wbxx_ll_exti.h **** /**
 328:Drivers/STM32WBxx_HAL_Driver/Inc/stm32wbxx_ll_exti.h ****   * @brief  Enable ExtiLine Interrupt request for Lines in range 0 to 31 for cpu2
 329:Drivers/STM32WBxx_HAL_Driver/Inc/stm32wbxx_ll_exti.h ****   * @rmtoll C2IMR1         IMx           LL_C2_EXTI_EnableIT_0_31
 330:Drivers/STM32WBxx_HAL_Driver/Inc/stm32wbxx_ll_exti.h ****   * @param  ExtiLine This parameter can be a combination of the following values:
 331:Drivers/STM32WBxx_HAL_Driver/Inc/stm32wbxx_ll_exti.h ****   *         @arg @ref LL_EXTI_LINE_0
 332:Drivers/STM32WBxx_HAL_Driver/Inc/stm32wbxx_ll_exti.h ****   *         @arg @ref LL_EXTI_LINE_1
 333:Drivers/STM32WBxx_HAL_Driver/Inc/stm32wbxx_ll_exti.h ****   *         @arg @ref LL_EXTI_LINE_2
 334:Drivers/STM32WBxx_HAL_Driver/Inc/stm32wbxx_ll_exti.h ****   *         @arg @ref LL_EXTI_LINE_3
 335:Drivers/STM32WBxx_HAL_Driver/Inc/stm32wbxx_ll_exti.h ****   *         @arg @ref LL_EXTI_LINE_4
 336:Drivers/STM32WBxx_HAL_Driver/Inc/stm32wbxx_ll_exti.h ****   *         @arg @ref LL_EXTI_LINE_5
 337:Drivers/STM32WBxx_HAL_Driver/Inc/stm32wbxx_ll_exti.h ****   *         @arg @ref LL_EXTI_LINE_6
 338:Drivers/STM32WBxx_HAL_Driver/Inc/stm32wbxx_ll_exti.h ****   *         @arg @ref LL_EXTI_LINE_7
 339:Drivers/STM32WBxx_HAL_Driver/Inc/stm32wbxx_ll_exti.h ****   *         @arg @ref LL_EXTI_LINE_8
 340:Drivers/STM32WBxx_HAL_Driver/Inc/stm32wbxx_ll_exti.h ****   *         @arg @ref LL_EXTI_LINE_9
 341:Drivers/STM32WBxx_HAL_Driver/Inc/stm32wbxx_ll_exti.h ****   *         @arg @ref LL_EXTI_LINE_10
 342:Drivers/STM32WBxx_HAL_Driver/Inc/stm32wbxx_ll_exti.h ****   *         @arg @ref LL_EXTI_LINE_11
 343:Drivers/STM32WBxx_HAL_Driver/Inc/stm32wbxx_ll_exti.h ****   *         @arg @ref LL_EXTI_LINE_12
 344:Drivers/STM32WBxx_HAL_Driver/Inc/stm32wbxx_ll_exti.h ****   *         @arg @ref LL_EXTI_LINE_13
 345:Drivers/STM32WBxx_HAL_Driver/Inc/stm32wbxx_ll_exti.h ****   *         @arg @ref LL_EXTI_LINE_14
 346:Drivers/STM32WBxx_HAL_Driver/Inc/stm32wbxx_ll_exti.h ****   *         @arg @ref LL_EXTI_LINE_15
 347:Drivers/STM32WBxx_HAL_Driver/Inc/stm32wbxx_ll_exti.h ****   *         @arg @ref LL_EXTI_LINE_16
 348:Drivers/STM32WBxx_HAL_Driver/Inc/stm32wbxx_ll_exti.h ****   *         @arg @ref LL_EXTI_LINE_17
 349:Drivers/STM32WBxx_HAL_Driver/Inc/stm32wbxx_ll_exti.h ****   *         @arg @ref LL_EXTI_LINE_18
 350:Drivers/STM32WBxx_HAL_Driver/Inc/stm32wbxx_ll_exti.h ****   *         @arg @ref LL_EXTI_LINE_19
 351:Drivers/STM32WBxx_HAL_Driver/Inc/stm32wbxx_ll_exti.h ****   *         @arg @ref LL_EXTI_LINE_20 (*)
 352:Drivers/STM32WBxx_HAL_Driver/Inc/stm32wbxx_ll_exti.h ****   *         @arg @ref LL_EXTI_LINE_21 (*)
 353:Drivers/STM32WBxx_HAL_Driver/Inc/stm32wbxx_ll_exti.h ****   *         @arg @ref LL_EXTI_LINE_22
 354:Drivers/STM32WBxx_HAL_Driver/Inc/stm32wbxx_ll_exti.h ****   *         @arg @ref LL_EXTI_LINE_23 (*)
 355:Drivers/STM32WBxx_HAL_Driver/Inc/stm32wbxx_ll_exti.h ****   *         @arg @ref LL_EXTI_LINE_24
 356:Drivers/STM32WBxx_HAL_Driver/Inc/stm32wbxx_ll_exti.h ****   *         @arg @ref LL_EXTI_LINE_25 (*)
 357:Drivers/STM32WBxx_HAL_Driver/Inc/stm32wbxx_ll_exti.h ****   *         @arg @ref LL_EXTI_LINE_28 (*)
 358:Drivers/STM32WBxx_HAL_Driver/Inc/stm32wbxx_ll_exti.h ****   *         @arg @ref LL_EXTI_LINE_29
 359:Drivers/STM32WBxx_HAL_Driver/Inc/stm32wbxx_ll_exti.h ****   *         @arg @ref LL_EXTI_LINE_30
 360:Drivers/STM32WBxx_HAL_Driver/Inc/stm32wbxx_ll_exti.h ****   *         @arg @ref LL_EXTI_LINE_31 (*)
 361:Drivers/STM32WBxx_HAL_Driver/Inc/stm32wbxx_ll_exti.h ****   *         @arg @ref LL_EXTI_LINE_ALL_0_31
 362:Drivers/STM32WBxx_HAL_Driver/Inc/stm32wbxx_ll_exti.h ****   *         (*) value not defined in all devices
 363:Drivers/STM32WBxx_HAL_Driver/Inc/stm32wbxx_ll_exti.h ****   * @retval None
 364:Drivers/STM32WBxx_HAL_Driver/Inc/stm32wbxx_ll_exti.h ****   */
 365:Drivers/STM32WBxx_HAL_Driver/Inc/stm32wbxx_ll_exti.h **** __STATIC_INLINE void LL_C2_EXTI_EnableIT_0_31(uint32_t ExtiLine)
 366:Drivers/STM32WBxx_HAL_Driver/Inc/stm32wbxx_ll_exti.h **** {
 367:Drivers/STM32WBxx_HAL_Driver/Inc/stm32wbxx_ll_exti.h ****   SET_BIT(EXTI->C2IMR1, ExtiLine);
 368:Drivers/STM32WBxx_HAL_Driver/Inc/stm32wbxx_ll_exti.h **** }
 369:Drivers/STM32WBxx_HAL_Driver/Inc/stm32wbxx_ll_exti.h **** 
 370:Drivers/STM32WBxx_HAL_Driver/Inc/stm32wbxx_ll_exti.h **** /**
 371:Drivers/STM32WBxx_HAL_Driver/Inc/stm32wbxx_ll_exti.h ****   * @brief  Enable ExtiLine Interrupt request for Lines in range 32 to 63
 372:Drivers/STM32WBxx_HAL_Driver/Inc/stm32wbxx_ll_exti.h ****   * @rmtoll IMR2         IMx           LL_EXTI_EnableIT_32_63
 373:Drivers/STM32WBxx_HAL_Driver/Inc/stm32wbxx_ll_exti.h ****   * @param  ExtiLine This parameter can be a combination of the following values:
 374:Drivers/STM32WBxx_HAL_Driver/Inc/stm32wbxx_ll_exti.h ****   *         @arg @ref LL_EXTI_LINE_33
 375:Drivers/STM32WBxx_HAL_Driver/Inc/stm32wbxx_ll_exti.h ****   *         @arg @ref LL_EXTI_LINE_36
 376:Drivers/STM32WBxx_HAL_Driver/Inc/stm32wbxx_ll_exti.h ****   *         @arg @ref LL_EXTI_LINE_37
 377:Drivers/STM32WBxx_HAL_Driver/Inc/stm32wbxx_ll_exti.h ****   *         @arg @ref LL_EXTI_LINE_38
 378:Drivers/STM32WBxx_HAL_Driver/Inc/stm32wbxx_ll_exti.h ****   *         @arg @ref LL_EXTI_LINE_39
 379:Drivers/STM32WBxx_HAL_Driver/Inc/stm32wbxx_ll_exti.h ****   *         @arg @ref LL_EXTI_LINE_40
ARM GAS  C:\Users\alanl\AppData\Local\Temp\ccf1ENHg.s 			page 9


 380:Drivers/STM32WBxx_HAL_Driver/Inc/stm32wbxx_ll_exti.h ****   *         @arg @ref LL_EXTI_LINE_41
 381:Drivers/STM32WBxx_HAL_Driver/Inc/stm32wbxx_ll_exti.h ****   *         @arg @ref LL_EXTI_LINE_42
 382:Drivers/STM32WBxx_HAL_Driver/Inc/stm32wbxx_ll_exti.h ****   *         @arg @ref LL_EXTI_LINE_43 (*)
 383:Drivers/STM32WBxx_HAL_Driver/Inc/stm32wbxx_ll_exti.h ****   *         @arg @ref LL_EXTI_LINE_44
 384:Drivers/STM32WBxx_HAL_Driver/Inc/stm32wbxx_ll_exti.h ****   *         @arg @ref LL_EXTI_LINE_45
 385:Drivers/STM32WBxx_HAL_Driver/Inc/stm32wbxx_ll_exti.h ****   *         @arg @ref LL_EXTI_LINE_46 (*)
 386:Drivers/STM32WBxx_HAL_Driver/Inc/stm32wbxx_ll_exti.h ****   *         @arg @ref LL_EXTI_LINE_48
 387:Drivers/STM32WBxx_HAL_Driver/Inc/stm32wbxx_ll_exti.h ****   *         @arg @ref LL_EXTI_LINE_ALL_32_63
 388:Drivers/STM32WBxx_HAL_Driver/Inc/stm32wbxx_ll_exti.h ****   *         (*) value not defined in all devices
 389:Drivers/STM32WBxx_HAL_Driver/Inc/stm32wbxx_ll_exti.h ****   * @retval None
 390:Drivers/STM32WBxx_HAL_Driver/Inc/stm32wbxx_ll_exti.h ****   */
 391:Drivers/STM32WBxx_HAL_Driver/Inc/stm32wbxx_ll_exti.h **** __STATIC_INLINE void LL_EXTI_EnableIT_32_63(uint32_t ExtiLine)
 392:Drivers/STM32WBxx_HAL_Driver/Inc/stm32wbxx_ll_exti.h **** {
 393:Drivers/STM32WBxx_HAL_Driver/Inc/stm32wbxx_ll_exti.h ****   SET_BIT(EXTI->IMR2, ExtiLine);
 394:Drivers/STM32WBxx_HAL_Driver/Inc/stm32wbxx_ll_exti.h **** }
 395:Drivers/STM32WBxx_HAL_Driver/Inc/stm32wbxx_ll_exti.h **** 
 396:Drivers/STM32WBxx_HAL_Driver/Inc/stm32wbxx_ll_exti.h **** /**
 397:Drivers/STM32WBxx_HAL_Driver/Inc/stm32wbxx_ll_exti.h ****   * @brief  Enable ExtiLine Interrupt request for Lines in range 32 to 63 for cpu2
 398:Drivers/STM32WBxx_HAL_Driver/Inc/stm32wbxx_ll_exti.h ****   * @rmtoll C2IMR2         IMx           LL_C2_EXTI_EnableIT_32_63
 399:Drivers/STM32WBxx_HAL_Driver/Inc/stm32wbxx_ll_exti.h ****   * @param  ExtiLine This parameter can be a combination of the following values:
 400:Drivers/STM32WBxx_HAL_Driver/Inc/stm32wbxx_ll_exti.h ****   *         @arg @ref LL_EXTI_LINE_33
 401:Drivers/STM32WBxx_HAL_Driver/Inc/stm32wbxx_ll_exti.h ****   *         @arg @ref LL_EXTI_LINE_36
 402:Drivers/STM32WBxx_HAL_Driver/Inc/stm32wbxx_ll_exti.h ****   *         @arg @ref LL_EXTI_LINE_37
 403:Drivers/STM32WBxx_HAL_Driver/Inc/stm32wbxx_ll_exti.h ****   *         @arg @ref LL_EXTI_LINE_38
 404:Drivers/STM32WBxx_HAL_Driver/Inc/stm32wbxx_ll_exti.h ****   *         @arg @ref LL_EXTI_LINE_39
 405:Drivers/STM32WBxx_HAL_Driver/Inc/stm32wbxx_ll_exti.h ****   *         @arg @ref LL_EXTI_LINE_40
 406:Drivers/STM32WBxx_HAL_Driver/Inc/stm32wbxx_ll_exti.h ****   *         @arg @ref LL_EXTI_LINE_41
 407:Drivers/STM32WBxx_HAL_Driver/Inc/stm32wbxx_ll_exti.h ****   *         @arg @ref LL_EXTI_LINE_42
 408:Drivers/STM32WBxx_HAL_Driver/Inc/stm32wbxx_ll_exti.h ****   *         @arg @ref LL_EXTI_LINE_43 (*)
 409:Drivers/STM32WBxx_HAL_Driver/Inc/stm32wbxx_ll_exti.h ****   *         @arg @ref LL_EXTI_LINE_44
 410:Drivers/STM32WBxx_HAL_Driver/Inc/stm32wbxx_ll_exti.h ****   *         @arg @ref LL_EXTI_LINE_45
 411:Drivers/STM32WBxx_HAL_Driver/Inc/stm32wbxx_ll_exti.h ****   *         @arg @ref LL_EXTI_LINE_46 (*)
 412:Drivers/STM32WBxx_HAL_Driver/Inc/stm32wbxx_ll_exti.h ****   *         @arg @ref LL_EXTI_LINE_48
 413:Drivers/STM32WBxx_HAL_Driver/Inc/stm32wbxx_ll_exti.h ****   *         @arg @ref LL_EXTI_LINE_ALL_32_63
 414:Drivers/STM32WBxx_HAL_Driver/Inc/stm32wbxx_ll_exti.h ****   *         (*) value not defined in all devices
 415:Drivers/STM32WBxx_HAL_Driver/Inc/stm32wbxx_ll_exti.h ****   * @retval None
 416:Drivers/STM32WBxx_HAL_Driver/Inc/stm32wbxx_ll_exti.h ****   */
 417:Drivers/STM32WBxx_HAL_Driver/Inc/stm32wbxx_ll_exti.h **** __STATIC_INLINE void LL_C2_EXTI_EnableIT_32_63(uint32_t ExtiLine)
 418:Drivers/STM32WBxx_HAL_Driver/Inc/stm32wbxx_ll_exti.h **** {
 419:Drivers/STM32WBxx_HAL_Driver/Inc/stm32wbxx_ll_exti.h ****   SET_BIT(EXTI->C2IMR2, ExtiLine);
 420:Drivers/STM32WBxx_HAL_Driver/Inc/stm32wbxx_ll_exti.h **** }
 421:Drivers/STM32WBxx_HAL_Driver/Inc/stm32wbxx_ll_exti.h **** 
 422:Drivers/STM32WBxx_HAL_Driver/Inc/stm32wbxx_ll_exti.h **** /**
 423:Drivers/STM32WBxx_HAL_Driver/Inc/stm32wbxx_ll_exti.h ****   * @brief  Disable ExtiLine Interrupt request for Lines in range 0 to 31
 424:Drivers/STM32WBxx_HAL_Driver/Inc/stm32wbxx_ll_exti.h ****   * @rmtoll IMR1         IMx           LL_EXTI_DisableIT_0_31
 425:Drivers/STM32WBxx_HAL_Driver/Inc/stm32wbxx_ll_exti.h ****   * @param  ExtiLine This parameter can be a combination of the following values:
 426:Drivers/STM32WBxx_HAL_Driver/Inc/stm32wbxx_ll_exti.h ****   *         @arg @ref LL_EXTI_LINE_0
 427:Drivers/STM32WBxx_HAL_Driver/Inc/stm32wbxx_ll_exti.h ****   *         @arg @ref LL_EXTI_LINE_1
 428:Drivers/STM32WBxx_HAL_Driver/Inc/stm32wbxx_ll_exti.h ****   *         @arg @ref LL_EXTI_LINE_2
 429:Drivers/STM32WBxx_HAL_Driver/Inc/stm32wbxx_ll_exti.h ****   *         @arg @ref LL_EXTI_LINE_3
 430:Drivers/STM32WBxx_HAL_Driver/Inc/stm32wbxx_ll_exti.h ****   *         @arg @ref LL_EXTI_LINE_4
 431:Drivers/STM32WBxx_HAL_Driver/Inc/stm32wbxx_ll_exti.h ****   *         @arg @ref LL_EXTI_LINE_5
 432:Drivers/STM32WBxx_HAL_Driver/Inc/stm32wbxx_ll_exti.h ****   *         @arg @ref LL_EXTI_LINE_6
 433:Drivers/STM32WBxx_HAL_Driver/Inc/stm32wbxx_ll_exti.h ****   *         @arg @ref LL_EXTI_LINE_7
 434:Drivers/STM32WBxx_HAL_Driver/Inc/stm32wbxx_ll_exti.h ****   *         @arg @ref LL_EXTI_LINE_8
 435:Drivers/STM32WBxx_HAL_Driver/Inc/stm32wbxx_ll_exti.h ****   *         @arg @ref LL_EXTI_LINE_9
 436:Drivers/STM32WBxx_HAL_Driver/Inc/stm32wbxx_ll_exti.h ****   *         @arg @ref LL_EXTI_LINE_10
ARM GAS  C:\Users\alanl\AppData\Local\Temp\ccf1ENHg.s 			page 10


 437:Drivers/STM32WBxx_HAL_Driver/Inc/stm32wbxx_ll_exti.h ****   *         @arg @ref LL_EXTI_LINE_11
 438:Drivers/STM32WBxx_HAL_Driver/Inc/stm32wbxx_ll_exti.h ****   *         @arg @ref LL_EXTI_LINE_12
 439:Drivers/STM32WBxx_HAL_Driver/Inc/stm32wbxx_ll_exti.h ****   *         @arg @ref LL_EXTI_LINE_13
 440:Drivers/STM32WBxx_HAL_Driver/Inc/stm32wbxx_ll_exti.h ****   *         @arg @ref LL_EXTI_LINE_14
 441:Drivers/STM32WBxx_HAL_Driver/Inc/stm32wbxx_ll_exti.h ****   *         @arg @ref LL_EXTI_LINE_15
 442:Drivers/STM32WBxx_HAL_Driver/Inc/stm32wbxx_ll_exti.h ****   *         @arg @ref LL_EXTI_LINE_16
 443:Drivers/STM32WBxx_HAL_Driver/Inc/stm32wbxx_ll_exti.h ****   *         @arg @ref LL_EXTI_LINE_17
 444:Drivers/STM32WBxx_HAL_Driver/Inc/stm32wbxx_ll_exti.h ****   *         @arg @ref LL_EXTI_LINE_18
 445:Drivers/STM32WBxx_HAL_Driver/Inc/stm32wbxx_ll_exti.h ****   *         @arg @ref LL_EXTI_LINE_19
 446:Drivers/STM32WBxx_HAL_Driver/Inc/stm32wbxx_ll_exti.h ****   *         @arg @ref LL_EXTI_LINE_20 (*)
 447:Drivers/STM32WBxx_HAL_Driver/Inc/stm32wbxx_ll_exti.h ****   *         @arg @ref LL_EXTI_LINE_21 (*)
 448:Drivers/STM32WBxx_HAL_Driver/Inc/stm32wbxx_ll_exti.h ****   *         @arg @ref LL_EXTI_LINE_22
 449:Drivers/STM32WBxx_HAL_Driver/Inc/stm32wbxx_ll_exti.h ****   *         @arg @ref LL_EXTI_LINE_23 (*)
 450:Drivers/STM32WBxx_HAL_Driver/Inc/stm32wbxx_ll_exti.h ****   *         @arg @ref LL_EXTI_LINE_24
 451:Drivers/STM32WBxx_HAL_Driver/Inc/stm32wbxx_ll_exti.h ****   *         @arg @ref LL_EXTI_LINE_25 (*)
 452:Drivers/STM32WBxx_HAL_Driver/Inc/stm32wbxx_ll_exti.h ****   *         @arg @ref LL_EXTI_LINE_28 (*)
 453:Drivers/STM32WBxx_HAL_Driver/Inc/stm32wbxx_ll_exti.h ****   *         @arg @ref LL_EXTI_LINE_29
 454:Drivers/STM32WBxx_HAL_Driver/Inc/stm32wbxx_ll_exti.h ****   *         @arg @ref LL_EXTI_LINE_30
 455:Drivers/STM32WBxx_HAL_Driver/Inc/stm32wbxx_ll_exti.h ****   *         @arg @ref LL_EXTI_LINE_31 (*)
 456:Drivers/STM32WBxx_HAL_Driver/Inc/stm32wbxx_ll_exti.h ****   *         @arg @ref LL_EXTI_LINE_ALL_0_31
 457:Drivers/STM32WBxx_HAL_Driver/Inc/stm32wbxx_ll_exti.h ****   *         (*) value not defined in all devices
 458:Drivers/STM32WBxx_HAL_Driver/Inc/stm32wbxx_ll_exti.h ****   * @retval None
 459:Drivers/STM32WBxx_HAL_Driver/Inc/stm32wbxx_ll_exti.h ****   */
 460:Drivers/STM32WBxx_HAL_Driver/Inc/stm32wbxx_ll_exti.h **** __STATIC_INLINE void LL_EXTI_DisableIT_0_31(uint32_t ExtiLine)
 461:Drivers/STM32WBxx_HAL_Driver/Inc/stm32wbxx_ll_exti.h **** {
  81              		.loc 2 461 1
  82              		.cfi_startproc
  83              		@ args = 0, pretend = 0, frame = 8
  84              		@ frame_needed = 1, uses_anonymous_args = 0
  85              		@ link register save eliminated.
  86 0000 80B4     		push	{r7}
  87              	.LCFI6:
  88              		.cfi_def_cfa_offset 4
  89              		.cfi_offset 7, -4
  90 0002 83B0     		sub	sp, sp, #12
  91              	.LCFI7:
  92              		.cfi_def_cfa_offset 16
  93 0004 00AF     		add	r7, sp, #0
  94              	.LCFI8:
  95              		.cfi_def_cfa_register 7
  96 0006 7860     		str	r0, [r7, #4]
 462:Drivers/STM32WBxx_HAL_Driver/Inc/stm32wbxx_ll_exti.h ****   CLEAR_BIT(EXTI->IMR1, ExtiLine);
  97              		.loc 2 462 3
  98 0008 074B     		ldr	r3, .L5
  99 000a D3F88020 		ldr	r2, [r3, #128]
 100 000e 7B68     		ldr	r3, [r7, #4]
 101 0010 DB43     		mvns	r3, r3
 102 0012 0549     		ldr	r1, .L5
 103 0014 1340     		ands	r3, r3, r2
 104 0016 C1F88030 		str	r3, [r1, #128]
 463:Drivers/STM32WBxx_HAL_Driver/Inc/stm32wbxx_ll_exti.h **** }
 105              		.loc 2 463 1
 106 001a 00BF     		nop
 107 001c 0C37     		adds	r7, r7, #12
 108              	.LCFI9:
 109              		.cfi_def_cfa_offset 4
 110 001e BD46     		mov	sp, r7
ARM GAS  C:\Users\alanl\AppData\Local\Temp\ccf1ENHg.s 			page 11


 111              	.LCFI10:
 112              		.cfi_def_cfa_register 13
 113              		@ sp needed
 114 0020 5DF8047B 		ldr	r7, [sp], #4
 115              	.LCFI11:
 116              		.cfi_restore 7
 117              		.cfi_def_cfa_offset 0
 118 0024 7047     		bx	lr
 119              	.L6:
 120 0026 00BF     		.align	2
 121              	.L5:
 122 0028 00080058 		.word	1476397056
 123              		.cfi_endproc
 124              	.LFE447:
 126              		.section	.text.LL_C2_EXTI_DisableIT_0_31,"ax",%progbits
 127              		.align	1
 128              		.syntax unified
 129              		.thumb
 130              		.thumb_func
 132              	LL_C2_EXTI_DisableIT_0_31:
 133              	.LFB448:
 464:Drivers/STM32WBxx_HAL_Driver/Inc/stm32wbxx_ll_exti.h **** 
 465:Drivers/STM32WBxx_HAL_Driver/Inc/stm32wbxx_ll_exti.h **** /**
 466:Drivers/STM32WBxx_HAL_Driver/Inc/stm32wbxx_ll_exti.h ****   * @brief  Disable ExtiLine Interrupt request for Lines in range 0 to 31 for cpu2
 467:Drivers/STM32WBxx_HAL_Driver/Inc/stm32wbxx_ll_exti.h ****   * @rmtoll C2IMR1         IMx           LL_C2_EXTI_DisableIT_0_31
 468:Drivers/STM32WBxx_HAL_Driver/Inc/stm32wbxx_ll_exti.h ****   * @param  ExtiLine This parameter can be a combination of the following values:
 469:Drivers/STM32WBxx_HAL_Driver/Inc/stm32wbxx_ll_exti.h ****   *         @arg @ref LL_EXTI_LINE_0
 470:Drivers/STM32WBxx_HAL_Driver/Inc/stm32wbxx_ll_exti.h ****   *         @arg @ref LL_EXTI_LINE_1
 471:Drivers/STM32WBxx_HAL_Driver/Inc/stm32wbxx_ll_exti.h ****   *         @arg @ref LL_EXTI_LINE_2
 472:Drivers/STM32WBxx_HAL_Driver/Inc/stm32wbxx_ll_exti.h ****   *         @arg @ref LL_EXTI_LINE_3
 473:Drivers/STM32WBxx_HAL_Driver/Inc/stm32wbxx_ll_exti.h ****   *         @arg @ref LL_EXTI_LINE_4
 474:Drivers/STM32WBxx_HAL_Driver/Inc/stm32wbxx_ll_exti.h ****   *         @arg @ref LL_EXTI_LINE_5
 475:Drivers/STM32WBxx_HAL_Driver/Inc/stm32wbxx_ll_exti.h ****   *         @arg @ref LL_EXTI_LINE_6
 476:Drivers/STM32WBxx_HAL_Driver/Inc/stm32wbxx_ll_exti.h ****   *         @arg @ref LL_EXTI_LINE_7
 477:Drivers/STM32WBxx_HAL_Driver/Inc/stm32wbxx_ll_exti.h ****   *         @arg @ref LL_EXTI_LINE_8
 478:Drivers/STM32WBxx_HAL_Driver/Inc/stm32wbxx_ll_exti.h ****   *         @arg @ref LL_EXTI_LINE_9
 479:Drivers/STM32WBxx_HAL_Driver/Inc/stm32wbxx_ll_exti.h ****   *         @arg @ref LL_EXTI_LINE_10
 480:Drivers/STM32WBxx_HAL_Driver/Inc/stm32wbxx_ll_exti.h ****   *         @arg @ref LL_EXTI_LINE_11
 481:Drivers/STM32WBxx_HAL_Driver/Inc/stm32wbxx_ll_exti.h ****   *         @arg @ref LL_EXTI_LINE_12
 482:Drivers/STM32WBxx_HAL_Driver/Inc/stm32wbxx_ll_exti.h ****   *         @arg @ref LL_EXTI_LINE_13
 483:Drivers/STM32WBxx_HAL_Driver/Inc/stm32wbxx_ll_exti.h ****   *         @arg @ref LL_EXTI_LINE_14
 484:Drivers/STM32WBxx_HAL_Driver/Inc/stm32wbxx_ll_exti.h ****   *         @arg @ref LL_EXTI_LINE_15
 485:Drivers/STM32WBxx_HAL_Driver/Inc/stm32wbxx_ll_exti.h ****   *         @arg @ref LL_EXTI_LINE_16
 486:Drivers/STM32WBxx_HAL_Driver/Inc/stm32wbxx_ll_exti.h ****   *         @arg @ref LL_EXTI_LINE_17
 487:Drivers/STM32WBxx_HAL_Driver/Inc/stm32wbxx_ll_exti.h ****   *         @arg @ref LL_EXTI_LINE_18
 488:Drivers/STM32WBxx_HAL_Driver/Inc/stm32wbxx_ll_exti.h ****   *         @arg @ref LL_EXTI_LINE_19
 489:Drivers/STM32WBxx_HAL_Driver/Inc/stm32wbxx_ll_exti.h ****   *         @arg @ref LL_EXTI_LINE_20 (*)
 490:Drivers/STM32WBxx_HAL_Driver/Inc/stm32wbxx_ll_exti.h ****   *         @arg @ref LL_EXTI_LINE_21 (*)
 491:Drivers/STM32WBxx_HAL_Driver/Inc/stm32wbxx_ll_exti.h ****   *         @arg @ref LL_EXTI_LINE_22
 492:Drivers/STM32WBxx_HAL_Driver/Inc/stm32wbxx_ll_exti.h ****   *         @arg @ref LL_EXTI_LINE_23 (*)
 493:Drivers/STM32WBxx_HAL_Driver/Inc/stm32wbxx_ll_exti.h ****   *         @arg @ref LL_EXTI_LINE_24
 494:Drivers/STM32WBxx_HAL_Driver/Inc/stm32wbxx_ll_exti.h ****   *         @arg @ref LL_EXTI_LINE_25 (*)
 495:Drivers/STM32WBxx_HAL_Driver/Inc/stm32wbxx_ll_exti.h ****   *         @arg @ref LL_EXTI_LINE_28 (*)
 496:Drivers/STM32WBxx_HAL_Driver/Inc/stm32wbxx_ll_exti.h ****   *         @arg @ref LL_EXTI_LINE_29
 497:Drivers/STM32WBxx_HAL_Driver/Inc/stm32wbxx_ll_exti.h ****   *         @arg @ref LL_EXTI_LINE_30
 498:Drivers/STM32WBxx_HAL_Driver/Inc/stm32wbxx_ll_exti.h ****   *         @arg @ref LL_EXTI_LINE_31 (*)
 499:Drivers/STM32WBxx_HAL_Driver/Inc/stm32wbxx_ll_exti.h ****   *         @arg @ref LL_EXTI_LINE_ALL_0_31
ARM GAS  C:\Users\alanl\AppData\Local\Temp\ccf1ENHg.s 			page 12


 500:Drivers/STM32WBxx_HAL_Driver/Inc/stm32wbxx_ll_exti.h ****   *         (*) value not defined in all devices
 501:Drivers/STM32WBxx_HAL_Driver/Inc/stm32wbxx_ll_exti.h ****   * @retval None
 502:Drivers/STM32WBxx_HAL_Driver/Inc/stm32wbxx_ll_exti.h ****   */
 503:Drivers/STM32WBxx_HAL_Driver/Inc/stm32wbxx_ll_exti.h **** __STATIC_INLINE void LL_C2_EXTI_DisableIT_0_31(uint32_t ExtiLine)
 504:Drivers/STM32WBxx_HAL_Driver/Inc/stm32wbxx_ll_exti.h **** {
 134              		.loc 2 504 1
 135              		.cfi_startproc
 136              		@ args = 0, pretend = 0, frame = 8
 137              		@ frame_needed = 1, uses_anonymous_args = 0
 138              		@ link register save eliminated.
 139 0000 80B4     		push	{r7}
 140              	.LCFI12:
 141              		.cfi_def_cfa_offset 4
 142              		.cfi_offset 7, -4
 143 0002 83B0     		sub	sp, sp, #12
 144              	.LCFI13:
 145              		.cfi_def_cfa_offset 16
 146 0004 00AF     		add	r7, sp, #0
 147              	.LCFI14:
 148              		.cfi_def_cfa_register 7
 149 0006 7860     		str	r0, [r7, #4]
 505:Drivers/STM32WBxx_HAL_Driver/Inc/stm32wbxx_ll_exti.h ****   CLEAR_BIT(EXTI->C2IMR1, ExtiLine);
 150              		.loc 2 505 3
 151 0008 074B     		ldr	r3, .L8
 152 000a D3F8C020 		ldr	r2, [r3, #192]
 153 000e 7B68     		ldr	r3, [r7, #4]
 154 0010 DB43     		mvns	r3, r3
 155 0012 0549     		ldr	r1, .L8
 156 0014 1340     		ands	r3, r3, r2
 157 0016 C1F8C030 		str	r3, [r1, #192]
 506:Drivers/STM32WBxx_HAL_Driver/Inc/stm32wbxx_ll_exti.h **** }
 158              		.loc 2 506 1
 159 001a 00BF     		nop
 160 001c 0C37     		adds	r7, r7, #12
 161              	.LCFI15:
 162              		.cfi_def_cfa_offset 4
 163 001e BD46     		mov	sp, r7
 164              	.LCFI16:
 165              		.cfi_def_cfa_register 13
 166              		@ sp needed
 167 0020 5DF8047B 		ldr	r7, [sp], #4
 168              	.LCFI17:
 169              		.cfi_restore 7
 170              		.cfi_def_cfa_offset 0
 171 0024 7047     		bx	lr
 172              	.L9:
 173 0026 00BF     		.align	2
 174              	.L8:
 175 0028 00080058 		.word	1476397056
 176              		.cfi_endproc
 177              	.LFE448:
 179              		.section	.text.LL_EXTI_EnableRisingTrig_0_31,"ax",%progbits
 180              		.align	1
 181              		.syntax unified
 182              		.thumb
 183              		.thumb_func
 185              	LL_EXTI_EnableRisingTrig_0_31:
ARM GAS  C:\Users\alanl\AppData\Local\Temp\ccf1ENHg.s 			page 13


 186              	.LFB467:
 507:Drivers/STM32WBxx_HAL_Driver/Inc/stm32wbxx_ll_exti.h **** 
 508:Drivers/STM32WBxx_HAL_Driver/Inc/stm32wbxx_ll_exti.h **** /**
 509:Drivers/STM32WBxx_HAL_Driver/Inc/stm32wbxx_ll_exti.h ****   * @brief  Disable ExtiLine Interrupt request for Lines in range 32 to 63
 510:Drivers/STM32WBxx_HAL_Driver/Inc/stm32wbxx_ll_exti.h ****   * @rmtoll IMR2         IMx           LL_EXTI_DisableIT_32_63
 511:Drivers/STM32WBxx_HAL_Driver/Inc/stm32wbxx_ll_exti.h ****   * @param  ExtiLine This parameter can be a combination of the following values:
 512:Drivers/STM32WBxx_HAL_Driver/Inc/stm32wbxx_ll_exti.h ****   *         @arg @ref LL_EXTI_LINE_33
 513:Drivers/STM32WBxx_HAL_Driver/Inc/stm32wbxx_ll_exti.h ****   *         @arg @ref LL_EXTI_LINE_36
 514:Drivers/STM32WBxx_HAL_Driver/Inc/stm32wbxx_ll_exti.h ****   *         @arg @ref LL_EXTI_LINE_37
 515:Drivers/STM32WBxx_HAL_Driver/Inc/stm32wbxx_ll_exti.h ****   *         @arg @ref LL_EXTI_LINE_38
 516:Drivers/STM32WBxx_HAL_Driver/Inc/stm32wbxx_ll_exti.h ****   *         @arg @ref LL_EXTI_LINE_39
 517:Drivers/STM32WBxx_HAL_Driver/Inc/stm32wbxx_ll_exti.h ****   *         @arg @ref LL_EXTI_LINE_40
 518:Drivers/STM32WBxx_HAL_Driver/Inc/stm32wbxx_ll_exti.h ****   *         @arg @ref LL_EXTI_LINE_41
 519:Drivers/STM32WBxx_HAL_Driver/Inc/stm32wbxx_ll_exti.h ****   *         @arg @ref LL_EXTI_LINE_42
 520:Drivers/STM32WBxx_HAL_Driver/Inc/stm32wbxx_ll_exti.h ****   *         @arg @ref LL_EXTI_LINE_43 (*)
 521:Drivers/STM32WBxx_HAL_Driver/Inc/stm32wbxx_ll_exti.h ****   *         @arg @ref LL_EXTI_LINE_44
 522:Drivers/STM32WBxx_HAL_Driver/Inc/stm32wbxx_ll_exti.h ****   *         @arg @ref LL_EXTI_LINE_45
 523:Drivers/STM32WBxx_HAL_Driver/Inc/stm32wbxx_ll_exti.h ****   *         @arg @ref LL_EXTI_LINE_46 (*)
 524:Drivers/STM32WBxx_HAL_Driver/Inc/stm32wbxx_ll_exti.h ****   *         @arg @ref LL_EXTI_LINE_48
 525:Drivers/STM32WBxx_HAL_Driver/Inc/stm32wbxx_ll_exti.h ****   *         @arg @ref LL_EXTI_LINE_ALL_32_63
 526:Drivers/STM32WBxx_HAL_Driver/Inc/stm32wbxx_ll_exti.h ****   *         (*) value not defined in all devices
 527:Drivers/STM32WBxx_HAL_Driver/Inc/stm32wbxx_ll_exti.h ****   * @retval None
 528:Drivers/STM32WBxx_HAL_Driver/Inc/stm32wbxx_ll_exti.h ****   */
 529:Drivers/STM32WBxx_HAL_Driver/Inc/stm32wbxx_ll_exti.h **** __STATIC_INLINE void LL_EXTI_DisableIT_32_63(uint32_t ExtiLine)
 530:Drivers/STM32WBxx_HAL_Driver/Inc/stm32wbxx_ll_exti.h **** {
 531:Drivers/STM32WBxx_HAL_Driver/Inc/stm32wbxx_ll_exti.h ****   CLEAR_BIT(EXTI->IMR2, ExtiLine);
 532:Drivers/STM32WBxx_HAL_Driver/Inc/stm32wbxx_ll_exti.h **** }
 533:Drivers/STM32WBxx_HAL_Driver/Inc/stm32wbxx_ll_exti.h **** 
 534:Drivers/STM32WBxx_HAL_Driver/Inc/stm32wbxx_ll_exti.h **** /**
 535:Drivers/STM32WBxx_HAL_Driver/Inc/stm32wbxx_ll_exti.h ****   * @brief  Disable ExtiLine Interrupt request for Lines in range 32 to 63 for cpu2
 536:Drivers/STM32WBxx_HAL_Driver/Inc/stm32wbxx_ll_exti.h ****   * @rmtoll C2IMR2         IMx           LL_C2_EXTI_DisableIT_32_63
 537:Drivers/STM32WBxx_HAL_Driver/Inc/stm32wbxx_ll_exti.h ****   * @param  ExtiLine This parameter can be a combination of the following values:
 538:Drivers/STM32WBxx_HAL_Driver/Inc/stm32wbxx_ll_exti.h ****   *         @arg @ref LL_EXTI_LINE_33
 539:Drivers/STM32WBxx_HAL_Driver/Inc/stm32wbxx_ll_exti.h ****   *         @arg @ref LL_EXTI_LINE_36
 540:Drivers/STM32WBxx_HAL_Driver/Inc/stm32wbxx_ll_exti.h ****   *         @arg @ref LL_EXTI_LINE_37
 541:Drivers/STM32WBxx_HAL_Driver/Inc/stm32wbxx_ll_exti.h ****   *         @arg @ref LL_EXTI_LINE_38
 542:Drivers/STM32WBxx_HAL_Driver/Inc/stm32wbxx_ll_exti.h ****   *         @arg @ref LL_EXTI_LINE_39
 543:Drivers/STM32WBxx_HAL_Driver/Inc/stm32wbxx_ll_exti.h ****   *         @arg @ref LL_EXTI_LINE_40
 544:Drivers/STM32WBxx_HAL_Driver/Inc/stm32wbxx_ll_exti.h ****   *         @arg @ref LL_EXTI_LINE_41
 545:Drivers/STM32WBxx_HAL_Driver/Inc/stm32wbxx_ll_exti.h ****   *         @arg @ref LL_EXTI_LINE_42
 546:Drivers/STM32WBxx_HAL_Driver/Inc/stm32wbxx_ll_exti.h ****   *         @arg @ref LL_EXTI_LINE_43 (*)
 547:Drivers/STM32WBxx_HAL_Driver/Inc/stm32wbxx_ll_exti.h ****   *         @arg @ref LL_EXTI_LINE_44
 548:Drivers/STM32WBxx_HAL_Driver/Inc/stm32wbxx_ll_exti.h ****   *         @arg @ref LL_EXTI_LINE_45
 549:Drivers/STM32WBxx_HAL_Driver/Inc/stm32wbxx_ll_exti.h ****   *         @arg @ref LL_EXTI_LINE_46 (*)
 550:Drivers/STM32WBxx_HAL_Driver/Inc/stm32wbxx_ll_exti.h ****   *         @arg @ref LL_EXTI_LINE_48
 551:Drivers/STM32WBxx_HAL_Driver/Inc/stm32wbxx_ll_exti.h ****   *         @arg @ref LL_EXTI_LINE_ALL_32_63
 552:Drivers/STM32WBxx_HAL_Driver/Inc/stm32wbxx_ll_exti.h ****   *         (*) value not defined in all devices
 553:Drivers/STM32WBxx_HAL_Driver/Inc/stm32wbxx_ll_exti.h ****   * @retval None
 554:Drivers/STM32WBxx_HAL_Driver/Inc/stm32wbxx_ll_exti.h ****   */
 555:Drivers/STM32WBxx_HAL_Driver/Inc/stm32wbxx_ll_exti.h **** __STATIC_INLINE void LL_C2_EXTI_DisableIT_32_63(uint32_t ExtiLine)
 556:Drivers/STM32WBxx_HAL_Driver/Inc/stm32wbxx_ll_exti.h **** {
 557:Drivers/STM32WBxx_HAL_Driver/Inc/stm32wbxx_ll_exti.h ****   CLEAR_BIT(EXTI->C2IMR2, ExtiLine);
 558:Drivers/STM32WBxx_HAL_Driver/Inc/stm32wbxx_ll_exti.h **** }
 559:Drivers/STM32WBxx_HAL_Driver/Inc/stm32wbxx_ll_exti.h **** 
 560:Drivers/STM32WBxx_HAL_Driver/Inc/stm32wbxx_ll_exti.h **** /**
 561:Drivers/STM32WBxx_HAL_Driver/Inc/stm32wbxx_ll_exti.h ****   * @brief  Indicate if ExtiLine Interrupt request is enabled for Lines in range 0 to 31
 562:Drivers/STM32WBxx_HAL_Driver/Inc/stm32wbxx_ll_exti.h ****   * @rmtoll IMR1         IMx           LL_EXTI_IsEnabledIT_0_31
ARM GAS  C:\Users\alanl\AppData\Local\Temp\ccf1ENHg.s 			page 14


 563:Drivers/STM32WBxx_HAL_Driver/Inc/stm32wbxx_ll_exti.h ****   * @param  ExtiLine This parameter can be a combination of the following values:
 564:Drivers/STM32WBxx_HAL_Driver/Inc/stm32wbxx_ll_exti.h ****   *         @arg @ref LL_EXTI_LINE_0
 565:Drivers/STM32WBxx_HAL_Driver/Inc/stm32wbxx_ll_exti.h ****   *         @arg @ref LL_EXTI_LINE_1
 566:Drivers/STM32WBxx_HAL_Driver/Inc/stm32wbxx_ll_exti.h ****   *         @arg @ref LL_EXTI_LINE_2
 567:Drivers/STM32WBxx_HAL_Driver/Inc/stm32wbxx_ll_exti.h ****   *         @arg @ref LL_EXTI_LINE_3
 568:Drivers/STM32WBxx_HAL_Driver/Inc/stm32wbxx_ll_exti.h ****   *         @arg @ref LL_EXTI_LINE_4
 569:Drivers/STM32WBxx_HAL_Driver/Inc/stm32wbxx_ll_exti.h ****   *         @arg @ref LL_EXTI_LINE_5
 570:Drivers/STM32WBxx_HAL_Driver/Inc/stm32wbxx_ll_exti.h ****   *         @arg @ref LL_EXTI_LINE_6
 571:Drivers/STM32WBxx_HAL_Driver/Inc/stm32wbxx_ll_exti.h ****   *         @arg @ref LL_EXTI_LINE_7
 572:Drivers/STM32WBxx_HAL_Driver/Inc/stm32wbxx_ll_exti.h ****   *         @arg @ref LL_EXTI_LINE_8
 573:Drivers/STM32WBxx_HAL_Driver/Inc/stm32wbxx_ll_exti.h ****   *         @arg @ref LL_EXTI_LINE_9
 574:Drivers/STM32WBxx_HAL_Driver/Inc/stm32wbxx_ll_exti.h ****   *         @arg @ref LL_EXTI_LINE_10
 575:Drivers/STM32WBxx_HAL_Driver/Inc/stm32wbxx_ll_exti.h ****   *         @arg @ref LL_EXTI_LINE_11
 576:Drivers/STM32WBxx_HAL_Driver/Inc/stm32wbxx_ll_exti.h ****   *         @arg @ref LL_EXTI_LINE_12
 577:Drivers/STM32WBxx_HAL_Driver/Inc/stm32wbxx_ll_exti.h ****   *         @arg @ref LL_EXTI_LINE_13
 578:Drivers/STM32WBxx_HAL_Driver/Inc/stm32wbxx_ll_exti.h ****   *         @arg @ref LL_EXTI_LINE_14
 579:Drivers/STM32WBxx_HAL_Driver/Inc/stm32wbxx_ll_exti.h ****   *         @arg @ref LL_EXTI_LINE_15
 580:Drivers/STM32WBxx_HAL_Driver/Inc/stm32wbxx_ll_exti.h ****   *         @arg @ref LL_EXTI_LINE_16
 581:Drivers/STM32WBxx_HAL_Driver/Inc/stm32wbxx_ll_exti.h ****   *         @arg @ref LL_EXTI_LINE_17
 582:Drivers/STM32WBxx_HAL_Driver/Inc/stm32wbxx_ll_exti.h ****   *         @arg @ref LL_EXTI_LINE_18
 583:Drivers/STM32WBxx_HAL_Driver/Inc/stm32wbxx_ll_exti.h ****   *         @arg @ref LL_EXTI_LINE_19
 584:Drivers/STM32WBxx_HAL_Driver/Inc/stm32wbxx_ll_exti.h ****   *         @arg @ref LL_EXTI_LINE_20 (*)
 585:Drivers/STM32WBxx_HAL_Driver/Inc/stm32wbxx_ll_exti.h ****   *         @arg @ref LL_EXTI_LINE_21 (*)
 586:Drivers/STM32WBxx_HAL_Driver/Inc/stm32wbxx_ll_exti.h ****   *         @arg @ref LL_EXTI_LINE_22
 587:Drivers/STM32WBxx_HAL_Driver/Inc/stm32wbxx_ll_exti.h ****   *         @arg @ref LL_EXTI_LINE_23 (*)
 588:Drivers/STM32WBxx_HAL_Driver/Inc/stm32wbxx_ll_exti.h ****   *         @arg @ref LL_EXTI_LINE_24
 589:Drivers/STM32WBxx_HAL_Driver/Inc/stm32wbxx_ll_exti.h ****   *         @arg @ref LL_EXTI_LINE_25 (*)
 590:Drivers/STM32WBxx_HAL_Driver/Inc/stm32wbxx_ll_exti.h ****   *         @arg @ref LL_EXTI_LINE_28 (*)
 591:Drivers/STM32WBxx_HAL_Driver/Inc/stm32wbxx_ll_exti.h ****   *         @arg @ref LL_EXTI_LINE_29
 592:Drivers/STM32WBxx_HAL_Driver/Inc/stm32wbxx_ll_exti.h ****   *         @arg @ref LL_EXTI_LINE_30
 593:Drivers/STM32WBxx_HAL_Driver/Inc/stm32wbxx_ll_exti.h ****   *         @arg @ref LL_EXTI_LINE_31 (*)
 594:Drivers/STM32WBxx_HAL_Driver/Inc/stm32wbxx_ll_exti.h ****   *         @arg @ref LL_EXTI_LINE_ALL_0_31
 595:Drivers/STM32WBxx_HAL_Driver/Inc/stm32wbxx_ll_exti.h ****   *         (*) value not defined in all devices
 596:Drivers/STM32WBxx_HAL_Driver/Inc/stm32wbxx_ll_exti.h ****   * @retval State of bit (1 or 0).
 597:Drivers/STM32WBxx_HAL_Driver/Inc/stm32wbxx_ll_exti.h ****   */
 598:Drivers/STM32WBxx_HAL_Driver/Inc/stm32wbxx_ll_exti.h **** __STATIC_INLINE uint32_t LL_EXTI_IsEnabledIT_0_31(uint32_t ExtiLine)
 599:Drivers/STM32WBxx_HAL_Driver/Inc/stm32wbxx_ll_exti.h **** {
 600:Drivers/STM32WBxx_HAL_Driver/Inc/stm32wbxx_ll_exti.h ****   return ((READ_BIT(EXTI->IMR1, ExtiLine) == (ExtiLine)) ? 1UL : 0UL);
 601:Drivers/STM32WBxx_HAL_Driver/Inc/stm32wbxx_ll_exti.h **** }
 602:Drivers/STM32WBxx_HAL_Driver/Inc/stm32wbxx_ll_exti.h **** 
 603:Drivers/STM32WBxx_HAL_Driver/Inc/stm32wbxx_ll_exti.h **** /**
 604:Drivers/STM32WBxx_HAL_Driver/Inc/stm32wbxx_ll_exti.h ****   * @brief  Indicate if ExtiLine Interrupt request is enabled for Lines in range 0 to 31 for cpu2
 605:Drivers/STM32WBxx_HAL_Driver/Inc/stm32wbxx_ll_exti.h ****   * @rmtoll C2IMR1         IMx           LL_C2_EXTI_IsEnabledIT_0_31
 606:Drivers/STM32WBxx_HAL_Driver/Inc/stm32wbxx_ll_exti.h ****   * @param  ExtiLine This parameter can be a combination of the following values:
 607:Drivers/STM32WBxx_HAL_Driver/Inc/stm32wbxx_ll_exti.h ****   *         @arg @ref LL_EXTI_LINE_0
 608:Drivers/STM32WBxx_HAL_Driver/Inc/stm32wbxx_ll_exti.h ****   *         @arg @ref LL_EXTI_LINE_1
 609:Drivers/STM32WBxx_HAL_Driver/Inc/stm32wbxx_ll_exti.h ****   *         @arg @ref LL_EXTI_LINE_2
 610:Drivers/STM32WBxx_HAL_Driver/Inc/stm32wbxx_ll_exti.h ****   *         @arg @ref LL_EXTI_LINE_3
 611:Drivers/STM32WBxx_HAL_Driver/Inc/stm32wbxx_ll_exti.h ****   *         @arg @ref LL_EXTI_LINE_4
 612:Drivers/STM32WBxx_HAL_Driver/Inc/stm32wbxx_ll_exti.h ****   *         @arg @ref LL_EXTI_LINE_5
 613:Drivers/STM32WBxx_HAL_Driver/Inc/stm32wbxx_ll_exti.h ****   *         @arg @ref LL_EXTI_LINE_6
 614:Drivers/STM32WBxx_HAL_Driver/Inc/stm32wbxx_ll_exti.h ****   *         @arg @ref LL_EXTI_LINE_7
 615:Drivers/STM32WBxx_HAL_Driver/Inc/stm32wbxx_ll_exti.h ****   *         @arg @ref LL_EXTI_LINE_8
 616:Drivers/STM32WBxx_HAL_Driver/Inc/stm32wbxx_ll_exti.h ****   *         @arg @ref LL_EXTI_LINE_9
 617:Drivers/STM32WBxx_HAL_Driver/Inc/stm32wbxx_ll_exti.h ****   *         @arg @ref LL_EXTI_LINE_10
 618:Drivers/STM32WBxx_HAL_Driver/Inc/stm32wbxx_ll_exti.h ****   *         @arg @ref LL_EXTI_LINE_11
 619:Drivers/STM32WBxx_HAL_Driver/Inc/stm32wbxx_ll_exti.h ****   *         @arg @ref LL_EXTI_LINE_12
ARM GAS  C:\Users\alanl\AppData\Local\Temp\ccf1ENHg.s 			page 15


 620:Drivers/STM32WBxx_HAL_Driver/Inc/stm32wbxx_ll_exti.h ****   *         @arg @ref LL_EXTI_LINE_13
 621:Drivers/STM32WBxx_HAL_Driver/Inc/stm32wbxx_ll_exti.h ****   *         @arg @ref LL_EXTI_LINE_14
 622:Drivers/STM32WBxx_HAL_Driver/Inc/stm32wbxx_ll_exti.h ****   *         @arg @ref LL_EXTI_LINE_15
 623:Drivers/STM32WBxx_HAL_Driver/Inc/stm32wbxx_ll_exti.h ****   *         @arg @ref LL_EXTI_LINE_16
 624:Drivers/STM32WBxx_HAL_Driver/Inc/stm32wbxx_ll_exti.h ****   *         @arg @ref LL_EXTI_LINE_17
 625:Drivers/STM32WBxx_HAL_Driver/Inc/stm32wbxx_ll_exti.h ****   *         @arg @ref LL_EXTI_LINE_18
 626:Drivers/STM32WBxx_HAL_Driver/Inc/stm32wbxx_ll_exti.h ****   *         @arg @ref LL_EXTI_LINE_19
 627:Drivers/STM32WBxx_HAL_Driver/Inc/stm32wbxx_ll_exti.h ****   *         @arg @ref LL_EXTI_LINE_20 (*)
 628:Drivers/STM32WBxx_HAL_Driver/Inc/stm32wbxx_ll_exti.h ****   *         @arg @ref LL_EXTI_LINE_21 (*)
 629:Drivers/STM32WBxx_HAL_Driver/Inc/stm32wbxx_ll_exti.h ****   *         @arg @ref LL_EXTI_LINE_22
 630:Drivers/STM32WBxx_HAL_Driver/Inc/stm32wbxx_ll_exti.h ****   *         @arg @ref LL_EXTI_LINE_23 (*)
 631:Drivers/STM32WBxx_HAL_Driver/Inc/stm32wbxx_ll_exti.h ****   *         @arg @ref LL_EXTI_LINE_24
 632:Drivers/STM32WBxx_HAL_Driver/Inc/stm32wbxx_ll_exti.h ****   *         @arg @ref LL_EXTI_LINE_25 (*)
 633:Drivers/STM32WBxx_HAL_Driver/Inc/stm32wbxx_ll_exti.h ****   *         @arg @ref LL_EXTI_LINE_28 (*)
 634:Drivers/STM32WBxx_HAL_Driver/Inc/stm32wbxx_ll_exti.h ****   *         @arg @ref LL_EXTI_LINE_29
 635:Drivers/STM32WBxx_HAL_Driver/Inc/stm32wbxx_ll_exti.h ****   *         @arg @ref LL_EXTI_LINE_30
 636:Drivers/STM32WBxx_HAL_Driver/Inc/stm32wbxx_ll_exti.h ****   *         @arg @ref LL_EXTI_LINE_31 (*)
 637:Drivers/STM32WBxx_HAL_Driver/Inc/stm32wbxx_ll_exti.h ****   *         @arg @ref LL_EXTI_LINE_ALL_0_31
 638:Drivers/STM32WBxx_HAL_Driver/Inc/stm32wbxx_ll_exti.h ****   *         (*) value not defined in all devices
 639:Drivers/STM32WBxx_HAL_Driver/Inc/stm32wbxx_ll_exti.h ****   * @retval State of bit (1 or 0).
 640:Drivers/STM32WBxx_HAL_Driver/Inc/stm32wbxx_ll_exti.h ****   */
 641:Drivers/STM32WBxx_HAL_Driver/Inc/stm32wbxx_ll_exti.h **** __STATIC_INLINE uint32_t LL_C2_EXTI_IsEnabledIT_0_31(uint32_t ExtiLine)
 642:Drivers/STM32WBxx_HAL_Driver/Inc/stm32wbxx_ll_exti.h **** {
 643:Drivers/STM32WBxx_HAL_Driver/Inc/stm32wbxx_ll_exti.h ****   return ((READ_BIT(EXTI->C2IMR1, ExtiLine) == (ExtiLine)) ? 1UL : 0UL);
 644:Drivers/STM32WBxx_HAL_Driver/Inc/stm32wbxx_ll_exti.h **** }
 645:Drivers/STM32WBxx_HAL_Driver/Inc/stm32wbxx_ll_exti.h **** 
 646:Drivers/STM32WBxx_HAL_Driver/Inc/stm32wbxx_ll_exti.h **** /**
 647:Drivers/STM32WBxx_HAL_Driver/Inc/stm32wbxx_ll_exti.h ****   * @brief  Indicate if ExtiLine Interrupt request is enabled for Lines in range 32 to 63
 648:Drivers/STM32WBxx_HAL_Driver/Inc/stm32wbxx_ll_exti.h ****   * @rmtoll IMR2         IMx           LL_EXTI_IsEnabledIT_32_63
 649:Drivers/STM32WBxx_HAL_Driver/Inc/stm32wbxx_ll_exti.h ****   * @param  ExtiLine This parameter can be a combination of the following values:
 650:Drivers/STM32WBxx_HAL_Driver/Inc/stm32wbxx_ll_exti.h ****   *         @arg @ref LL_EXTI_LINE_33
 651:Drivers/STM32WBxx_HAL_Driver/Inc/stm32wbxx_ll_exti.h ****   *         @arg @ref LL_EXTI_LINE_36
 652:Drivers/STM32WBxx_HAL_Driver/Inc/stm32wbxx_ll_exti.h ****   *         @arg @ref LL_EXTI_LINE_37
 653:Drivers/STM32WBxx_HAL_Driver/Inc/stm32wbxx_ll_exti.h ****   *         @arg @ref LL_EXTI_LINE_38
 654:Drivers/STM32WBxx_HAL_Driver/Inc/stm32wbxx_ll_exti.h ****   *         @arg @ref LL_EXTI_LINE_39
 655:Drivers/STM32WBxx_HAL_Driver/Inc/stm32wbxx_ll_exti.h ****   *         @arg @ref LL_EXTI_LINE_40
 656:Drivers/STM32WBxx_HAL_Driver/Inc/stm32wbxx_ll_exti.h ****   *         @arg @ref LL_EXTI_LINE_41
 657:Drivers/STM32WBxx_HAL_Driver/Inc/stm32wbxx_ll_exti.h ****   *         @arg @ref LL_EXTI_LINE_42
 658:Drivers/STM32WBxx_HAL_Driver/Inc/stm32wbxx_ll_exti.h ****   *         @arg @ref LL_EXTI_LINE_43 (*)
 659:Drivers/STM32WBxx_HAL_Driver/Inc/stm32wbxx_ll_exti.h ****   *         @arg @ref LL_EXTI_LINE_44
 660:Drivers/STM32WBxx_HAL_Driver/Inc/stm32wbxx_ll_exti.h ****   *         @arg @ref LL_EXTI_LINE_45
 661:Drivers/STM32WBxx_HAL_Driver/Inc/stm32wbxx_ll_exti.h ****   *         @arg @ref LL_EXTI_LINE_46 (*)
 662:Drivers/STM32WBxx_HAL_Driver/Inc/stm32wbxx_ll_exti.h ****   *         @arg @ref LL_EXTI_LINE_48
 663:Drivers/STM32WBxx_HAL_Driver/Inc/stm32wbxx_ll_exti.h ****   *         @arg @ref LL_EXTI_LINE_ALL_32_63
 664:Drivers/STM32WBxx_HAL_Driver/Inc/stm32wbxx_ll_exti.h ****   *         (*) value not defined in all devices
 665:Drivers/STM32WBxx_HAL_Driver/Inc/stm32wbxx_ll_exti.h ****   * @retval State of bit (1 or 0).
 666:Drivers/STM32WBxx_HAL_Driver/Inc/stm32wbxx_ll_exti.h ****   */
 667:Drivers/STM32WBxx_HAL_Driver/Inc/stm32wbxx_ll_exti.h **** __STATIC_INLINE uint32_t LL_EXTI_IsEnabledIT_32_63(uint32_t ExtiLine)
 668:Drivers/STM32WBxx_HAL_Driver/Inc/stm32wbxx_ll_exti.h **** {
 669:Drivers/STM32WBxx_HAL_Driver/Inc/stm32wbxx_ll_exti.h ****   return ((READ_BIT(EXTI->IMR2, ExtiLine) == (ExtiLine)) ? 1UL : 0UL);
 670:Drivers/STM32WBxx_HAL_Driver/Inc/stm32wbxx_ll_exti.h **** }
 671:Drivers/STM32WBxx_HAL_Driver/Inc/stm32wbxx_ll_exti.h **** 
 672:Drivers/STM32WBxx_HAL_Driver/Inc/stm32wbxx_ll_exti.h **** /**
 673:Drivers/STM32WBxx_HAL_Driver/Inc/stm32wbxx_ll_exti.h ****   * @brief  Indicate if ExtiLine Interrupt request is enabled for Lines in range 32 to 63 for cpu2
 674:Drivers/STM32WBxx_HAL_Driver/Inc/stm32wbxx_ll_exti.h ****   * @rmtoll C2IMR2         IMx           LL_C2_EXTI_IsEnabledIT_32_63
 675:Drivers/STM32WBxx_HAL_Driver/Inc/stm32wbxx_ll_exti.h ****   * @param  ExtiLine This parameter can be a combination of the following values:
 676:Drivers/STM32WBxx_HAL_Driver/Inc/stm32wbxx_ll_exti.h ****   *         @arg @ref LL_EXTI_LINE_33
ARM GAS  C:\Users\alanl\AppData\Local\Temp\ccf1ENHg.s 			page 16


 677:Drivers/STM32WBxx_HAL_Driver/Inc/stm32wbxx_ll_exti.h ****   *         @arg @ref LL_EXTI_LINE_36
 678:Drivers/STM32WBxx_HAL_Driver/Inc/stm32wbxx_ll_exti.h ****   *         @arg @ref LL_EXTI_LINE_37
 679:Drivers/STM32WBxx_HAL_Driver/Inc/stm32wbxx_ll_exti.h ****   *         @arg @ref LL_EXTI_LINE_38
 680:Drivers/STM32WBxx_HAL_Driver/Inc/stm32wbxx_ll_exti.h ****   *         @arg @ref LL_EXTI_LINE_39
 681:Drivers/STM32WBxx_HAL_Driver/Inc/stm32wbxx_ll_exti.h ****   *         @arg @ref LL_EXTI_LINE_40
 682:Drivers/STM32WBxx_HAL_Driver/Inc/stm32wbxx_ll_exti.h ****   *         @arg @ref LL_EXTI_LINE_41
 683:Drivers/STM32WBxx_HAL_Driver/Inc/stm32wbxx_ll_exti.h ****   *         @arg @ref LL_EXTI_LINE_42
 684:Drivers/STM32WBxx_HAL_Driver/Inc/stm32wbxx_ll_exti.h ****   *         @arg @ref LL_EXTI_LINE_43 (*)
 685:Drivers/STM32WBxx_HAL_Driver/Inc/stm32wbxx_ll_exti.h ****   *         @arg @ref LL_EXTI_LINE_44
 686:Drivers/STM32WBxx_HAL_Driver/Inc/stm32wbxx_ll_exti.h ****   *         @arg @ref LL_EXTI_LINE_45
 687:Drivers/STM32WBxx_HAL_Driver/Inc/stm32wbxx_ll_exti.h ****   *         @arg @ref LL_EXTI_LINE_46 (*)
 688:Drivers/STM32WBxx_HAL_Driver/Inc/stm32wbxx_ll_exti.h ****   *         @arg @ref LL_EXTI_LINE_48
 689:Drivers/STM32WBxx_HAL_Driver/Inc/stm32wbxx_ll_exti.h ****   *         @arg @ref LL_EXTI_LINE_ALL_32_63
 690:Drivers/STM32WBxx_HAL_Driver/Inc/stm32wbxx_ll_exti.h ****   *         (*) value not defined in all devices
 691:Drivers/STM32WBxx_HAL_Driver/Inc/stm32wbxx_ll_exti.h ****   * @retval State of bit (1 or 0).
 692:Drivers/STM32WBxx_HAL_Driver/Inc/stm32wbxx_ll_exti.h ****   */
 693:Drivers/STM32WBxx_HAL_Driver/Inc/stm32wbxx_ll_exti.h **** __STATIC_INLINE uint32_t LL_C2_EXTI_IsEnabledIT_32_63(uint32_t ExtiLine)
 694:Drivers/STM32WBxx_HAL_Driver/Inc/stm32wbxx_ll_exti.h **** {
 695:Drivers/STM32WBxx_HAL_Driver/Inc/stm32wbxx_ll_exti.h ****   return ((READ_BIT(EXTI->C2IMR2, ExtiLine) == (ExtiLine)) ? 1UL : 0UL);
 696:Drivers/STM32WBxx_HAL_Driver/Inc/stm32wbxx_ll_exti.h **** }
 697:Drivers/STM32WBxx_HAL_Driver/Inc/stm32wbxx_ll_exti.h **** 
 698:Drivers/STM32WBxx_HAL_Driver/Inc/stm32wbxx_ll_exti.h **** /**
 699:Drivers/STM32WBxx_HAL_Driver/Inc/stm32wbxx_ll_exti.h ****   * @}
 700:Drivers/STM32WBxx_HAL_Driver/Inc/stm32wbxx_ll_exti.h ****   */
 701:Drivers/STM32WBxx_HAL_Driver/Inc/stm32wbxx_ll_exti.h **** 
 702:Drivers/STM32WBxx_HAL_Driver/Inc/stm32wbxx_ll_exti.h **** /** @defgroup EXTI_LL_EF_Event_Management Event_Management
 703:Drivers/STM32WBxx_HAL_Driver/Inc/stm32wbxx_ll_exti.h ****   * @{
 704:Drivers/STM32WBxx_HAL_Driver/Inc/stm32wbxx_ll_exti.h ****   */
 705:Drivers/STM32WBxx_HAL_Driver/Inc/stm32wbxx_ll_exti.h **** 
 706:Drivers/STM32WBxx_HAL_Driver/Inc/stm32wbxx_ll_exti.h **** /**
 707:Drivers/STM32WBxx_HAL_Driver/Inc/stm32wbxx_ll_exti.h ****   * @brief  Enable ExtiLine Event request for Lines in range 0 to 31
 708:Drivers/STM32WBxx_HAL_Driver/Inc/stm32wbxx_ll_exti.h ****   * @rmtoll EMR1         EMx           LL_EXTI_EnableEvent_0_31
 709:Drivers/STM32WBxx_HAL_Driver/Inc/stm32wbxx_ll_exti.h ****   * @param  ExtiLine This parameter can be a combination of the following values:
 710:Drivers/STM32WBxx_HAL_Driver/Inc/stm32wbxx_ll_exti.h ****   *         @arg @ref LL_EXTI_LINE_0
 711:Drivers/STM32WBxx_HAL_Driver/Inc/stm32wbxx_ll_exti.h ****   *         @arg @ref LL_EXTI_LINE_1
 712:Drivers/STM32WBxx_HAL_Driver/Inc/stm32wbxx_ll_exti.h ****   *         @arg @ref LL_EXTI_LINE_2
 713:Drivers/STM32WBxx_HAL_Driver/Inc/stm32wbxx_ll_exti.h ****   *         @arg @ref LL_EXTI_LINE_3
 714:Drivers/STM32WBxx_HAL_Driver/Inc/stm32wbxx_ll_exti.h ****   *         @arg @ref LL_EXTI_LINE_4
 715:Drivers/STM32WBxx_HAL_Driver/Inc/stm32wbxx_ll_exti.h ****   *         @arg @ref LL_EXTI_LINE_5
 716:Drivers/STM32WBxx_HAL_Driver/Inc/stm32wbxx_ll_exti.h ****   *         @arg @ref LL_EXTI_LINE_6
 717:Drivers/STM32WBxx_HAL_Driver/Inc/stm32wbxx_ll_exti.h ****   *         @arg @ref LL_EXTI_LINE_7
 718:Drivers/STM32WBxx_HAL_Driver/Inc/stm32wbxx_ll_exti.h ****   *         @arg @ref LL_EXTI_LINE_8
 719:Drivers/STM32WBxx_HAL_Driver/Inc/stm32wbxx_ll_exti.h ****   *         @arg @ref LL_EXTI_LINE_9
 720:Drivers/STM32WBxx_HAL_Driver/Inc/stm32wbxx_ll_exti.h ****   *         @arg @ref LL_EXTI_LINE_10
 721:Drivers/STM32WBxx_HAL_Driver/Inc/stm32wbxx_ll_exti.h ****   *         @arg @ref LL_EXTI_LINE_11
 722:Drivers/STM32WBxx_HAL_Driver/Inc/stm32wbxx_ll_exti.h ****   *         @arg @ref LL_EXTI_LINE_12
 723:Drivers/STM32WBxx_HAL_Driver/Inc/stm32wbxx_ll_exti.h ****   *         @arg @ref LL_EXTI_LINE_13
 724:Drivers/STM32WBxx_HAL_Driver/Inc/stm32wbxx_ll_exti.h ****   *         @arg @ref LL_EXTI_LINE_14
 725:Drivers/STM32WBxx_HAL_Driver/Inc/stm32wbxx_ll_exti.h ****   *         @arg @ref LL_EXTI_LINE_15
 726:Drivers/STM32WBxx_HAL_Driver/Inc/stm32wbxx_ll_exti.h ****   *         @arg @ref LL_EXTI_LINE_17
 727:Drivers/STM32WBxx_HAL_Driver/Inc/stm32wbxx_ll_exti.h ****   *         @arg @ref LL_EXTI_LINE_18
 728:Drivers/STM32WBxx_HAL_Driver/Inc/stm32wbxx_ll_exti.h ****   *         @arg @ref LL_EXTI_LINE_19
 729:Drivers/STM32WBxx_HAL_Driver/Inc/stm32wbxx_ll_exti.h ****   *         @arg @ref LL_EXTI_LINE_20 (*)
 730:Drivers/STM32WBxx_HAL_Driver/Inc/stm32wbxx_ll_exti.h ****   *         @arg @ref LL_EXTI_LINE_21 (*)
 731:Drivers/STM32WBxx_HAL_Driver/Inc/stm32wbxx_ll_exti.h ****   *         (*) value not defined in all devices
 732:Drivers/STM32WBxx_HAL_Driver/Inc/stm32wbxx_ll_exti.h ****   * @retval None
 733:Drivers/STM32WBxx_HAL_Driver/Inc/stm32wbxx_ll_exti.h ****   */
ARM GAS  C:\Users\alanl\AppData\Local\Temp\ccf1ENHg.s 			page 17


 734:Drivers/STM32WBxx_HAL_Driver/Inc/stm32wbxx_ll_exti.h **** __STATIC_INLINE void LL_EXTI_EnableEvent_0_31(uint32_t ExtiLine)
 735:Drivers/STM32WBxx_HAL_Driver/Inc/stm32wbxx_ll_exti.h **** {
 736:Drivers/STM32WBxx_HAL_Driver/Inc/stm32wbxx_ll_exti.h ****   SET_BIT(EXTI->EMR1, ExtiLine);
 737:Drivers/STM32WBxx_HAL_Driver/Inc/stm32wbxx_ll_exti.h **** }
 738:Drivers/STM32WBxx_HAL_Driver/Inc/stm32wbxx_ll_exti.h **** 
 739:Drivers/STM32WBxx_HAL_Driver/Inc/stm32wbxx_ll_exti.h **** /**
 740:Drivers/STM32WBxx_HAL_Driver/Inc/stm32wbxx_ll_exti.h ****   * @brief  Enable ExtiLine Event request for Lines in range 0 to 31 for cpu2
 741:Drivers/STM32WBxx_HAL_Driver/Inc/stm32wbxx_ll_exti.h ****   * @rmtoll C2EMR1         EMx           LL_C2_EXTI_EnableEvent_0_31
 742:Drivers/STM32WBxx_HAL_Driver/Inc/stm32wbxx_ll_exti.h ****   * @param  ExtiLine This parameter can be a combination of the following values:
 743:Drivers/STM32WBxx_HAL_Driver/Inc/stm32wbxx_ll_exti.h ****   *         @arg @ref LL_EXTI_LINE_0
 744:Drivers/STM32WBxx_HAL_Driver/Inc/stm32wbxx_ll_exti.h ****   *         @arg @ref LL_EXTI_LINE_1
 745:Drivers/STM32WBxx_HAL_Driver/Inc/stm32wbxx_ll_exti.h ****   *         @arg @ref LL_EXTI_LINE_2
 746:Drivers/STM32WBxx_HAL_Driver/Inc/stm32wbxx_ll_exti.h ****   *         @arg @ref LL_EXTI_LINE_3
 747:Drivers/STM32WBxx_HAL_Driver/Inc/stm32wbxx_ll_exti.h ****   *         @arg @ref LL_EXTI_LINE_4
 748:Drivers/STM32WBxx_HAL_Driver/Inc/stm32wbxx_ll_exti.h ****   *         @arg @ref LL_EXTI_LINE_5
 749:Drivers/STM32WBxx_HAL_Driver/Inc/stm32wbxx_ll_exti.h ****   *         @arg @ref LL_EXTI_LINE_6
 750:Drivers/STM32WBxx_HAL_Driver/Inc/stm32wbxx_ll_exti.h ****   *         @arg @ref LL_EXTI_LINE_7
 751:Drivers/STM32WBxx_HAL_Driver/Inc/stm32wbxx_ll_exti.h ****   *         @arg @ref LL_EXTI_LINE_8
 752:Drivers/STM32WBxx_HAL_Driver/Inc/stm32wbxx_ll_exti.h ****   *         @arg @ref LL_EXTI_LINE_9
 753:Drivers/STM32WBxx_HAL_Driver/Inc/stm32wbxx_ll_exti.h ****   *         @arg @ref LL_EXTI_LINE_10
 754:Drivers/STM32WBxx_HAL_Driver/Inc/stm32wbxx_ll_exti.h ****   *         @arg @ref LL_EXTI_LINE_11
 755:Drivers/STM32WBxx_HAL_Driver/Inc/stm32wbxx_ll_exti.h ****   *         @arg @ref LL_EXTI_LINE_12
 756:Drivers/STM32WBxx_HAL_Driver/Inc/stm32wbxx_ll_exti.h ****   *         @arg @ref LL_EXTI_LINE_13
 757:Drivers/STM32WBxx_HAL_Driver/Inc/stm32wbxx_ll_exti.h ****   *         @arg @ref LL_EXTI_LINE_14
 758:Drivers/STM32WBxx_HAL_Driver/Inc/stm32wbxx_ll_exti.h ****   *         @arg @ref LL_EXTI_LINE_15
 759:Drivers/STM32WBxx_HAL_Driver/Inc/stm32wbxx_ll_exti.h ****   *         @arg @ref LL_EXTI_LINE_17
 760:Drivers/STM32WBxx_HAL_Driver/Inc/stm32wbxx_ll_exti.h ****   *         @arg @ref LL_EXTI_LINE_18
 761:Drivers/STM32WBxx_HAL_Driver/Inc/stm32wbxx_ll_exti.h ****   *         @arg @ref LL_EXTI_LINE_19
 762:Drivers/STM32WBxx_HAL_Driver/Inc/stm32wbxx_ll_exti.h ****   *         @arg @ref LL_EXTI_LINE_20 (*)
 763:Drivers/STM32WBxx_HAL_Driver/Inc/stm32wbxx_ll_exti.h ****   *         @arg @ref LL_EXTI_LINE_21 (*)
 764:Drivers/STM32WBxx_HAL_Driver/Inc/stm32wbxx_ll_exti.h ****   *         (*) value not defined in all devices
 765:Drivers/STM32WBxx_HAL_Driver/Inc/stm32wbxx_ll_exti.h ****   * @retval None
 766:Drivers/STM32WBxx_HAL_Driver/Inc/stm32wbxx_ll_exti.h ****   */
 767:Drivers/STM32WBxx_HAL_Driver/Inc/stm32wbxx_ll_exti.h **** __STATIC_INLINE void LL_C2_EXTI_EnableEvent_0_31(uint32_t ExtiLine)
 768:Drivers/STM32WBxx_HAL_Driver/Inc/stm32wbxx_ll_exti.h **** {
 769:Drivers/STM32WBxx_HAL_Driver/Inc/stm32wbxx_ll_exti.h ****   SET_BIT(EXTI->C2EMR1, ExtiLine);
 770:Drivers/STM32WBxx_HAL_Driver/Inc/stm32wbxx_ll_exti.h **** }
 771:Drivers/STM32WBxx_HAL_Driver/Inc/stm32wbxx_ll_exti.h **** 
 772:Drivers/STM32WBxx_HAL_Driver/Inc/stm32wbxx_ll_exti.h **** /**
 773:Drivers/STM32WBxx_HAL_Driver/Inc/stm32wbxx_ll_exti.h ****   * @brief  Enable ExtiLine Event request for Lines in range 32 to 63
 774:Drivers/STM32WBxx_HAL_Driver/Inc/stm32wbxx_ll_exti.h ****   * @rmtoll EMR2         EMx           LL_EXTI_EnableEvent_32_63
 775:Drivers/STM32WBxx_HAL_Driver/Inc/stm32wbxx_ll_exti.h ****   * @param  ExtiLine This parameter can be a combination of the following values:
 776:Drivers/STM32WBxx_HAL_Driver/Inc/stm32wbxx_ll_exti.h ****   *         @arg @ref LL_EXTI_LINE_40
 777:Drivers/STM32WBxx_HAL_Driver/Inc/stm32wbxx_ll_exti.h ****   *         @arg @ref LL_EXTI_LINE_41
 778:Drivers/STM32WBxx_HAL_Driver/Inc/stm32wbxx_ll_exti.h ****   * @retval None
 779:Drivers/STM32WBxx_HAL_Driver/Inc/stm32wbxx_ll_exti.h ****   */
 780:Drivers/STM32WBxx_HAL_Driver/Inc/stm32wbxx_ll_exti.h **** __STATIC_INLINE void LL_EXTI_EnableEvent_32_63(uint32_t ExtiLine)
 781:Drivers/STM32WBxx_HAL_Driver/Inc/stm32wbxx_ll_exti.h **** {
 782:Drivers/STM32WBxx_HAL_Driver/Inc/stm32wbxx_ll_exti.h ****   SET_BIT(EXTI->EMR2, ExtiLine);
 783:Drivers/STM32WBxx_HAL_Driver/Inc/stm32wbxx_ll_exti.h **** }
 784:Drivers/STM32WBxx_HAL_Driver/Inc/stm32wbxx_ll_exti.h **** 
 785:Drivers/STM32WBxx_HAL_Driver/Inc/stm32wbxx_ll_exti.h **** /**
 786:Drivers/STM32WBxx_HAL_Driver/Inc/stm32wbxx_ll_exti.h ****   * @brief  Enable ExtiLine Event request for Lines in range 32 to 63 for cpu2
 787:Drivers/STM32WBxx_HAL_Driver/Inc/stm32wbxx_ll_exti.h ****   * @rmtoll C2EMR2         EMx           LL_C2_EXTI_EnableEvent_32_63
 788:Drivers/STM32WBxx_HAL_Driver/Inc/stm32wbxx_ll_exti.h ****   * @param  ExtiLine This parameter can be a combination of the following values:
 789:Drivers/STM32WBxx_HAL_Driver/Inc/stm32wbxx_ll_exti.h ****   *         @arg @ref LL_EXTI_LINE_40
 790:Drivers/STM32WBxx_HAL_Driver/Inc/stm32wbxx_ll_exti.h ****   *         @arg @ref LL_EXTI_LINE_41
ARM GAS  C:\Users\alanl\AppData\Local\Temp\ccf1ENHg.s 			page 18


 791:Drivers/STM32WBxx_HAL_Driver/Inc/stm32wbxx_ll_exti.h ****   * @retval None
 792:Drivers/STM32WBxx_HAL_Driver/Inc/stm32wbxx_ll_exti.h ****   */
 793:Drivers/STM32WBxx_HAL_Driver/Inc/stm32wbxx_ll_exti.h **** __STATIC_INLINE void LL_C2_EXTI_EnableEvent_32_63(uint32_t ExtiLine)
 794:Drivers/STM32WBxx_HAL_Driver/Inc/stm32wbxx_ll_exti.h **** {
 795:Drivers/STM32WBxx_HAL_Driver/Inc/stm32wbxx_ll_exti.h ****   SET_BIT(EXTI->C2EMR2, ExtiLine);
 796:Drivers/STM32WBxx_HAL_Driver/Inc/stm32wbxx_ll_exti.h **** }
 797:Drivers/STM32WBxx_HAL_Driver/Inc/stm32wbxx_ll_exti.h **** 
 798:Drivers/STM32WBxx_HAL_Driver/Inc/stm32wbxx_ll_exti.h **** /**
 799:Drivers/STM32WBxx_HAL_Driver/Inc/stm32wbxx_ll_exti.h ****   * @brief  Disable ExtiLine Event request for Lines in range 0 to 31
 800:Drivers/STM32WBxx_HAL_Driver/Inc/stm32wbxx_ll_exti.h ****   * @rmtoll EMR1         EMx           LL_EXTI_DisableEvent_0_31
 801:Drivers/STM32WBxx_HAL_Driver/Inc/stm32wbxx_ll_exti.h ****   * @param  ExtiLine This parameter can be a combination of the following values:
 802:Drivers/STM32WBxx_HAL_Driver/Inc/stm32wbxx_ll_exti.h ****   *         @arg @ref LL_EXTI_LINE_0
 803:Drivers/STM32WBxx_HAL_Driver/Inc/stm32wbxx_ll_exti.h ****   *         @arg @ref LL_EXTI_LINE_1
 804:Drivers/STM32WBxx_HAL_Driver/Inc/stm32wbxx_ll_exti.h ****   *         @arg @ref LL_EXTI_LINE_2
 805:Drivers/STM32WBxx_HAL_Driver/Inc/stm32wbxx_ll_exti.h ****   *         @arg @ref LL_EXTI_LINE_3
 806:Drivers/STM32WBxx_HAL_Driver/Inc/stm32wbxx_ll_exti.h ****   *         @arg @ref LL_EXTI_LINE_4
 807:Drivers/STM32WBxx_HAL_Driver/Inc/stm32wbxx_ll_exti.h ****   *         @arg @ref LL_EXTI_LINE_5
 808:Drivers/STM32WBxx_HAL_Driver/Inc/stm32wbxx_ll_exti.h ****   *         @arg @ref LL_EXTI_LINE_6
 809:Drivers/STM32WBxx_HAL_Driver/Inc/stm32wbxx_ll_exti.h ****   *         @arg @ref LL_EXTI_LINE_7
 810:Drivers/STM32WBxx_HAL_Driver/Inc/stm32wbxx_ll_exti.h ****   *         @arg @ref LL_EXTI_LINE_8
 811:Drivers/STM32WBxx_HAL_Driver/Inc/stm32wbxx_ll_exti.h ****   *         @arg @ref LL_EXTI_LINE_9
 812:Drivers/STM32WBxx_HAL_Driver/Inc/stm32wbxx_ll_exti.h ****   *         @arg @ref LL_EXTI_LINE_10
 813:Drivers/STM32WBxx_HAL_Driver/Inc/stm32wbxx_ll_exti.h ****   *         @arg @ref LL_EXTI_LINE_11
 814:Drivers/STM32WBxx_HAL_Driver/Inc/stm32wbxx_ll_exti.h ****   *         @arg @ref LL_EXTI_LINE_12
 815:Drivers/STM32WBxx_HAL_Driver/Inc/stm32wbxx_ll_exti.h ****   *         @arg @ref LL_EXTI_LINE_13
 816:Drivers/STM32WBxx_HAL_Driver/Inc/stm32wbxx_ll_exti.h ****   *         @arg @ref LL_EXTI_LINE_14
 817:Drivers/STM32WBxx_HAL_Driver/Inc/stm32wbxx_ll_exti.h ****   *         @arg @ref LL_EXTI_LINE_15
 818:Drivers/STM32WBxx_HAL_Driver/Inc/stm32wbxx_ll_exti.h ****   *         @arg @ref LL_EXTI_LINE_17
 819:Drivers/STM32WBxx_HAL_Driver/Inc/stm32wbxx_ll_exti.h ****   *         @arg @ref LL_EXTI_LINE_18
 820:Drivers/STM32WBxx_HAL_Driver/Inc/stm32wbxx_ll_exti.h ****   *         @arg @ref LL_EXTI_LINE_19
 821:Drivers/STM32WBxx_HAL_Driver/Inc/stm32wbxx_ll_exti.h ****   *         @arg @ref LL_EXTI_LINE_20 (*)
 822:Drivers/STM32WBxx_HAL_Driver/Inc/stm32wbxx_ll_exti.h ****   *         @arg @ref LL_EXTI_LINE_21 (*)
 823:Drivers/STM32WBxx_HAL_Driver/Inc/stm32wbxx_ll_exti.h ****   * @retval None
 824:Drivers/STM32WBxx_HAL_Driver/Inc/stm32wbxx_ll_exti.h ****   */
 825:Drivers/STM32WBxx_HAL_Driver/Inc/stm32wbxx_ll_exti.h **** __STATIC_INLINE void LL_EXTI_DisableEvent_0_31(uint32_t ExtiLine)
 826:Drivers/STM32WBxx_HAL_Driver/Inc/stm32wbxx_ll_exti.h **** {
 827:Drivers/STM32WBxx_HAL_Driver/Inc/stm32wbxx_ll_exti.h ****   CLEAR_BIT(EXTI->EMR1, ExtiLine);
 828:Drivers/STM32WBxx_HAL_Driver/Inc/stm32wbxx_ll_exti.h **** }
 829:Drivers/STM32WBxx_HAL_Driver/Inc/stm32wbxx_ll_exti.h **** 
 830:Drivers/STM32WBxx_HAL_Driver/Inc/stm32wbxx_ll_exti.h **** /**
 831:Drivers/STM32WBxx_HAL_Driver/Inc/stm32wbxx_ll_exti.h ****   * @brief  Disable ExtiLine Event request for Lines in range 0 to 31 for cpu2
 832:Drivers/STM32WBxx_HAL_Driver/Inc/stm32wbxx_ll_exti.h ****   * @rmtoll C2EMR1         EMx           LL_C2_EXTI_DisableEvent_0_31
 833:Drivers/STM32WBxx_HAL_Driver/Inc/stm32wbxx_ll_exti.h ****   * @param  ExtiLine This parameter can be a combination of the following values:
 834:Drivers/STM32WBxx_HAL_Driver/Inc/stm32wbxx_ll_exti.h ****   *         @arg @ref LL_EXTI_LINE_0
 835:Drivers/STM32WBxx_HAL_Driver/Inc/stm32wbxx_ll_exti.h ****   *         @arg @ref LL_EXTI_LINE_1
 836:Drivers/STM32WBxx_HAL_Driver/Inc/stm32wbxx_ll_exti.h ****   *         @arg @ref LL_EXTI_LINE_2
 837:Drivers/STM32WBxx_HAL_Driver/Inc/stm32wbxx_ll_exti.h ****   *         @arg @ref LL_EXTI_LINE_3
 838:Drivers/STM32WBxx_HAL_Driver/Inc/stm32wbxx_ll_exti.h ****   *         @arg @ref LL_EXTI_LINE_4
 839:Drivers/STM32WBxx_HAL_Driver/Inc/stm32wbxx_ll_exti.h ****   *         @arg @ref LL_EXTI_LINE_5
 840:Drivers/STM32WBxx_HAL_Driver/Inc/stm32wbxx_ll_exti.h ****   *         @arg @ref LL_EXTI_LINE_6
 841:Drivers/STM32WBxx_HAL_Driver/Inc/stm32wbxx_ll_exti.h ****   *         @arg @ref LL_EXTI_LINE_7
 842:Drivers/STM32WBxx_HAL_Driver/Inc/stm32wbxx_ll_exti.h ****   *         @arg @ref LL_EXTI_LINE_8
 843:Drivers/STM32WBxx_HAL_Driver/Inc/stm32wbxx_ll_exti.h ****   *         @arg @ref LL_EXTI_LINE_9
 844:Drivers/STM32WBxx_HAL_Driver/Inc/stm32wbxx_ll_exti.h ****   *         @arg @ref LL_EXTI_LINE_10
 845:Drivers/STM32WBxx_HAL_Driver/Inc/stm32wbxx_ll_exti.h ****   *         @arg @ref LL_EXTI_LINE_11
 846:Drivers/STM32WBxx_HAL_Driver/Inc/stm32wbxx_ll_exti.h ****   *         @arg @ref LL_EXTI_LINE_12
 847:Drivers/STM32WBxx_HAL_Driver/Inc/stm32wbxx_ll_exti.h ****   *         @arg @ref LL_EXTI_LINE_13
ARM GAS  C:\Users\alanl\AppData\Local\Temp\ccf1ENHg.s 			page 19


 848:Drivers/STM32WBxx_HAL_Driver/Inc/stm32wbxx_ll_exti.h ****   *         @arg @ref LL_EXTI_LINE_14
 849:Drivers/STM32WBxx_HAL_Driver/Inc/stm32wbxx_ll_exti.h ****   *         @arg @ref LL_EXTI_LINE_15
 850:Drivers/STM32WBxx_HAL_Driver/Inc/stm32wbxx_ll_exti.h ****   *         @arg @ref LL_EXTI_LINE_17
 851:Drivers/STM32WBxx_HAL_Driver/Inc/stm32wbxx_ll_exti.h ****   *         @arg @ref LL_EXTI_LINE_18
 852:Drivers/STM32WBxx_HAL_Driver/Inc/stm32wbxx_ll_exti.h ****   *         @arg @ref LL_EXTI_LINE_19
 853:Drivers/STM32WBxx_HAL_Driver/Inc/stm32wbxx_ll_exti.h ****   *         @arg @ref LL_EXTI_LINE_20 (*)
 854:Drivers/STM32WBxx_HAL_Driver/Inc/stm32wbxx_ll_exti.h ****   *         @arg @ref LL_EXTI_LINE_21 (*)
 855:Drivers/STM32WBxx_HAL_Driver/Inc/stm32wbxx_ll_exti.h ****   *         (*) value not defined in all devices
 856:Drivers/STM32WBxx_HAL_Driver/Inc/stm32wbxx_ll_exti.h ****   * @retval None
 857:Drivers/STM32WBxx_HAL_Driver/Inc/stm32wbxx_ll_exti.h ****   */
 858:Drivers/STM32WBxx_HAL_Driver/Inc/stm32wbxx_ll_exti.h **** __STATIC_INLINE void LL_C2_EXTI_DisableEvent_0_31(uint32_t ExtiLine)
 859:Drivers/STM32WBxx_HAL_Driver/Inc/stm32wbxx_ll_exti.h **** {
 860:Drivers/STM32WBxx_HAL_Driver/Inc/stm32wbxx_ll_exti.h ****   CLEAR_BIT(EXTI->C2EMR1, ExtiLine);
 861:Drivers/STM32WBxx_HAL_Driver/Inc/stm32wbxx_ll_exti.h **** }
 862:Drivers/STM32WBxx_HAL_Driver/Inc/stm32wbxx_ll_exti.h **** 
 863:Drivers/STM32WBxx_HAL_Driver/Inc/stm32wbxx_ll_exti.h **** /**
 864:Drivers/STM32WBxx_HAL_Driver/Inc/stm32wbxx_ll_exti.h ****   * @brief  Disable ExtiLine Event request for Lines in range 32 to 63
 865:Drivers/STM32WBxx_HAL_Driver/Inc/stm32wbxx_ll_exti.h ****   * @rmtoll EMR2         EMx           LL_EXTI_DisableEvent_32_63
 866:Drivers/STM32WBxx_HAL_Driver/Inc/stm32wbxx_ll_exti.h ****   * @param  ExtiLine This parameter can be a combination of the following values:
 867:Drivers/STM32WBxx_HAL_Driver/Inc/stm32wbxx_ll_exti.h ****   *         @arg @ref LL_EXTI_LINE_40
 868:Drivers/STM32WBxx_HAL_Driver/Inc/stm32wbxx_ll_exti.h ****   *         @arg @ref LL_EXTI_LINE_41
 869:Drivers/STM32WBxx_HAL_Driver/Inc/stm32wbxx_ll_exti.h ****   *         (*) value not defined in all devices
 870:Drivers/STM32WBxx_HAL_Driver/Inc/stm32wbxx_ll_exti.h ****   * @retval None
 871:Drivers/STM32WBxx_HAL_Driver/Inc/stm32wbxx_ll_exti.h ****   */
 872:Drivers/STM32WBxx_HAL_Driver/Inc/stm32wbxx_ll_exti.h **** __STATIC_INLINE void LL_EXTI_DisableEvent_32_63(uint32_t ExtiLine)
 873:Drivers/STM32WBxx_HAL_Driver/Inc/stm32wbxx_ll_exti.h **** {
 874:Drivers/STM32WBxx_HAL_Driver/Inc/stm32wbxx_ll_exti.h ****   CLEAR_BIT(EXTI->EMR2, ExtiLine);
 875:Drivers/STM32WBxx_HAL_Driver/Inc/stm32wbxx_ll_exti.h **** }
 876:Drivers/STM32WBxx_HAL_Driver/Inc/stm32wbxx_ll_exti.h **** 
 877:Drivers/STM32WBxx_HAL_Driver/Inc/stm32wbxx_ll_exti.h **** /**
 878:Drivers/STM32WBxx_HAL_Driver/Inc/stm32wbxx_ll_exti.h ****   * @brief  Disable ExtiLine Event request for Lines in range 32 to 63 for cpu2
 879:Drivers/STM32WBxx_HAL_Driver/Inc/stm32wbxx_ll_exti.h ****   * @rmtoll C2EMR2         EMx           LL_C2_EXTI_DisableEvent_32_63
 880:Drivers/STM32WBxx_HAL_Driver/Inc/stm32wbxx_ll_exti.h ****   * @param  ExtiLine This parameter can be a combination of the following values:
 881:Drivers/STM32WBxx_HAL_Driver/Inc/stm32wbxx_ll_exti.h ****   *         @arg @ref LL_EXTI_LINE_40
 882:Drivers/STM32WBxx_HAL_Driver/Inc/stm32wbxx_ll_exti.h ****   *         @arg @ref LL_EXTI_LINE_41
 883:Drivers/STM32WBxx_HAL_Driver/Inc/stm32wbxx_ll_exti.h ****   * @retval None
 884:Drivers/STM32WBxx_HAL_Driver/Inc/stm32wbxx_ll_exti.h ****   */
 885:Drivers/STM32WBxx_HAL_Driver/Inc/stm32wbxx_ll_exti.h **** __STATIC_INLINE void LL_C2_EXTI_DisableEvent_32_63(uint32_t ExtiLine)
 886:Drivers/STM32WBxx_HAL_Driver/Inc/stm32wbxx_ll_exti.h **** {
 887:Drivers/STM32WBxx_HAL_Driver/Inc/stm32wbxx_ll_exti.h ****   CLEAR_BIT(EXTI->C2EMR2, ExtiLine);
 888:Drivers/STM32WBxx_HAL_Driver/Inc/stm32wbxx_ll_exti.h **** }
 889:Drivers/STM32WBxx_HAL_Driver/Inc/stm32wbxx_ll_exti.h **** 
 890:Drivers/STM32WBxx_HAL_Driver/Inc/stm32wbxx_ll_exti.h **** /**
 891:Drivers/STM32WBxx_HAL_Driver/Inc/stm32wbxx_ll_exti.h ****   * @brief  Indicate if ExtiLine Event request is enabled for Lines in range 0 to 31
 892:Drivers/STM32WBxx_HAL_Driver/Inc/stm32wbxx_ll_exti.h ****   * @rmtoll EMR1         EMx           LL_EXTI_IsEnabledEvent_0_31
 893:Drivers/STM32WBxx_HAL_Driver/Inc/stm32wbxx_ll_exti.h ****   * @param  ExtiLine This parameter can be a combination of the following values:
 894:Drivers/STM32WBxx_HAL_Driver/Inc/stm32wbxx_ll_exti.h ****   *         @arg @ref LL_EXTI_LINE_0
 895:Drivers/STM32WBxx_HAL_Driver/Inc/stm32wbxx_ll_exti.h ****   *         @arg @ref LL_EXTI_LINE_1
 896:Drivers/STM32WBxx_HAL_Driver/Inc/stm32wbxx_ll_exti.h ****   *         @arg @ref LL_EXTI_LINE_2
 897:Drivers/STM32WBxx_HAL_Driver/Inc/stm32wbxx_ll_exti.h ****   *         @arg @ref LL_EXTI_LINE_3
 898:Drivers/STM32WBxx_HAL_Driver/Inc/stm32wbxx_ll_exti.h ****   *         @arg @ref LL_EXTI_LINE_4
 899:Drivers/STM32WBxx_HAL_Driver/Inc/stm32wbxx_ll_exti.h ****   *         @arg @ref LL_EXTI_LINE_5
 900:Drivers/STM32WBxx_HAL_Driver/Inc/stm32wbxx_ll_exti.h ****   *         @arg @ref LL_EXTI_LINE_6
 901:Drivers/STM32WBxx_HAL_Driver/Inc/stm32wbxx_ll_exti.h ****   *         @arg @ref LL_EXTI_LINE_7
 902:Drivers/STM32WBxx_HAL_Driver/Inc/stm32wbxx_ll_exti.h ****   *         @arg @ref LL_EXTI_LINE_8
 903:Drivers/STM32WBxx_HAL_Driver/Inc/stm32wbxx_ll_exti.h ****   *         @arg @ref LL_EXTI_LINE_9
 904:Drivers/STM32WBxx_HAL_Driver/Inc/stm32wbxx_ll_exti.h ****   *         @arg @ref LL_EXTI_LINE_10
ARM GAS  C:\Users\alanl\AppData\Local\Temp\ccf1ENHg.s 			page 20


 905:Drivers/STM32WBxx_HAL_Driver/Inc/stm32wbxx_ll_exti.h ****   *         @arg @ref LL_EXTI_LINE_11
 906:Drivers/STM32WBxx_HAL_Driver/Inc/stm32wbxx_ll_exti.h ****   *         @arg @ref LL_EXTI_LINE_12
 907:Drivers/STM32WBxx_HAL_Driver/Inc/stm32wbxx_ll_exti.h ****   *         @arg @ref LL_EXTI_LINE_13
 908:Drivers/STM32WBxx_HAL_Driver/Inc/stm32wbxx_ll_exti.h ****   *         @arg @ref LL_EXTI_LINE_14
 909:Drivers/STM32WBxx_HAL_Driver/Inc/stm32wbxx_ll_exti.h ****   *         @arg @ref LL_EXTI_LINE_15
 910:Drivers/STM32WBxx_HAL_Driver/Inc/stm32wbxx_ll_exti.h ****   *         @arg @ref LL_EXTI_LINE_17
 911:Drivers/STM32WBxx_HAL_Driver/Inc/stm32wbxx_ll_exti.h ****   *         @arg @ref LL_EXTI_LINE_18
 912:Drivers/STM32WBxx_HAL_Driver/Inc/stm32wbxx_ll_exti.h ****   *         @arg @ref LL_EXTI_LINE_19
 913:Drivers/STM32WBxx_HAL_Driver/Inc/stm32wbxx_ll_exti.h ****   *         @arg @ref LL_EXTI_LINE_20 (*)
 914:Drivers/STM32WBxx_HAL_Driver/Inc/stm32wbxx_ll_exti.h ****   *         @arg @ref LL_EXTI_LINE_21 (*)
 915:Drivers/STM32WBxx_HAL_Driver/Inc/stm32wbxx_ll_exti.h ****   *         (*) value not defined in all devices
 916:Drivers/STM32WBxx_HAL_Driver/Inc/stm32wbxx_ll_exti.h ****   * @note   Please check each device line mapping for EXTI Line availability
 917:Drivers/STM32WBxx_HAL_Driver/Inc/stm32wbxx_ll_exti.h ****   * @retval State of bit (1 or 0).
 918:Drivers/STM32WBxx_HAL_Driver/Inc/stm32wbxx_ll_exti.h ****   */
 919:Drivers/STM32WBxx_HAL_Driver/Inc/stm32wbxx_ll_exti.h **** __STATIC_INLINE uint32_t LL_EXTI_IsEnabledEvent_0_31(uint32_t ExtiLine)
 920:Drivers/STM32WBxx_HAL_Driver/Inc/stm32wbxx_ll_exti.h **** {
 921:Drivers/STM32WBxx_HAL_Driver/Inc/stm32wbxx_ll_exti.h ****   return ((READ_BIT(EXTI->EMR1, ExtiLine) == (ExtiLine)) ? 1UL : 0UL);
 922:Drivers/STM32WBxx_HAL_Driver/Inc/stm32wbxx_ll_exti.h **** }
 923:Drivers/STM32WBxx_HAL_Driver/Inc/stm32wbxx_ll_exti.h **** 
 924:Drivers/STM32WBxx_HAL_Driver/Inc/stm32wbxx_ll_exti.h **** /**
 925:Drivers/STM32WBxx_HAL_Driver/Inc/stm32wbxx_ll_exti.h ****   * @brief  Indicate if ExtiLine Event request is enabled for Lines in range 0 to 31 for cpu2
 926:Drivers/STM32WBxx_HAL_Driver/Inc/stm32wbxx_ll_exti.h ****   * @rmtoll C2EMR1         EMx           LL_C2_EXTI_IsEnabledEvent_0_31
 927:Drivers/STM32WBxx_HAL_Driver/Inc/stm32wbxx_ll_exti.h ****   * @param  ExtiLine This parameter can be a combination of the following values:
 928:Drivers/STM32WBxx_HAL_Driver/Inc/stm32wbxx_ll_exti.h ****   *         @arg @ref LL_EXTI_LINE_0
 929:Drivers/STM32WBxx_HAL_Driver/Inc/stm32wbxx_ll_exti.h ****   *         @arg @ref LL_EXTI_LINE_1
 930:Drivers/STM32WBxx_HAL_Driver/Inc/stm32wbxx_ll_exti.h ****   *         @arg @ref LL_EXTI_LINE_2
 931:Drivers/STM32WBxx_HAL_Driver/Inc/stm32wbxx_ll_exti.h ****   *         @arg @ref LL_EXTI_LINE_3
 932:Drivers/STM32WBxx_HAL_Driver/Inc/stm32wbxx_ll_exti.h ****   *         @arg @ref LL_EXTI_LINE_4
 933:Drivers/STM32WBxx_HAL_Driver/Inc/stm32wbxx_ll_exti.h ****   *         @arg @ref LL_EXTI_LINE_5
 934:Drivers/STM32WBxx_HAL_Driver/Inc/stm32wbxx_ll_exti.h ****   *         @arg @ref LL_EXTI_LINE_6
 935:Drivers/STM32WBxx_HAL_Driver/Inc/stm32wbxx_ll_exti.h ****   *         @arg @ref LL_EXTI_LINE_7
 936:Drivers/STM32WBxx_HAL_Driver/Inc/stm32wbxx_ll_exti.h ****   *         @arg @ref LL_EXTI_LINE_8
 937:Drivers/STM32WBxx_HAL_Driver/Inc/stm32wbxx_ll_exti.h ****   *         @arg @ref LL_EXTI_LINE_9
 938:Drivers/STM32WBxx_HAL_Driver/Inc/stm32wbxx_ll_exti.h ****   *         @arg @ref LL_EXTI_LINE_10
 939:Drivers/STM32WBxx_HAL_Driver/Inc/stm32wbxx_ll_exti.h ****   *         @arg @ref LL_EXTI_LINE_11
 940:Drivers/STM32WBxx_HAL_Driver/Inc/stm32wbxx_ll_exti.h ****   *         @arg @ref LL_EXTI_LINE_12
 941:Drivers/STM32WBxx_HAL_Driver/Inc/stm32wbxx_ll_exti.h ****   *         @arg @ref LL_EXTI_LINE_13
 942:Drivers/STM32WBxx_HAL_Driver/Inc/stm32wbxx_ll_exti.h ****   *         @arg @ref LL_EXTI_LINE_14
 943:Drivers/STM32WBxx_HAL_Driver/Inc/stm32wbxx_ll_exti.h ****   *         @arg @ref LL_EXTI_LINE_15
 944:Drivers/STM32WBxx_HAL_Driver/Inc/stm32wbxx_ll_exti.h ****   *         @arg @ref LL_EXTI_LINE_17
 945:Drivers/STM32WBxx_HAL_Driver/Inc/stm32wbxx_ll_exti.h ****   *         @arg @ref LL_EXTI_LINE_18
 946:Drivers/STM32WBxx_HAL_Driver/Inc/stm32wbxx_ll_exti.h ****   *         @arg @ref LL_EXTI_LINE_19
 947:Drivers/STM32WBxx_HAL_Driver/Inc/stm32wbxx_ll_exti.h ****   *         @arg @ref LL_EXTI_LINE_20 (*)
 948:Drivers/STM32WBxx_HAL_Driver/Inc/stm32wbxx_ll_exti.h ****   *         @arg @ref LL_EXTI_LINE_21 (*)
 949:Drivers/STM32WBxx_HAL_Driver/Inc/stm32wbxx_ll_exti.h ****   *         (*) value not defined in all devices
 950:Drivers/STM32WBxx_HAL_Driver/Inc/stm32wbxx_ll_exti.h ****   * @note   Please check each device line mapping for EXTI Line availability
 951:Drivers/STM32WBxx_HAL_Driver/Inc/stm32wbxx_ll_exti.h ****   * @retval State of bit (1 or 0).
 952:Drivers/STM32WBxx_HAL_Driver/Inc/stm32wbxx_ll_exti.h ****   */
 953:Drivers/STM32WBxx_HAL_Driver/Inc/stm32wbxx_ll_exti.h **** __STATIC_INLINE uint32_t LL_C2_EXTI_IsEnabledEvent_0_31(uint32_t ExtiLine)
 954:Drivers/STM32WBxx_HAL_Driver/Inc/stm32wbxx_ll_exti.h **** {
 955:Drivers/STM32WBxx_HAL_Driver/Inc/stm32wbxx_ll_exti.h ****   return ((READ_BIT(EXTI->C2EMR1, ExtiLine) == (ExtiLine)) ? 1UL : 0UL);
 956:Drivers/STM32WBxx_HAL_Driver/Inc/stm32wbxx_ll_exti.h **** }
 957:Drivers/STM32WBxx_HAL_Driver/Inc/stm32wbxx_ll_exti.h **** 
 958:Drivers/STM32WBxx_HAL_Driver/Inc/stm32wbxx_ll_exti.h **** /**
 959:Drivers/STM32WBxx_HAL_Driver/Inc/stm32wbxx_ll_exti.h ****   * @brief  Indicate if ExtiLine Event request is enabled for Lines in range 32 to 63
 960:Drivers/STM32WBxx_HAL_Driver/Inc/stm32wbxx_ll_exti.h ****   * @rmtoll EMR2         EMx           LL_EXTI_IsEnabledEvent_32_63
 961:Drivers/STM32WBxx_HAL_Driver/Inc/stm32wbxx_ll_exti.h ****   * @param  ExtiLine This parameter can be a combination of the following values:
ARM GAS  C:\Users\alanl\AppData\Local\Temp\ccf1ENHg.s 			page 21


 962:Drivers/STM32WBxx_HAL_Driver/Inc/stm32wbxx_ll_exti.h ****   *         @arg @ref LL_EXTI_LINE_40
 963:Drivers/STM32WBxx_HAL_Driver/Inc/stm32wbxx_ll_exti.h ****   *         @arg @ref LL_EXTI_LINE_41
 964:Drivers/STM32WBxx_HAL_Driver/Inc/stm32wbxx_ll_exti.h ****   * @retval State of bit (1 or 0).
 965:Drivers/STM32WBxx_HAL_Driver/Inc/stm32wbxx_ll_exti.h ****   */
 966:Drivers/STM32WBxx_HAL_Driver/Inc/stm32wbxx_ll_exti.h **** __STATIC_INLINE uint32_t LL_EXTI_IsEnabledEvent_32_63(uint32_t ExtiLine)
 967:Drivers/STM32WBxx_HAL_Driver/Inc/stm32wbxx_ll_exti.h **** {
 968:Drivers/STM32WBxx_HAL_Driver/Inc/stm32wbxx_ll_exti.h ****   return ((READ_BIT(EXTI->EMR2, ExtiLine) == (ExtiLine)) ? 1UL : 0UL);
 969:Drivers/STM32WBxx_HAL_Driver/Inc/stm32wbxx_ll_exti.h **** }
 970:Drivers/STM32WBxx_HAL_Driver/Inc/stm32wbxx_ll_exti.h **** 
 971:Drivers/STM32WBxx_HAL_Driver/Inc/stm32wbxx_ll_exti.h **** /**
 972:Drivers/STM32WBxx_HAL_Driver/Inc/stm32wbxx_ll_exti.h ****   * @brief  Indicate if ExtiLine Event request is enabled for Lines in range 32 to 63 for cpu2
 973:Drivers/STM32WBxx_HAL_Driver/Inc/stm32wbxx_ll_exti.h ****   * @rmtoll EMR2         EMx           LL_C2_EXTI_IsEnabledEvent_32_63
 974:Drivers/STM32WBxx_HAL_Driver/Inc/stm32wbxx_ll_exti.h ****   * @param  ExtiLine This parameter can be a combination of the following values:
 975:Drivers/STM32WBxx_HAL_Driver/Inc/stm32wbxx_ll_exti.h ****   *         @arg @ref LL_EXTI_LINE_40
 976:Drivers/STM32WBxx_HAL_Driver/Inc/stm32wbxx_ll_exti.h ****   *         @arg @ref LL_EXTI_LINE_41
 977:Drivers/STM32WBxx_HAL_Driver/Inc/stm32wbxx_ll_exti.h ****   * @retval State of bit (1 or 0).
 978:Drivers/STM32WBxx_HAL_Driver/Inc/stm32wbxx_ll_exti.h ****   */
 979:Drivers/STM32WBxx_HAL_Driver/Inc/stm32wbxx_ll_exti.h **** __STATIC_INLINE uint32_t LL_C2_EXTI_IsEnabledEvent_32_63(uint32_t ExtiLine)
 980:Drivers/STM32WBxx_HAL_Driver/Inc/stm32wbxx_ll_exti.h **** {
 981:Drivers/STM32WBxx_HAL_Driver/Inc/stm32wbxx_ll_exti.h ****   return ((READ_BIT(EXTI->C2EMR2, ExtiLine) == (ExtiLine)) ? 1UL : 0UL);
 982:Drivers/STM32WBxx_HAL_Driver/Inc/stm32wbxx_ll_exti.h **** }
 983:Drivers/STM32WBxx_HAL_Driver/Inc/stm32wbxx_ll_exti.h **** 
 984:Drivers/STM32WBxx_HAL_Driver/Inc/stm32wbxx_ll_exti.h **** /**
 985:Drivers/STM32WBxx_HAL_Driver/Inc/stm32wbxx_ll_exti.h ****   * @}
 986:Drivers/STM32WBxx_HAL_Driver/Inc/stm32wbxx_ll_exti.h ****   */
 987:Drivers/STM32WBxx_HAL_Driver/Inc/stm32wbxx_ll_exti.h **** 
 988:Drivers/STM32WBxx_HAL_Driver/Inc/stm32wbxx_ll_exti.h **** /** @defgroup EXTI_LL_EF_Rising_Trigger_Management Rising_Trigger_Management
 989:Drivers/STM32WBxx_HAL_Driver/Inc/stm32wbxx_ll_exti.h ****   * @{
 990:Drivers/STM32WBxx_HAL_Driver/Inc/stm32wbxx_ll_exti.h ****   */
 991:Drivers/STM32WBxx_HAL_Driver/Inc/stm32wbxx_ll_exti.h **** 
 992:Drivers/STM32WBxx_HAL_Driver/Inc/stm32wbxx_ll_exti.h **** /**
 993:Drivers/STM32WBxx_HAL_Driver/Inc/stm32wbxx_ll_exti.h ****   * @brief  Enable ExtiLine Rising Edge Trigger for Lines in range 0 to 31
 994:Drivers/STM32WBxx_HAL_Driver/Inc/stm32wbxx_ll_exti.h ****   * @note The configurable wakeup lines are edge-triggered. No glitch must be
 995:Drivers/STM32WBxx_HAL_Driver/Inc/stm32wbxx_ll_exti.h ****   *       generated on these lines. If a rising edge on a configurable interrupt
 996:Drivers/STM32WBxx_HAL_Driver/Inc/stm32wbxx_ll_exti.h ****   *       line occurs during a write operation in the EXTI_RTSR register, the
 997:Drivers/STM32WBxx_HAL_Driver/Inc/stm32wbxx_ll_exti.h ****   *       pending bit is not set.
 998:Drivers/STM32WBxx_HAL_Driver/Inc/stm32wbxx_ll_exti.h ****   *       Rising and falling edge triggers can be set for
 999:Drivers/STM32WBxx_HAL_Driver/Inc/stm32wbxx_ll_exti.h ****   *       the same interrupt line. In this case, both generate a trigger
1000:Drivers/STM32WBxx_HAL_Driver/Inc/stm32wbxx_ll_exti.h ****   *       condition.
1001:Drivers/STM32WBxx_HAL_Driver/Inc/stm32wbxx_ll_exti.h ****   * @rmtoll RTSR1        RTx           LL_EXTI_EnableRisingTrig_0_31
1002:Drivers/STM32WBxx_HAL_Driver/Inc/stm32wbxx_ll_exti.h ****   * @param  ExtiLine This parameter can be a combination of the following values:
1003:Drivers/STM32WBxx_HAL_Driver/Inc/stm32wbxx_ll_exti.h ****   *         @arg @ref LL_EXTI_LINE_0
1004:Drivers/STM32WBxx_HAL_Driver/Inc/stm32wbxx_ll_exti.h ****   *         @arg @ref LL_EXTI_LINE_1
1005:Drivers/STM32WBxx_HAL_Driver/Inc/stm32wbxx_ll_exti.h ****   *         @arg @ref LL_EXTI_LINE_2
1006:Drivers/STM32WBxx_HAL_Driver/Inc/stm32wbxx_ll_exti.h ****   *         @arg @ref LL_EXTI_LINE_3
1007:Drivers/STM32WBxx_HAL_Driver/Inc/stm32wbxx_ll_exti.h ****   *         @arg @ref LL_EXTI_LINE_4
1008:Drivers/STM32WBxx_HAL_Driver/Inc/stm32wbxx_ll_exti.h ****   *         @arg @ref LL_EXTI_LINE_5
1009:Drivers/STM32WBxx_HAL_Driver/Inc/stm32wbxx_ll_exti.h ****   *         @arg @ref LL_EXTI_LINE_6
1010:Drivers/STM32WBxx_HAL_Driver/Inc/stm32wbxx_ll_exti.h ****   *         @arg @ref LL_EXTI_LINE_7
1011:Drivers/STM32WBxx_HAL_Driver/Inc/stm32wbxx_ll_exti.h ****   *         @arg @ref LL_EXTI_LINE_8
1012:Drivers/STM32WBxx_HAL_Driver/Inc/stm32wbxx_ll_exti.h ****   *         @arg @ref LL_EXTI_LINE_9
1013:Drivers/STM32WBxx_HAL_Driver/Inc/stm32wbxx_ll_exti.h ****   *         @arg @ref LL_EXTI_LINE_10
1014:Drivers/STM32WBxx_HAL_Driver/Inc/stm32wbxx_ll_exti.h ****   *         @arg @ref LL_EXTI_LINE_11
1015:Drivers/STM32WBxx_HAL_Driver/Inc/stm32wbxx_ll_exti.h ****   *         @arg @ref LL_EXTI_LINE_12
1016:Drivers/STM32WBxx_HAL_Driver/Inc/stm32wbxx_ll_exti.h ****   *         @arg @ref LL_EXTI_LINE_13
1017:Drivers/STM32WBxx_HAL_Driver/Inc/stm32wbxx_ll_exti.h ****   *         @arg @ref LL_EXTI_LINE_14
1018:Drivers/STM32WBxx_HAL_Driver/Inc/stm32wbxx_ll_exti.h ****   *         @arg @ref LL_EXTI_LINE_15
ARM GAS  C:\Users\alanl\AppData\Local\Temp\ccf1ENHg.s 			page 22


1019:Drivers/STM32WBxx_HAL_Driver/Inc/stm32wbxx_ll_exti.h ****   *         @arg @ref LL_EXTI_LINE_16
1020:Drivers/STM32WBxx_HAL_Driver/Inc/stm32wbxx_ll_exti.h ****   *         @arg @ref LL_EXTI_LINE_17
1021:Drivers/STM32WBxx_HAL_Driver/Inc/stm32wbxx_ll_exti.h ****   *         @arg @ref LL_EXTI_LINE_18
1022:Drivers/STM32WBxx_HAL_Driver/Inc/stm32wbxx_ll_exti.h ****   *         @arg @ref LL_EXTI_LINE_19
1023:Drivers/STM32WBxx_HAL_Driver/Inc/stm32wbxx_ll_exti.h ****   *         @arg @ref LL_EXTI_LINE_20 (*)
1024:Drivers/STM32WBxx_HAL_Driver/Inc/stm32wbxx_ll_exti.h ****   *         @arg @ref LL_EXTI_LINE_21 (*)
1025:Drivers/STM32WBxx_HAL_Driver/Inc/stm32wbxx_ll_exti.h ****   *         @arg @ref LL_EXTI_LINE_31 (*)
1026:Drivers/STM32WBxx_HAL_Driver/Inc/stm32wbxx_ll_exti.h ****   *         (*) value not defined in all devices
1027:Drivers/STM32WBxx_HAL_Driver/Inc/stm32wbxx_ll_exti.h ****   * @retval None
1028:Drivers/STM32WBxx_HAL_Driver/Inc/stm32wbxx_ll_exti.h ****   */
1029:Drivers/STM32WBxx_HAL_Driver/Inc/stm32wbxx_ll_exti.h **** __STATIC_INLINE void LL_EXTI_EnableRisingTrig_0_31(uint32_t ExtiLine)
1030:Drivers/STM32WBxx_HAL_Driver/Inc/stm32wbxx_ll_exti.h **** {
 187              		.loc 2 1030 1
 188              		.cfi_startproc
 189              		@ args = 0, pretend = 0, frame = 8
 190              		@ frame_needed = 1, uses_anonymous_args = 0
 191              		@ link register save eliminated.
 192 0000 80B4     		push	{r7}
 193              	.LCFI18:
 194              		.cfi_def_cfa_offset 4
 195              		.cfi_offset 7, -4
 196 0002 83B0     		sub	sp, sp, #12
 197              	.LCFI19:
 198              		.cfi_def_cfa_offset 16
 199 0004 00AF     		add	r7, sp, #0
 200              	.LCFI20:
 201              		.cfi_def_cfa_register 7
 202 0006 7860     		str	r0, [r7, #4]
1031:Drivers/STM32WBxx_HAL_Driver/Inc/stm32wbxx_ll_exti.h ****   SET_BIT(EXTI->RTSR1, ExtiLine);
 203              		.loc 2 1031 3
 204 0008 054B     		ldr	r3, .L11
 205 000a 1A68     		ldr	r2, [r3]
 206 000c 0449     		ldr	r1, .L11
 207 000e 7B68     		ldr	r3, [r7, #4]
 208 0010 1343     		orrs	r3, r3, r2
 209 0012 0B60     		str	r3, [r1]
1032:Drivers/STM32WBxx_HAL_Driver/Inc/stm32wbxx_ll_exti.h **** 
1033:Drivers/STM32WBxx_HAL_Driver/Inc/stm32wbxx_ll_exti.h **** }
 210              		.loc 2 1033 1
 211 0014 00BF     		nop
 212 0016 0C37     		adds	r7, r7, #12
 213              	.LCFI21:
 214              		.cfi_def_cfa_offset 4
 215 0018 BD46     		mov	sp, r7
 216              	.LCFI22:
 217              		.cfi_def_cfa_register 13
 218              		@ sp needed
 219 001a 5DF8047B 		ldr	r7, [sp], #4
 220              	.LCFI23:
 221              		.cfi_restore 7
 222              		.cfi_def_cfa_offset 0
 223 001e 7047     		bx	lr
 224              	.L12:
 225              		.align	2
 226              	.L11:
 227 0020 00080058 		.word	1476397056
 228              		.cfi_endproc
ARM GAS  C:\Users\alanl\AppData\Local\Temp\ccf1ENHg.s 			page 23


 229              	.LFE467:
 231              		.section	.text.LL_EXTI_DisableRisingTrig_0_31,"ax",%progbits
 232              		.align	1
 233              		.syntax unified
 234              		.thumb
 235              		.thumb_func
 237              	LL_EXTI_DisableRisingTrig_0_31:
 238              	.LFB469:
1034:Drivers/STM32WBxx_HAL_Driver/Inc/stm32wbxx_ll_exti.h **** 
1035:Drivers/STM32WBxx_HAL_Driver/Inc/stm32wbxx_ll_exti.h **** /**
1036:Drivers/STM32WBxx_HAL_Driver/Inc/stm32wbxx_ll_exti.h ****   * @brief  Enable ExtiLine Rising Edge Trigger for Lines in range 32 to 63
1037:Drivers/STM32WBxx_HAL_Driver/Inc/stm32wbxx_ll_exti.h ****   * @note The configurable wakeup lines are edge-triggered. No glitch must be
1038:Drivers/STM32WBxx_HAL_Driver/Inc/stm32wbxx_ll_exti.h ****   *       generated on these lines. If a rising edge on a configurable interrupt
1039:Drivers/STM32WBxx_HAL_Driver/Inc/stm32wbxx_ll_exti.h ****   *       line occurs during a write operation in the EXTI_RTSR register, the
1040:Drivers/STM32WBxx_HAL_Driver/Inc/stm32wbxx_ll_exti.h ****   *       pending bit is not set.Rising and falling edge triggers can be set for
1041:Drivers/STM32WBxx_HAL_Driver/Inc/stm32wbxx_ll_exti.h ****   *       the same interrupt line. In this case, both generate a trigger
1042:Drivers/STM32WBxx_HAL_Driver/Inc/stm32wbxx_ll_exti.h ****   *       condition.
1043:Drivers/STM32WBxx_HAL_Driver/Inc/stm32wbxx_ll_exti.h ****   * @rmtoll RTSR2        RTx           LL_EXTI_EnableRisingTrig_32_63
1044:Drivers/STM32WBxx_HAL_Driver/Inc/stm32wbxx_ll_exti.h ****   * @param  ExtiLine This parameter can be a combination of the following values:
1045:Drivers/STM32WBxx_HAL_Driver/Inc/stm32wbxx_ll_exti.h ****   *         @arg @ref LL_EXTI_LINE_33 (*)
1046:Drivers/STM32WBxx_HAL_Driver/Inc/stm32wbxx_ll_exti.h ****   *         @arg @ref LL_EXTI_LINE_40
1047:Drivers/STM32WBxx_HAL_Driver/Inc/stm32wbxx_ll_exti.h ****   *         @arg @ref LL_EXTI_LINE_41
1048:Drivers/STM32WBxx_HAL_Driver/Inc/stm32wbxx_ll_exti.h ****   *         (*) value not defined in all devices
1049:Drivers/STM32WBxx_HAL_Driver/Inc/stm32wbxx_ll_exti.h ****   * @retval None
1050:Drivers/STM32WBxx_HAL_Driver/Inc/stm32wbxx_ll_exti.h ****   */
1051:Drivers/STM32WBxx_HAL_Driver/Inc/stm32wbxx_ll_exti.h **** __STATIC_INLINE void LL_EXTI_EnableRisingTrig_32_63(uint32_t ExtiLine)
1052:Drivers/STM32WBxx_HAL_Driver/Inc/stm32wbxx_ll_exti.h **** {
1053:Drivers/STM32WBxx_HAL_Driver/Inc/stm32wbxx_ll_exti.h ****   SET_BIT(EXTI->RTSR2, ExtiLine);
1054:Drivers/STM32WBxx_HAL_Driver/Inc/stm32wbxx_ll_exti.h **** }
1055:Drivers/STM32WBxx_HAL_Driver/Inc/stm32wbxx_ll_exti.h **** 
1056:Drivers/STM32WBxx_HAL_Driver/Inc/stm32wbxx_ll_exti.h **** /**
1057:Drivers/STM32WBxx_HAL_Driver/Inc/stm32wbxx_ll_exti.h ****   * @brief  Disable ExtiLine Rising Edge Trigger for Lines in range 0 to 31
1058:Drivers/STM32WBxx_HAL_Driver/Inc/stm32wbxx_ll_exti.h ****   * @note The configurable wakeup lines are edge-triggered. No glitch must be
1059:Drivers/STM32WBxx_HAL_Driver/Inc/stm32wbxx_ll_exti.h ****   *       generated on these lines. If a rising edge on a configurable interrupt
1060:Drivers/STM32WBxx_HAL_Driver/Inc/stm32wbxx_ll_exti.h ****   *       line occurs during a write operation in the EXTI_RTSR register, the
1061:Drivers/STM32WBxx_HAL_Driver/Inc/stm32wbxx_ll_exti.h ****   *       pending bit is not set.
1062:Drivers/STM32WBxx_HAL_Driver/Inc/stm32wbxx_ll_exti.h ****   *       Rising and falling edge triggers can be set for
1063:Drivers/STM32WBxx_HAL_Driver/Inc/stm32wbxx_ll_exti.h ****   *       the same interrupt line. In this case, both generate a trigger
1064:Drivers/STM32WBxx_HAL_Driver/Inc/stm32wbxx_ll_exti.h ****   *       condition.
1065:Drivers/STM32WBxx_HAL_Driver/Inc/stm32wbxx_ll_exti.h ****   * @rmtoll RTSR1        RTx           LL_EXTI_DisableRisingTrig_0_31
1066:Drivers/STM32WBxx_HAL_Driver/Inc/stm32wbxx_ll_exti.h ****   * @param  ExtiLine This parameter can be a combination of the following values:
1067:Drivers/STM32WBxx_HAL_Driver/Inc/stm32wbxx_ll_exti.h ****   *         @arg @ref LL_EXTI_LINE_0
1068:Drivers/STM32WBxx_HAL_Driver/Inc/stm32wbxx_ll_exti.h ****   *         @arg @ref LL_EXTI_LINE_1
1069:Drivers/STM32WBxx_HAL_Driver/Inc/stm32wbxx_ll_exti.h ****   *         @arg @ref LL_EXTI_LINE_2
1070:Drivers/STM32WBxx_HAL_Driver/Inc/stm32wbxx_ll_exti.h ****   *         @arg @ref LL_EXTI_LINE_3
1071:Drivers/STM32WBxx_HAL_Driver/Inc/stm32wbxx_ll_exti.h ****   *         @arg @ref LL_EXTI_LINE_4
1072:Drivers/STM32WBxx_HAL_Driver/Inc/stm32wbxx_ll_exti.h ****   *         @arg @ref LL_EXTI_LINE_5
1073:Drivers/STM32WBxx_HAL_Driver/Inc/stm32wbxx_ll_exti.h ****   *         @arg @ref LL_EXTI_LINE_6
1074:Drivers/STM32WBxx_HAL_Driver/Inc/stm32wbxx_ll_exti.h ****   *         @arg @ref LL_EXTI_LINE_7
1075:Drivers/STM32WBxx_HAL_Driver/Inc/stm32wbxx_ll_exti.h ****   *         @arg @ref LL_EXTI_LINE_8
1076:Drivers/STM32WBxx_HAL_Driver/Inc/stm32wbxx_ll_exti.h ****   *         @arg @ref LL_EXTI_LINE_9
1077:Drivers/STM32WBxx_HAL_Driver/Inc/stm32wbxx_ll_exti.h ****   *         @arg @ref LL_EXTI_LINE_10
1078:Drivers/STM32WBxx_HAL_Driver/Inc/stm32wbxx_ll_exti.h ****   *         @arg @ref LL_EXTI_LINE_11
1079:Drivers/STM32WBxx_HAL_Driver/Inc/stm32wbxx_ll_exti.h ****   *         @arg @ref LL_EXTI_LINE_12
1080:Drivers/STM32WBxx_HAL_Driver/Inc/stm32wbxx_ll_exti.h ****   *         @arg @ref LL_EXTI_LINE_13
1081:Drivers/STM32WBxx_HAL_Driver/Inc/stm32wbxx_ll_exti.h ****   *         @arg @ref LL_EXTI_LINE_14
1082:Drivers/STM32WBxx_HAL_Driver/Inc/stm32wbxx_ll_exti.h ****   *         @arg @ref LL_EXTI_LINE_15
ARM GAS  C:\Users\alanl\AppData\Local\Temp\ccf1ENHg.s 			page 24


1083:Drivers/STM32WBxx_HAL_Driver/Inc/stm32wbxx_ll_exti.h ****   *         @arg @ref LL_EXTI_LINE_16
1084:Drivers/STM32WBxx_HAL_Driver/Inc/stm32wbxx_ll_exti.h ****   *         @arg @ref LL_EXTI_LINE_17
1085:Drivers/STM32WBxx_HAL_Driver/Inc/stm32wbxx_ll_exti.h ****   *         @arg @ref LL_EXTI_LINE_18
1086:Drivers/STM32WBxx_HAL_Driver/Inc/stm32wbxx_ll_exti.h ****   *         @arg @ref LL_EXTI_LINE_19
1087:Drivers/STM32WBxx_HAL_Driver/Inc/stm32wbxx_ll_exti.h ****   *         @arg @ref LL_EXTI_LINE_20 (*)
1088:Drivers/STM32WBxx_HAL_Driver/Inc/stm32wbxx_ll_exti.h ****   *         @arg @ref LL_EXTI_LINE_21 (*)
1089:Drivers/STM32WBxx_HAL_Driver/Inc/stm32wbxx_ll_exti.h ****   *         @arg @ref LL_EXTI_LINE_31 (*)
1090:Drivers/STM32WBxx_HAL_Driver/Inc/stm32wbxx_ll_exti.h ****   *         (*) value not defined in all devices
1091:Drivers/STM32WBxx_HAL_Driver/Inc/stm32wbxx_ll_exti.h ****   * @retval None
1092:Drivers/STM32WBxx_HAL_Driver/Inc/stm32wbxx_ll_exti.h ****   */
1093:Drivers/STM32WBxx_HAL_Driver/Inc/stm32wbxx_ll_exti.h **** __STATIC_INLINE void LL_EXTI_DisableRisingTrig_0_31(uint32_t ExtiLine)
1094:Drivers/STM32WBxx_HAL_Driver/Inc/stm32wbxx_ll_exti.h **** {
 239              		.loc 2 1094 1
 240              		.cfi_startproc
 241              		@ args = 0, pretend = 0, frame = 8
 242              		@ frame_needed = 1, uses_anonymous_args = 0
 243              		@ link register save eliminated.
 244 0000 80B4     		push	{r7}
 245              	.LCFI24:
 246              		.cfi_def_cfa_offset 4
 247              		.cfi_offset 7, -4
 248 0002 83B0     		sub	sp, sp, #12
 249              	.LCFI25:
 250              		.cfi_def_cfa_offset 16
 251 0004 00AF     		add	r7, sp, #0
 252              	.LCFI26:
 253              		.cfi_def_cfa_register 7
 254 0006 7860     		str	r0, [r7, #4]
1095:Drivers/STM32WBxx_HAL_Driver/Inc/stm32wbxx_ll_exti.h ****   CLEAR_BIT(EXTI->RTSR1, ExtiLine);
 255              		.loc 2 1095 3
 256 0008 064B     		ldr	r3, .L14
 257 000a 1A68     		ldr	r2, [r3]
 258 000c 7B68     		ldr	r3, [r7, #4]
 259 000e DB43     		mvns	r3, r3
 260 0010 0449     		ldr	r1, .L14
 261 0012 1340     		ands	r3, r3, r2
 262 0014 0B60     		str	r3, [r1]
1096:Drivers/STM32WBxx_HAL_Driver/Inc/stm32wbxx_ll_exti.h **** 
1097:Drivers/STM32WBxx_HAL_Driver/Inc/stm32wbxx_ll_exti.h **** }
 263              		.loc 2 1097 1
 264 0016 00BF     		nop
 265 0018 0C37     		adds	r7, r7, #12
 266              	.LCFI27:
 267              		.cfi_def_cfa_offset 4
 268 001a BD46     		mov	sp, r7
 269              	.LCFI28:
 270              		.cfi_def_cfa_register 13
 271              		@ sp needed
 272 001c 5DF8047B 		ldr	r7, [sp], #4
 273              	.LCFI29:
 274              		.cfi_restore 7
 275              		.cfi_def_cfa_offset 0
 276 0020 7047     		bx	lr
 277              	.L15:
 278 0022 00BF     		.align	2
 279              	.L14:
 280 0024 00080058 		.word	1476397056
ARM GAS  C:\Users\alanl\AppData\Local\Temp\ccf1ENHg.s 			page 25


 281              		.cfi_endproc
 282              	.LFE469:
 284              		.section	.text.LL_EXTI_EnableFallingTrig_0_31,"ax",%progbits
 285              		.align	1
 286              		.syntax unified
 287              		.thumb
 288              		.thumb_func
 290              	LL_EXTI_EnableFallingTrig_0_31:
 291              	.LFB473:
1098:Drivers/STM32WBxx_HAL_Driver/Inc/stm32wbxx_ll_exti.h **** 
1099:Drivers/STM32WBxx_HAL_Driver/Inc/stm32wbxx_ll_exti.h **** /**
1100:Drivers/STM32WBxx_HAL_Driver/Inc/stm32wbxx_ll_exti.h ****   * @brief  Disable ExtiLine Rising Edge Trigger for Lines in range 32 to 63
1101:Drivers/STM32WBxx_HAL_Driver/Inc/stm32wbxx_ll_exti.h ****   * @note The configurable wakeup lines are edge-triggered. No glitch must be
1102:Drivers/STM32WBxx_HAL_Driver/Inc/stm32wbxx_ll_exti.h ****   *       generated on these lines. If a rising edge on a configurable interrupt
1103:Drivers/STM32WBxx_HAL_Driver/Inc/stm32wbxx_ll_exti.h ****   *       line occurs during a write operation in the EXTI_RTSR register, the
1104:Drivers/STM32WBxx_HAL_Driver/Inc/stm32wbxx_ll_exti.h ****   *       pending bit is not set.
1105:Drivers/STM32WBxx_HAL_Driver/Inc/stm32wbxx_ll_exti.h ****   *       Rising and falling edge triggers can be set for
1106:Drivers/STM32WBxx_HAL_Driver/Inc/stm32wbxx_ll_exti.h ****   *       the same interrupt line. In this case, both generate a trigger
1107:Drivers/STM32WBxx_HAL_Driver/Inc/stm32wbxx_ll_exti.h ****   *       condition.
1108:Drivers/STM32WBxx_HAL_Driver/Inc/stm32wbxx_ll_exti.h ****   * @rmtoll RTSR2        RTx           LL_EXTI_DisableRisingTrig_32_63
1109:Drivers/STM32WBxx_HAL_Driver/Inc/stm32wbxx_ll_exti.h ****   * @param  ExtiLine This parameter can be a combination of the following values:
1110:Drivers/STM32WBxx_HAL_Driver/Inc/stm32wbxx_ll_exti.h ****   *         @arg @ref LL_EXTI_LINE_33 (*)
1111:Drivers/STM32WBxx_HAL_Driver/Inc/stm32wbxx_ll_exti.h ****   *         @arg @ref LL_EXTI_LINE_40
1112:Drivers/STM32WBxx_HAL_Driver/Inc/stm32wbxx_ll_exti.h ****   *         @arg @ref LL_EXTI_LINE_41
1113:Drivers/STM32WBxx_HAL_Driver/Inc/stm32wbxx_ll_exti.h ****   *         (*) value not defined in all devices
1114:Drivers/STM32WBxx_HAL_Driver/Inc/stm32wbxx_ll_exti.h ****   * @retval None
1115:Drivers/STM32WBxx_HAL_Driver/Inc/stm32wbxx_ll_exti.h ****   */
1116:Drivers/STM32WBxx_HAL_Driver/Inc/stm32wbxx_ll_exti.h **** __STATIC_INLINE void LL_EXTI_DisableRisingTrig_32_63(uint32_t ExtiLine)
1117:Drivers/STM32WBxx_HAL_Driver/Inc/stm32wbxx_ll_exti.h **** {
1118:Drivers/STM32WBxx_HAL_Driver/Inc/stm32wbxx_ll_exti.h ****   CLEAR_BIT(EXTI->RTSR2, ExtiLine);
1119:Drivers/STM32WBxx_HAL_Driver/Inc/stm32wbxx_ll_exti.h **** }
1120:Drivers/STM32WBxx_HAL_Driver/Inc/stm32wbxx_ll_exti.h **** 
1121:Drivers/STM32WBxx_HAL_Driver/Inc/stm32wbxx_ll_exti.h **** /**
1122:Drivers/STM32WBxx_HAL_Driver/Inc/stm32wbxx_ll_exti.h ****   * @brief  Check if rising edge trigger is enabled for Lines in range 0 to 31
1123:Drivers/STM32WBxx_HAL_Driver/Inc/stm32wbxx_ll_exti.h ****   * @rmtoll RTSR1        RTx           LL_EXTI_IsEnabledRisingTrig_0_31
1124:Drivers/STM32WBxx_HAL_Driver/Inc/stm32wbxx_ll_exti.h ****   * @param  ExtiLine This parameter can be a combination of the following values:
1125:Drivers/STM32WBxx_HAL_Driver/Inc/stm32wbxx_ll_exti.h ****   *         @arg @ref LL_EXTI_LINE_0
1126:Drivers/STM32WBxx_HAL_Driver/Inc/stm32wbxx_ll_exti.h ****   *         @arg @ref LL_EXTI_LINE_1
1127:Drivers/STM32WBxx_HAL_Driver/Inc/stm32wbxx_ll_exti.h ****   *         @arg @ref LL_EXTI_LINE_2
1128:Drivers/STM32WBxx_HAL_Driver/Inc/stm32wbxx_ll_exti.h ****   *         @arg @ref LL_EXTI_LINE_3
1129:Drivers/STM32WBxx_HAL_Driver/Inc/stm32wbxx_ll_exti.h ****   *         @arg @ref LL_EXTI_LINE_4
1130:Drivers/STM32WBxx_HAL_Driver/Inc/stm32wbxx_ll_exti.h ****   *         @arg @ref LL_EXTI_LINE_5
1131:Drivers/STM32WBxx_HAL_Driver/Inc/stm32wbxx_ll_exti.h ****   *         @arg @ref LL_EXTI_LINE_6
1132:Drivers/STM32WBxx_HAL_Driver/Inc/stm32wbxx_ll_exti.h ****   *         @arg @ref LL_EXTI_LINE_7
1133:Drivers/STM32WBxx_HAL_Driver/Inc/stm32wbxx_ll_exti.h ****   *         @arg @ref LL_EXTI_LINE_8
1134:Drivers/STM32WBxx_HAL_Driver/Inc/stm32wbxx_ll_exti.h ****   *         @arg @ref LL_EXTI_LINE_9
1135:Drivers/STM32WBxx_HAL_Driver/Inc/stm32wbxx_ll_exti.h ****   *         @arg @ref LL_EXTI_LINE_10
1136:Drivers/STM32WBxx_HAL_Driver/Inc/stm32wbxx_ll_exti.h ****   *         @arg @ref LL_EXTI_LINE_11
1137:Drivers/STM32WBxx_HAL_Driver/Inc/stm32wbxx_ll_exti.h ****   *         @arg @ref LL_EXTI_LINE_12
1138:Drivers/STM32WBxx_HAL_Driver/Inc/stm32wbxx_ll_exti.h ****   *         @arg @ref LL_EXTI_LINE_13
1139:Drivers/STM32WBxx_HAL_Driver/Inc/stm32wbxx_ll_exti.h ****   *         @arg @ref LL_EXTI_LINE_14
1140:Drivers/STM32WBxx_HAL_Driver/Inc/stm32wbxx_ll_exti.h ****   *         @arg @ref LL_EXTI_LINE_15
1141:Drivers/STM32WBxx_HAL_Driver/Inc/stm32wbxx_ll_exti.h ****   *         @arg @ref LL_EXTI_LINE_16
1142:Drivers/STM32WBxx_HAL_Driver/Inc/stm32wbxx_ll_exti.h ****   *         @arg @ref LL_EXTI_LINE_17
1143:Drivers/STM32WBxx_HAL_Driver/Inc/stm32wbxx_ll_exti.h ****   *         @arg @ref LL_EXTI_LINE_18
1144:Drivers/STM32WBxx_HAL_Driver/Inc/stm32wbxx_ll_exti.h ****   *         @arg @ref LL_EXTI_LINE_19
1145:Drivers/STM32WBxx_HAL_Driver/Inc/stm32wbxx_ll_exti.h ****   *         @arg @ref LL_EXTI_LINE_20 (*)
ARM GAS  C:\Users\alanl\AppData\Local\Temp\ccf1ENHg.s 			page 26


1146:Drivers/STM32WBxx_HAL_Driver/Inc/stm32wbxx_ll_exti.h ****   *         @arg @ref LL_EXTI_LINE_21 (*)
1147:Drivers/STM32WBxx_HAL_Driver/Inc/stm32wbxx_ll_exti.h ****   *         @arg @ref LL_EXTI_LINE_31 (*)
1148:Drivers/STM32WBxx_HAL_Driver/Inc/stm32wbxx_ll_exti.h ****   *         (*) value not defined in all devices
1149:Drivers/STM32WBxx_HAL_Driver/Inc/stm32wbxx_ll_exti.h ****   * @retval State of bit (1 or 0).
1150:Drivers/STM32WBxx_HAL_Driver/Inc/stm32wbxx_ll_exti.h ****   */
1151:Drivers/STM32WBxx_HAL_Driver/Inc/stm32wbxx_ll_exti.h **** __STATIC_INLINE uint32_t LL_EXTI_IsEnabledRisingTrig_0_31(uint32_t ExtiLine)
1152:Drivers/STM32WBxx_HAL_Driver/Inc/stm32wbxx_ll_exti.h **** {
1153:Drivers/STM32WBxx_HAL_Driver/Inc/stm32wbxx_ll_exti.h ****   return ((READ_BIT(EXTI->RTSR1, ExtiLine) == (ExtiLine)) ? 1UL : 0UL);
1154:Drivers/STM32WBxx_HAL_Driver/Inc/stm32wbxx_ll_exti.h **** }
1155:Drivers/STM32WBxx_HAL_Driver/Inc/stm32wbxx_ll_exti.h **** 
1156:Drivers/STM32WBxx_HAL_Driver/Inc/stm32wbxx_ll_exti.h **** /**
1157:Drivers/STM32WBxx_HAL_Driver/Inc/stm32wbxx_ll_exti.h ****   * @brief  Check if rising edge trigger is enabled for Lines in range 32 to 63
1158:Drivers/STM32WBxx_HAL_Driver/Inc/stm32wbxx_ll_exti.h ****   * @rmtoll RTSR2        RTx           LL_EXTI_IsEnabledRisingTrig_32_63
1159:Drivers/STM32WBxx_HAL_Driver/Inc/stm32wbxx_ll_exti.h ****   * @param  ExtiLine This parameter can be a combination of the following values:
1160:Drivers/STM32WBxx_HAL_Driver/Inc/stm32wbxx_ll_exti.h ****   *         @arg @ref LL_EXTI_LINE_33 (*)
1161:Drivers/STM32WBxx_HAL_Driver/Inc/stm32wbxx_ll_exti.h ****   *         @arg @ref LL_EXTI_LINE_40
1162:Drivers/STM32WBxx_HAL_Driver/Inc/stm32wbxx_ll_exti.h ****   *         @arg @ref LL_EXTI_LINE_41
1163:Drivers/STM32WBxx_HAL_Driver/Inc/stm32wbxx_ll_exti.h ****   *         (*) value not defined in all devices
1164:Drivers/STM32WBxx_HAL_Driver/Inc/stm32wbxx_ll_exti.h ****   * @retval State of bit (1 or 0).
1165:Drivers/STM32WBxx_HAL_Driver/Inc/stm32wbxx_ll_exti.h ****   */
1166:Drivers/STM32WBxx_HAL_Driver/Inc/stm32wbxx_ll_exti.h **** __STATIC_INLINE uint32_t LL_EXTI_IsEnabledRisingTrig_32_63(uint32_t ExtiLine)
1167:Drivers/STM32WBxx_HAL_Driver/Inc/stm32wbxx_ll_exti.h **** {
1168:Drivers/STM32WBxx_HAL_Driver/Inc/stm32wbxx_ll_exti.h ****   return ((READ_BIT(EXTI->RTSR2, ExtiLine) == (ExtiLine)) ? 1UL : 0UL);
1169:Drivers/STM32WBxx_HAL_Driver/Inc/stm32wbxx_ll_exti.h **** }
1170:Drivers/STM32WBxx_HAL_Driver/Inc/stm32wbxx_ll_exti.h **** 
1171:Drivers/STM32WBxx_HAL_Driver/Inc/stm32wbxx_ll_exti.h **** /**
1172:Drivers/STM32WBxx_HAL_Driver/Inc/stm32wbxx_ll_exti.h ****   * @}
1173:Drivers/STM32WBxx_HAL_Driver/Inc/stm32wbxx_ll_exti.h ****   */
1174:Drivers/STM32WBxx_HAL_Driver/Inc/stm32wbxx_ll_exti.h **** 
1175:Drivers/STM32WBxx_HAL_Driver/Inc/stm32wbxx_ll_exti.h **** /** @defgroup EXTI_LL_EF_Falling_Trigger_Management Falling_Trigger_Management
1176:Drivers/STM32WBxx_HAL_Driver/Inc/stm32wbxx_ll_exti.h ****   * @{
1177:Drivers/STM32WBxx_HAL_Driver/Inc/stm32wbxx_ll_exti.h ****   */
1178:Drivers/STM32WBxx_HAL_Driver/Inc/stm32wbxx_ll_exti.h **** 
1179:Drivers/STM32WBxx_HAL_Driver/Inc/stm32wbxx_ll_exti.h **** /**
1180:Drivers/STM32WBxx_HAL_Driver/Inc/stm32wbxx_ll_exti.h ****   * @brief  Enable ExtiLine Falling Edge Trigger for Lines in range 0 to 31
1181:Drivers/STM32WBxx_HAL_Driver/Inc/stm32wbxx_ll_exti.h ****   * @note The configurable wakeup lines are edge-triggered. No glitch must be
1182:Drivers/STM32WBxx_HAL_Driver/Inc/stm32wbxx_ll_exti.h ****   *       generated on these lines. If a falling edge on a configurable interrupt
1183:Drivers/STM32WBxx_HAL_Driver/Inc/stm32wbxx_ll_exti.h ****   *       line occurs during a write operation in the EXTI_FTSR register, the
1184:Drivers/STM32WBxx_HAL_Driver/Inc/stm32wbxx_ll_exti.h ****   *       pending bit is not set.
1185:Drivers/STM32WBxx_HAL_Driver/Inc/stm32wbxx_ll_exti.h ****   *       Rising and falling edge triggers can be set for
1186:Drivers/STM32WBxx_HAL_Driver/Inc/stm32wbxx_ll_exti.h ****   *       the same interrupt line. In this case, both generate a trigger
1187:Drivers/STM32WBxx_HAL_Driver/Inc/stm32wbxx_ll_exti.h ****   *       condition.
1188:Drivers/STM32WBxx_HAL_Driver/Inc/stm32wbxx_ll_exti.h ****   * @rmtoll FTSR1        FTx           LL_EXTI_EnableFallingTrig_0_31
1189:Drivers/STM32WBxx_HAL_Driver/Inc/stm32wbxx_ll_exti.h ****   * @param  ExtiLine This parameter can be a combination of the following values:
1190:Drivers/STM32WBxx_HAL_Driver/Inc/stm32wbxx_ll_exti.h ****   *         @arg @ref LL_EXTI_LINE_0
1191:Drivers/STM32WBxx_HAL_Driver/Inc/stm32wbxx_ll_exti.h ****   *         @arg @ref LL_EXTI_LINE_1
1192:Drivers/STM32WBxx_HAL_Driver/Inc/stm32wbxx_ll_exti.h ****   *         @arg @ref LL_EXTI_LINE_2
1193:Drivers/STM32WBxx_HAL_Driver/Inc/stm32wbxx_ll_exti.h ****   *         @arg @ref LL_EXTI_LINE_3
1194:Drivers/STM32WBxx_HAL_Driver/Inc/stm32wbxx_ll_exti.h ****   *         @arg @ref LL_EXTI_LINE_4
1195:Drivers/STM32WBxx_HAL_Driver/Inc/stm32wbxx_ll_exti.h ****   *         @arg @ref LL_EXTI_LINE_5
1196:Drivers/STM32WBxx_HAL_Driver/Inc/stm32wbxx_ll_exti.h ****   *         @arg @ref LL_EXTI_LINE_6
1197:Drivers/STM32WBxx_HAL_Driver/Inc/stm32wbxx_ll_exti.h ****   *         @arg @ref LL_EXTI_LINE_7
1198:Drivers/STM32WBxx_HAL_Driver/Inc/stm32wbxx_ll_exti.h ****   *         @arg @ref LL_EXTI_LINE_8
1199:Drivers/STM32WBxx_HAL_Driver/Inc/stm32wbxx_ll_exti.h ****   *         @arg @ref LL_EXTI_LINE_9
1200:Drivers/STM32WBxx_HAL_Driver/Inc/stm32wbxx_ll_exti.h ****   *         @arg @ref LL_EXTI_LINE_10
1201:Drivers/STM32WBxx_HAL_Driver/Inc/stm32wbxx_ll_exti.h ****   *         @arg @ref LL_EXTI_LINE_11
1202:Drivers/STM32WBxx_HAL_Driver/Inc/stm32wbxx_ll_exti.h ****   *         @arg @ref LL_EXTI_LINE_12
ARM GAS  C:\Users\alanl\AppData\Local\Temp\ccf1ENHg.s 			page 27


1203:Drivers/STM32WBxx_HAL_Driver/Inc/stm32wbxx_ll_exti.h ****   *         @arg @ref LL_EXTI_LINE_13
1204:Drivers/STM32WBxx_HAL_Driver/Inc/stm32wbxx_ll_exti.h ****   *         @arg @ref LL_EXTI_LINE_14
1205:Drivers/STM32WBxx_HAL_Driver/Inc/stm32wbxx_ll_exti.h ****   *         @arg @ref LL_EXTI_LINE_15
1206:Drivers/STM32WBxx_HAL_Driver/Inc/stm32wbxx_ll_exti.h ****   *         @arg @ref LL_EXTI_LINE_16
1207:Drivers/STM32WBxx_HAL_Driver/Inc/stm32wbxx_ll_exti.h ****   *         @arg @ref LL_EXTI_LINE_17
1208:Drivers/STM32WBxx_HAL_Driver/Inc/stm32wbxx_ll_exti.h ****   *         @arg @ref LL_EXTI_LINE_18
1209:Drivers/STM32WBxx_HAL_Driver/Inc/stm32wbxx_ll_exti.h ****   *         @arg @ref LL_EXTI_LINE_19
1210:Drivers/STM32WBxx_HAL_Driver/Inc/stm32wbxx_ll_exti.h ****   *         @arg @ref LL_EXTI_LINE_20 (*)
1211:Drivers/STM32WBxx_HAL_Driver/Inc/stm32wbxx_ll_exti.h ****   *         @arg @ref LL_EXTI_LINE_21 (*)
1212:Drivers/STM32WBxx_HAL_Driver/Inc/stm32wbxx_ll_exti.h ****   *         @arg @ref LL_EXTI_LINE_31 (*)
1213:Drivers/STM32WBxx_HAL_Driver/Inc/stm32wbxx_ll_exti.h ****   *         (*) value not defined in all devices
1214:Drivers/STM32WBxx_HAL_Driver/Inc/stm32wbxx_ll_exti.h ****   * @note   Please check each device line mapping for EXTI Line availability
1215:Drivers/STM32WBxx_HAL_Driver/Inc/stm32wbxx_ll_exti.h ****   * @retval None
1216:Drivers/STM32WBxx_HAL_Driver/Inc/stm32wbxx_ll_exti.h ****   */
1217:Drivers/STM32WBxx_HAL_Driver/Inc/stm32wbxx_ll_exti.h **** __STATIC_INLINE void LL_EXTI_EnableFallingTrig_0_31(uint32_t ExtiLine)
1218:Drivers/STM32WBxx_HAL_Driver/Inc/stm32wbxx_ll_exti.h **** {
 292              		.loc 2 1218 1
 293              		.cfi_startproc
 294              		@ args = 0, pretend = 0, frame = 8
 295              		@ frame_needed = 1, uses_anonymous_args = 0
 296              		@ link register save eliminated.
 297 0000 80B4     		push	{r7}
 298              	.LCFI30:
 299              		.cfi_def_cfa_offset 4
 300              		.cfi_offset 7, -4
 301 0002 83B0     		sub	sp, sp, #12
 302              	.LCFI31:
 303              		.cfi_def_cfa_offset 16
 304 0004 00AF     		add	r7, sp, #0
 305              	.LCFI32:
 306              		.cfi_def_cfa_register 7
 307 0006 7860     		str	r0, [r7, #4]
1219:Drivers/STM32WBxx_HAL_Driver/Inc/stm32wbxx_ll_exti.h ****   SET_BIT(EXTI->FTSR1, ExtiLine);
 308              		.loc 2 1219 3
 309 0008 054B     		ldr	r3, .L17
 310 000a 5A68     		ldr	r2, [r3, #4]
 311 000c 0449     		ldr	r1, .L17
 312 000e 7B68     		ldr	r3, [r7, #4]
 313 0010 1343     		orrs	r3, r3, r2
 314 0012 4B60     		str	r3, [r1, #4]
1220:Drivers/STM32WBxx_HAL_Driver/Inc/stm32wbxx_ll_exti.h **** }
 315              		.loc 2 1220 1
 316 0014 00BF     		nop
 317 0016 0C37     		adds	r7, r7, #12
 318              	.LCFI33:
 319              		.cfi_def_cfa_offset 4
 320 0018 BD46     		mov	sp, r7
 321              	.LCFI34:
 322              		.cfi_def_cfa_register 13
 323              		@ sp needed
 324 001a 5DF8047B 		ldr	r7, [sp], #4
 325              	.LCFI35:
 326              		.cfi_restore 7
 327              		.cfi_def_cfa_offset 0
 328 001e 7047     		bx	lr
 329              	.L18:
 330              		.align	2
ARM GAS  C:\Users\alanl\AppData\Local\Temp\ccf1ENHg.s 			page 28


 331              	.L17:
 332 0020 00080058 		.word	1476397056
 333              		.cfi_endproc
 334              	.LFE473:
 336              		.section	.text.LL_EXTI_DisableFallingTrig_0_31,"ax",%progbits
 337              		.align	1
 338              		.syntax unified
 339              		.thumb
 340              		.thumb_func
 342              	LL_EXTI_DisableFallingTrig_0_31:
 343              	.LFB475:
1221:Drivers/STM32WBxx_HAL_Driver/Inc/stm32wbxx_ll_exti.h **** 
1222:Drivers/STM32WBxx_HAL_Driver/Inc/stm32wbxx_ll_exti.h **** /**
1223:Drivers/STM32WBxx_HAL_Driver/Inc/stm32wbxx_ll_exti.h ****   * @brief  Enable ExtiLine Falling Edge Trigger for Lines in range 32 to 63
1224:Drivers/STM32WBxx_HAL_Driver/Inc/stm32wbxx_ll_exti.h ****   * @note The configurable wakeup lines are edge-triggered. No glitch must be
1225:Drivers/STM32WBxx_HAL_Driver/Inc/stm32wbxx_ll_exti.h ****   *       generated on these lines. If a Falling edge on a configurable interrupt
1226:Drivers/STM32WBxx_HAL_Driver/Inc/stm32wbxx_ll_exti.h ****   *       line occurs during a write operation in the EXTI_FTSR register, the
1227:Drivers/STM32WBxx_HAL_Driver/Inc/stm32wbxx_ll_exti.h ****   *       pending bit is not set.
1228:Drivers/STM32WBxx_HAL_Driver/Inc/stm32wbxx_ll_exti.h ****   *       Rising and falling edge triggers can be set for
1229:Drivers/STM32WBxx_HAL_Driver/Inc/stm32wbxx_ll_exti.h ****   *       the same interrupt line. In this case, both generate a trigger
1230:Drivers/STM32WBxx_HAL_Driver/Inc/stm32wbxx_ll_exti.h ****   *       condition.
1231:Drivers/STM32WBxx_HAL_Driver/Inc/stm32wbxx_ll_exti.h ****   * @rmtoll FTSR2        FTx           LL_EXTI_EnableFallingTrig_32_63
1232:Drivers/STM32WBxx_HAL_Driver/Inc/stm32wbxx_ll_exti.h ****   * @param  ExtiLine This parameter can be a combination of the following values:
1233:Drivers/STM32WBxx_HAL_Driver/Inc/stm32wbxx_ll_exti.h ****   *         @arg @ref LL_EXTI_LINE_33 (*)
1234:Drivers/STM32WBxx_HAL_Driver/Inc/stm32wbxx_ll_exti.h ****   *         @arg @ref LL_EXTI_LINE_40
1235:Drivers/STM32WBxx_HAL_Driver/Inc/stm32wbxx_ll_exti.h ****   *         @arg @ref LL_EXTI_LINE_41
1236:Drivers/STM32WBxx_HAL_Driver/Inc/stm32wbxx_ll_exti.h ****   *         (*) value not defined in all devices
1237:Drivers/STM32WBxx_HAL_Driver/Inc/stm32wbxx_ll_exti.h ****   * @retval None
1238:Drivers/STM32WBxx_HAL_Driver/Inc/stm32wbxx_ll_exti.h ****   */
1239:Drivers/STM32WBxx_HAL_Driver/Inc/stm32wbxx_ll_exti.h **** __STATIC_INLINE void LL_EXTI_EnableFallingTrig_32_63(uint32_t ExtiLine)
1240:Drivers/STM32WBxx_HAL_Driver/Inc/stm32wbxx_ll_exti.h **** {
1241:Drivers/STM32WBxx_HAL_Driver/Inc/stm32wbxx_ll_exti.h ****   SET_BIT(EXTI->FTSR2, ExtiLine);
1242:Drivers/STM32WBxx_HAL_Driver/Inc/stm32wbxx_ll_exti.h **** }
1243:Drivers/STM32WBxx_HAL_Driver/Inc/stm32wbxx_ll_exti.h **** 
1244:Drivers/STM32WBxx_HAL_Driver/Inc/stm32wbxx_ll_exti.h **** /**
1245:Drivers/STM32WBxx_HAL_Driver/Inc/stm32wbxx_ll_exti.h ****   * @brief  Disable ExtiLine Falling Edge Trigger for Lines in range 0 to 31
1246:Drivers/STM32WBxx_HAL_Driver/Inc/stm32wbxx_ll_exti.h ****   * @note The configurable wakeup lines are edge-triggered. No glitch must be
1247:Drivers/STM32WBxx_HAL_Driver/Inc/stm32wbxx_ll_exti.h ****   *       generated on these lines. If a Falling edge on a configurable interrupt
1248:Drivers/STM32WBxx_HAL_Driver/Inc/stm32wbxx_ll_exti.h ****   *       line occurs during a write operation in the EXTI_FTSR register, the
1249:Drivers/STM32WBxx_HAL_Driver/Inc/stm32wbxx_ll_exti.h ****   *       pending bit is not set.
1250:Drivers/STM32WBxx_HAL_Driver/Inc/stm32wbxx_ll_exti.h ****   *       Rising and falling edge triggers can be set for the same interrupt line.
1251:Drivers/STM32WBxx_HAL_Driver/Inc/stm32wbxx_ll_exti.h ****   *       In this case, both generate a trigger condition.
1252:Drivers/STM32WBxx_HAL_Driver/Inc/stm32wbxx_ll_exti.h ****   * @rmtoll FTSR1        FTx           LL_EXTI_DisableFallingTrig_0_31
1253:Drivers/STM32WBxx_HAL_Driver/Inc/stm32wbxx_ll_exti.h ****   * @param  ExtiLine This parameter can be a combination of the following values:
1254:Drivers/STM32WBxx_HAL_Driver/Inc/stm32wbxx_ll_exti.h ****   *         @arg @ref LL_EXTI_LINE_0
1255:Drivers/STM32WBxx_HAL_Driver/Inc/stm32wbxx_ll_exti.h ****   *         @arg @ref LL_EXTI_LINE_1
1256:Drivers/STM32WBxx_HAL_Driver/Inc/stm32wbxx_ll_exti.h ****   *         @arg @ref LL_EXTI_LINE_2
1257:Drivers/STM32WBxx_HAL_Driver/Inc/stm32wbxx_ll_exti.h ****   *         @arg @ref LL_EXTI_LINE_3
1258:Drivers/STM32WBxx_HAL_Driver/Inc/stm32wbxx_ll_exti.h ****   *         @arg @ref LL_EXTI_LINE_4
1259:Drivers/STM32WBxx_HAL_Driver/Inc/stm32wbxx_ll_exti.h ****   *         @arg @ref LL_EXTI_LINE_5
1260:Drivers/STM32WBxx_HAL_Driver/Inc/stm32wbxx_ll_exti.h ****   *         @arg @ref LL_EXTI_LINE_6
1261:Drivers/STM32WBxx_HAL_Driver/Inc/stm32wbxx_ll_exti.h ****   *         @arg @ref LL_EXTI_LINE_7
1262:Drivers/STM32WBxx_HAL_Driver/Inc/stm32wbxx_ll_exti.h ****   *         @arg @ref LL_EXTI_LINE_8
1263:Drivers/STM32WBxx_HAL_Driver/Inc/stm32wbxx_ll_exti.h ****   *         @arg @ref LL_EXTI_LINE_9
1264:Drivers/STM32WBxx_HAL_Driver/Inc/stm32wbxx_ll_exti.h ****   *         @arg @ref LL_EXTI_LINE_10
1265:Drivers/STM32WBxx_HAL_Driver/Inc/stm32wbxx_ll_exti.h ****   *         @arg @ref LL_EXTI_LINE_11
1266:Drivers/STM32WBxx_HAL_Driver/Inc/stm32wbxx_ll_exti.h ****   *         @arg @ref LL_EXTI_LINE_12
ARM GAS  C:\Users\alanl\AppData\Local\Temp\ccf1ENHg.s 			page 29


1267:Drivers/STM32WBxx_HAL_Driver/Inc/stm32wbxx_ll_exti.h ****   *         @arg @ref LL_EXTI_LINE_13
1268:Drivers/STM32WBxx_HAL_Driver/Inc/stm32wbxx_ll_exti.h ****   *         @arg @ref LL_EXTI_LINE_14
1269:Drivers/STM32WBxx_HAL_Driver/Inc/stm32wbxx_ll_exti.h ****   *         @arg @ref LL_EXTI_LINE_15
1270:Drivers/STM32WBxx_HAL_Driver/Inc/stm32wbxx_ll_exti.h ****   *         @arg @ref LL_EXTI_LINE_16
1271:Drivers/STM32WBxx_HAL_Driver/Inc/stm32wbxx_ll_exti.h ****   *         @arg @ref LL_EXTI_LINE_17
1272:Drivers/STM32WBxx_HAL_Driver/Inc/stm32wbxx_ll_exti.h ****   *         @arg @ref LL_EXTI_LINE_18
1273:Drivers/STM32WBxx_HAL_Driver/Inc/stm32wbxx_ll_exti.h ****   *         @arg @ref LL_EXTI_LINE_19
1274:Drivers/STM32WBxx_HAL_Driver/Inc/stm32wbxx_ll_exti.h ****   *         @arg @ref LL_EXTI_LINE_20 (*)
1275:Drivers/STM32WBxx_HAL_Driver/Inc/stm32wbxx_ll_exti.h ****   *         @arg @ref LL_EXTI_LINE_21 (*)
1276:Drivers/STM32WBxx_HAL_Driver/Inc/stm32wbxx_ll_exti.h ****   *         @arg @ref LL_EXTI_LINE_31 (*)
1277:Drivers/STM32WBxx_HAL_Driver/Inc/stm32wbxx_ll_exti.h ****   *         (*) value not defined in all devices
1278:Drivers/STM32WBxx_HAL_Driver/Inc/stm32wbxx_ll_exti.h ****   * @note   Please check each device line mapping for EXTI Line availability
1279:Drivers/STM32WBxx_HAL_Driver/Inc/stm32wbxx_ll_exti.h ****   * @retval None
1280:Drivers/STM32WBxx_HAL_Driver/Inc/stm32wbxx_ll_exti.h ****   */
1281:Drivers/STM32WBxx_HAL_Driver/Inc/stm32wbxx_ll_exti.h **** __STATIC_INLINE void LL_EXTI_DisableFallingTrig_0_31(uint32_t ExtiLine)
1282:Drivers/STM32WBxx_HAL_Driver/Inc/stm32wbxx_ll_exti.h **** {
 344              		.loc 2 1282 1
 345              		.cfi_startproc
 346              		@ args = 0, pretend = 0, frame = 8
 347              		@ frame_needed = 1, uses_anonymous_args = 0
 348              		@ link register save eliminated.
 349 0000 80B4     		push	{r7}
 350              	.LCFI36:
 351              		.cfi_def_cfa_offset 4
 352              		.cfi_offset 7, -4
 353 0002 83B0     		sub	sp, sp, #12
 354              	.LCFI37:
 355              		.cfi_def_cfa_offset 16
 356 0004 00AF     		add	r7, sp, #0
 357              	.LCFI38:
 358              		.cfi_def_cfa_register 7
 359 0006 7860     		str	r0, [r7, #4]
1283:Drivers/STM32WBxx_HAL_Driver/Inc/stm32wbxx_ll_exti.h ****   CLEAR_BIT(EXTI->FTSR1, ExtiLine);
 360              		.loc 2 1283 3
 361 0008 064B     		ldr	r3, .L20
 362 000a 5A68     		ldr	r2, [r3, #4]
 363 000c 7B68     		ldr	r3, [r7, #4]
 364 000e DB43     		mvns	r3, r3
 365 0010 0449     		ldr	r1, .L20
 366 0012 1340     		ands	r3, r3, r2
 367 0014 4B60     		str	r3, [r1, #4]
1284:Drivers/STM32WBxx_HAL_Driver/Inc/stm32wbxx_ll_exti.h **** }
 368              		.loc 2 1284 1
 369 0016 00BF     		nop
 370 0018 0C37     		adds	r7, r7, #12
 371              	.LCFI39:
 372              		.cfi_def_cfa_offset 4
 373 001a BD46     		mov	sp, r7
 374              	.LCFI40:
 375              		.cfi_def_cfa_register 13
 376              		@ sp needed
 377 001c 5DF8047B 		ldr	r7, [sp], #4
 378              	.LCFI41:
 379              		.cfi_restore 7
 380              		.cfi_def_cfa_offset 0
 381 0020 7047     		bx	lr
 382              	.L21:
ARM GAS  C:\Users\alanl\AppData\Local\Temp\ccf1ENHg.s 			page 30


 383 0022 00BF     		.align	2
 384              	.L20:
 385 0024 00080058 		.word	1476397056
 386              		.cfi_endproc
 387              	.LFE475:
 389              		.section	.text.HAL_PWR_DeInit,"ax",%progbits
 390              		.align	1
 391              		.global	HAL_PWR_DeInit
 392              		.syntax unified
 393              		.thumb
 394              		.thumb_func
 396              	HAL_PWR_DeInit:
 397              	.LFB950:
   1:Drivers/STM32WBxx_HAL_Driver/Src/stm32wbxx_hal_pwr.c **** /**
   2:Drivers/STM32WBxx_HAL_Driver/Src/stm32wbxx_hal_pwr.c ****   ******************************************************************************
   3:Drivers/STM32WBxx_HAL_Driver/Src/stm32wbxx_hal_pwr.c ****   * @file    stm32wbxx_hal_pwr.c
   4:Drivers/STM32WBxx_HAL_Driver/Src/stm32wbxx_hal_pwr.c ****   * @author  MCD Application Team
   5:Drivers/STM32WBxx_HAL_Driver/Src/stm32wbxx_hal_pwr.c ****   * @brief   PWR HAL module driver.
   6:Drivers/STM32WBxx_HAL_Driver/Src/stm32wbxx_hal_pwr.c ****   *          This file provides firmware functions to manage the following
   7:Drivers/STM32WBxx_HAL_Driver/Src/stm32wbxx_hal_pwr.c ****   *          functionalities of the Power Controller (PWR) peripheral:
   8:Drivers/STM32WBxx_HAL_Driver/Src/stm32wbxx_hal_pwr.c ****   *           + Initialization/de-initialization functions
   9:Drivers/STM32WBxx_HAL_Driver/Src/stm32wbxx_hal_pwr.c ****   *           + Peripheral Control functions
  10:Drivers/STM32WBxx_HAL_Driver/Src/stm32wbxx_hal_pwr.c ****   *
  11:Drivers/STM32WBxx_HAL_Driver/Src/stm32wbxx_hal_pwr.c ****   ******************************************************************************
  12:Drivers/STM32WBxx_HAL_Driver/Src/stm32wbxx_hal_pwr.c ****   * @attention
  13:Drivers/STM32WBxx_HAL_Driver/Src/stm32wbxx_hal_pwr.c ****   *
  14:Drivers/STM32WBxx_HAL_Driver/Src/stm32wbxx_hal_pwr.c ****   * Copyright (c) 2019 STMicroelectronics.
  15:Drivers/STM32WBxx_HAL_Driver/Src/stm32wbxx_hal_pwr.c ****   * All rights reserved.
  16:Drivers/STM32WBxx_HAL_Driver/Src/stm32wbxx_hal_pwr.c ****   *
  17:Drivers/STM32WBxx_HAL_Driver/Src/stm32wbxx_hal_pwr.c ****   * This software is licensed under terms that can be found in the LICENSE file
  18:Drivers/STM32WBxx_HAL_Driver/Src/stm32wbxx_hal_pwr.c ****   * in the root directory of this software component.
  19:Drivers/STM32WBxx_HAL_Driver/Src/stm32wbxx_hal_pwr.c ****   * If no LICENSE file comes with this software, it is provided AS-IS.
  20:Drivers/STM32WBxx_HAL_Driver/Src/stm32wbxx_hal_pwr.c ****   *
  21:Drivers/STM32WBxx_HAL_Driver/Src/stm32wbxx_hal_pwr.c ****   ******************************************************************************
  22:Drivers/STM32WBxx_HAL_Driver/Src/stm32wbxx_hal_pwr.c ****   */
  23:Drivers/STM32WBxx_HAL_Driver/Src/stm32wbxx_hal_pwr.c **** 
  24:Drivers/STM32WBxx_HAL_Driver/Src/stm32wbxx_hal_pwr.c **** /* Includes ------------------------------------------------------------------*/
  25:Drivers/STM32WBxx_HAL_Driver/Src/stm32wbxx_hal_pwr.c **** #include "stm32wbxx_hal.h"
  26:Drivers/STM32WBxx_HAL_Driver/Src/stm32wbxx_hal_pwr.c **** 
  27:Drivers/STM32WBxx_HAL_Driver/Src/stm32wbxx_hal_pwr.c **** /** @addtogroup STM32WBxx_HAL_Driver
  28:Drivers/STM32WBxx_HAL_Driver/Src/stm32wbxx_hal_pwr.c ****   * @{
  29:Drivers/STM32WBxx_HAL_Driver/Src/stm32wbxx_hal_pwr.c ****   */
  30:Drivers/STM32WBxx_HAL_Driver/Src/stm32wbxx_hal_pwr.c **** 
  31:Drivers/STM32WBxx_HAL_Driver/Src/stm32wbxx_hal_pwr.c **** /** @addtogroup PWR
  32:Drivers/STM32WBxx_HAL_Driver/Src/stm32wbxx_hal_pwr.c ****   * @{
  33:Drivers/STM32WBxx_HAL_Driver/Src/stm32wbxx_hal_pwr.c ****   */
  34:Drivers/STM32WBxx_HAL_Driver/Src/stm32wbxx_hal_pwr.c **** 
  35:Drivers/STM32WBxx_HAL_Driver/Src/stm32wbxx_hal_pwr.c **** #ifdef HAL_PWR_MODULE_ENABLED
  36:Drivers/STM32WBxx_HAL_Driver/Src/stm32wbxx_hal_pwr.c **** 
  37:Drivers/STM32WBxx_HAL_Driver/Src/stm32wbxx_hal_pwr.c **** /* Private typedef -----------------------------------------------------------*/
  38:Drivers/STM32WBxx_HAL_Driver/Src/stm32wbxx_hal_pwr.c **** /* Private define ------------------------------------------------------------*/
  39:Drivers/STM32WBxx_HAL_Driver/Src/stm32wbxx_hal_pwr.c **** /* Private macro -------------------------------------------------------------*/
  40:Drivers/STM32WBxx_HAL_Driver/Src/stm32wbxx_hal_pwr.c **** /* Private variables ---------------------------------------------------------*/
  41:Drivers/STM32WBxx_HAL_Driver/Src/stm32wbxx_hal_pwr.c **** /* Private constants ---------------------------------------------------------*/
  42:Drivers/STM32WBxx_HAL_Driver/Src/stm32wbxx_hal_pwr.c **** /** @addtogroup PWR_Private_Defines
  43:Drivers/STM32WBxx_HAL_Driver/Src/stm32wbxx_hal_pwr.c ****   * @{
  44:Drivers/STM32WBxx_HAL_Driver/Src/stm32wbxx_hal_pwr.c ****   */
ARM GAS  C:\Users\alanl\AppData\Local\Temp\ccf1ENHg.s 			page 31


  45:Drivers/STM32WBxx_HAL_Driver/Src/stm32wbxx_hal_pwr.c **** 
  46:Drivers/STM32WBxx_HAL_Driver/Src/stm32wbxx_hal_pwr.c **** /** @defgroup PWR_Register_Reset_Values  PWR Register Reset Values
  47:Drivers/STM32WBxx_HAL_Driver/Src/stm32wbxx_hal_pwr.c ****   * @{
  48:Drivers/STM32WBxx_HAL_Driver/Src/stm32wbxx_hal_pwr.c ****   */
  49:Drivers/STM32WBxx_HAL_Driver/Src/stm32wbxx_hal_pwr.c **** /* Definitions of PWR registers reset value */
  50:Drivers/STM32WBxx_HAL_Driver/Src/stm32wbxx_hal_pwr.c **** #define PWR_CR1_RESET_VALUE   (0x00000200U)
  51:Drivers/STM32WBxx_HAL_Driver/Src/stm32wbxx_hal_pwr.c **** #define PWR_CR2_RESET_VALUE   (0x00000000U)
  52:Drivers/STM32WBxx_HAL_Driver/Src/stm32wbxx_hal_pwr.c **** #define PWR_CR3_RESET_VALUE   (0x00008000U)
  53:Drivers/STM32WBxx_HAL_Driver/Src/stm32wbxx_hal_pwr.c **** #define PWR_CR4_RESET_VALUE   (0x00000000U)
  54:Drivers/STM32WBxx_HAL_Driver/Src/stm32wbxx_hal_pwr.c **** #define PWR_CR5_RESET_VALUE   (0x00004204U)
  55:Drivers/STM32WBxx_HAL_Driver/Src/stm32wbxx_hal_pwr.c **** #define PWR_PUCRA_RESET_VALUE (0x00000000U)
  56:Drivers/STM32WBxx_HAL_Driver/Src/stm32wbxx_hal_pwr.c **** #define PWR_PDCRA_RESET_VALUE (0x00000000U)
  57:Drivers/STM32WBxx_HAL_Driver/Src/stm32wbxx_hal_pwr.c **** #define PWR_PUCRB_RESET_VALUE (0x00000000U)
  58:Drivers/STM32WBxx_HAL_Driver/Src/stm32wbxx_hal_pwr.c **** #define PWR_PDCRB_RESET_VALUE (0x00000000U)
  59:Drivers/STM32WBxx_HAL_Driver/Src/stm32wbxx_hal_pwr.c **** #define PWR_PUCRC_RESET_VALUE (0x00000000U)
  60:Drivers/STM32WBxx_HAL_Driver/Src/stm32wbxx_hal_pwr.c **** #define PWR_PDCRC_RESET_VALUE (0x00000000U)
  61:Drivers/STM32WBxx_HAL_Driver/Src/stm32wbxx_hal_pwr.c **** #define PWR_PUCRD_RESET_VALUE (0x00000000U)
  62:Drivers/STM32WBxx_HAL_Driver/Src/stm32wbxx_hal_pwr.c **** #define PWR_PDCRD_RESET_VALUE (0x00000000U)
  63:Drivers/STM32WBxx_HAL_Driver/Src/stm32wbxx_hal_pwr.c **** #define PWR_PUCRE_RESET_VALUE (0x00000000U)
  64:Drivers/STM32WBxx_HAL_Driver/Src/stm32wbxx_hal_pwr.c **** #define PWR_PDCRE_RESET_VALUE (0x00000000U)
  65:Drivers/STM32WBxx_HAL_Driver/Src/stm32wbxx_hal_pwr.c **** #define PWR_PUCRH_RESET_VALUE (0x00000000U)
  66:Drivers/STM32WBxx_HAL_Driver/Src/stm32wbxx_hal_pwr.c **** #define PWR_PDCRH_RESET_VALUE (0x00000000U)
  67:Drivers/STM32WBxx_HAL_Driver/Src/stm32wbxx_hal_pwr.c **** #define PWR_C2CR1_RESET_VALUE (0x00000000U)
  68:Drivers/STM32WBxx_HAL_Driver/Src/stm32wbxx_hal_pwr.c **** #define PWR_C2CR3_RESET_VALUE (0x00008000U)
  69:Drivers/STM32WBxx_HAL_Driver/Src/stm32wbxx_hal_pwr.c **** /**
  70:Drivers/STM32WBxx_HAL_Driver/Src/stm32wbxx_hal_pwr.c ****   * @}
  71:Drivers/STM32WBxx_HAL_Driver/Src/stm32wbxx_hal_pwr.c ****   */
  72:Drivers/STM32WBxx_HAL_Driver/Src/stm32wbxx_hal_pwr.c **** 
  73:Drivers/STM32WBxx_HAL_Driver/Src/stm32wbxx_hal_pwr.c **** /**
  74:Drivers/STM32WBxx_HAL_Driver/Src/stm32wbxx_hal_pwr.c ****   * @}
  75:Drivers/STM32WBxx_HAL_Driver/Src/stm32wbxx_hal_pwr.c ****   */
  76:Drivers/STM32WBxx_HAL_Driver/Src/stm32wbxx_hal_pwr.c **** 
  77:Drivers/STM32WBxx_HAL_Driver/Src/stm32wbxx_hal_pwr.c **** /* Private function prototypes -----------------------------------------------*/
  78:Drivers/STM32WBxx_HAL_Driver/Src/stm32wbxx_hal_pwr.c **** /* Exported functions --------------------------------------------------------*/
  79:Drivers/STM32WBxx_HAL_Driver/Src/stm32wbxx_hal_pwr.c **** /** @addtogroup PWR_Exported_Functions  PWR Exported Functions
  80:Drivers/STM32WBxx_HAL_Driver/Src/stm32wbxx_hal_pwr.c ****   * @{
  81:Drivers/STM32WBxx_HAL_Driver/Src/stm32wbxx_hal_pwr.c ****   */
  82:Drivers/STM32WBxx_HAL_Driver/Src/stm32wbxx_hal_pwr.c **** 
  83:Drivers/STM32WBxx_HAL_Driver/Src/stm32wbxx_hal_pwr.c **** /** @addtogroup PWR_Exported_Functions_Group1  Initialization and de-initialization functions
  84:Drivers/STM32WBxx_HAL_Driver/Src/stm32wbxx_hal_pwr.c ****   * @brief  Initialization and de-initialization functions
  85:Drivers/STM32WBxx_HAL_Driver/Src/stm32wbxx_hal_pwr.c ****   *
  86:Drivers/STM32WBxx_HAL_Driver/Src/stm32wbxx_hal_pwr.c **** @verbatim
  87:Drivers/STM32WBxx_HAL_Driver/Src/stm32wbxx_hal_pwr.c ****  ===============================================================================
  88:Drivers/STM32WBxx_HAL_Driver/Src/stm32wbxx_hal_pwr.c ****               ##### Initialization and de-initialization functions #####
  89:Drivers/STM32WBxx_HAL_Driver/Src/stm32wbxx_hal_pwr.c ****  ===============================================================================
  90:Drivers/STM32WBxx_HAL_Driver/Src/stm32wbxx_hal_pwr.c ****     [..]
  91:Drivers/STM32WBxx_HAL_Driver/Src/stm32wbxx_hal_pwr.c **** 
  92:Drivers/STM32WBxx_HAL_Driver/Src/stm32wbxx_hal_pwr.c **** @endverbatim
  93:Drivers/STM32WBxx_HAL_Driver/Src/stm32wbxx_hal_pwr.c ****   * @{
  94:Drivers/STM32WBxx_HAL_Driver/Src/stm32wbxx_hal_pwr.c ****   */
  95:Drivers/STM32WBxx_HAL_Driver/Src/stm32wbxx_hal_pwr.c **** 
  96:Drivers/STM32WBxx_HAL_Driver/Src/stm32wbxx_hal_pwr.c **** /**
  97:Drivers/STM32WBxx_HAL_Driver/Src/stm32wbxx_hal_pwr.c ****   * @brief  Deinitialize the HAL PWR peripheral registers to their default reset values.
  98:Drivers/STM32WBxx_HAL_Driver/Src/stm32wbxx_hal_pwr.c ****   * @retval None
  99:Drivers/STM32WBxx_HAL_Driver/Src/stm32wbxx_hal_pwr.c ****   */
 100:Drivers/STM32WBxx_HAL_Driver/Src/stm32wbxx_hal_pwr.c **** void HAL_PWR_DeInit(void)
 101:Drivers/STM32WBxx_HAL_Driver/Src/stm32wbxx_hal_pwr.c **** {
ARM GAS  C:\Users\alanl\AppData\Local\Temp\ccf1ENHg.s 			page 32


 398              		.loc 1 101 1
 399              		.cfi_startproc
 400              		@ args = 0, pretend = 0, frame = 0
 401              		@ frame_needed = 1, uses_anonymous_args = 0
 402              		@ link register save eliminated.
 403 0000 80B4     		push	{r7}
 404              	.LCFI42:
 405              		.cfi_def_cfa_offset 4
 406              		.cfi_offset 7, -4
 407 0002 00AF     		add	r7, sp, #0
 408              	.LCFI43:
 409              		.cfi_def_cfa_register 7
 102:Drivers/STM32WBxx_HAL_Driver/Src/stm32wbxx_hal_pwr.c ****   /* Apply reset values to all PWR registers */
 103:Drivers/STM32WBxx_HAL_Driver/Src/stm32wbxx_hal_pwr.c ****   /* Note: Update of each register required since PWR global reset is not     */
 104:Drivers/STM32WBxx_HAL_Driver/Src/stm32wbxx_hal_pwr.c ****   /*       available at RCC level on this STM32 series.                       */
 105:Drivers/STM32WBxx_HAL_Driver/Src/stm32wbxx_hal_pwr.c ****   LL_PWR_WriteReg(CR1, PWR_CR1_RESET_VALUE);
 410              		.loc 1 105 3
 411 0004 254B     		ldr	r3, .L23
 412 0006 4FF40072 		mov	r2, #512
 413 000a 1A60     		str	r2, [r3]
 106:Drivers/STM32WBxx_HAL_Driver/Src/stm32wbxx_hal_pwr.c ****   LL_PWR_WriteReg(CR2, PWR_CR2_RESET_VALUE);
 414              		.loc 1 106 3
 415 000c 234B     		ldr	r3, .L23
 416 000e 0022     		movs	r2, #0
 417 0010 5A60     		str	r2, [r3, #4]
 107:Drivers/STM32WBxx_HAL_Driver/Src/stm32wbxx_hal_pwr.c ****   LL_PWR_WriteReg(CR3, PWR_CR3_RESET_VALUE);
 418              		.loc 1 107 3
 419 0012 224B     		ldr	r3, .L23
 420 0014 4FF40042 		mov	r2, #32768
 421 0018 9A60     		str	r2, [r3, #8]
 108:Drivers/STM32WBxx_HAL_Driver/Src/stm32wbxx_hal_pwr.c ****   LL_PWR_WriteReg(CR4, PWR_CR4_RESET_VALUE);
 422              		.loc 1 108 3
 423 001a 204B     		ldr	r3, .L23
 424 001c 0022     		movs	r2, #0
 425 001e DA60     		str	r2, [r3, #12]
 109:Drivers/STM32WBxx_HAL_Driver/Src/stm32wbxx_hal_pwr.c ****   LL_PWR_WriteReg(CR5, PWR_CR5_RESET_VALUE);
 426              		.loc 1 109 3
 427 0020 1E4B     		ldr	r3, .L23
 428 0022 44F20422 		movw	r2, #16900
 429 0026 DA61     		str	r2, [r3, #28]
 110:Drivers/STM32WBxx_HAL_Driver/Src/stm32wbxx_hal_pwr.c ****   LL_PWR_WriteReg(PUCRA, PWR_PUCRA_RESET_VALUE);
 430              		.loc 1 110 3
 431 0028 1C4B     		ldr	r3, .L23
 432 002a 0022     		movs	r2, #0
 433 002c 1A62     		str	r2, [r3, #32]
 111:Drivers/STM32WBxx_HAL_Driver/Src/stm32wbxx_hal_pwr.c ****   LL_PWR_WriteReg(PDCRA, PWR_PDCRA_RESET_VALUE);
 434              		.loc 1 111 3
 435 002e 1B4B     		ldr	r3, .L23
 436 0030 0022     		movs	r2, #0
 437 0032 5A62     		str	r2, [r3, #36]
 112:Drivers/STM32WBxx_HAL_Driver/Src/stm32wbxx_hal_pwr.c ****   LL_PWR_WriteReg(PUCRB, PWR_PUCRB_RESET_VALUE);
 438              		.loc 1 112 3
 439 0034 194B     		ldr	r3, .L23
 440 0036 0022     		movs	r2, #0
 441 0038 9A62     		str	r2, [r3, #40]
 113:Drivers/STM32WBxx_HAL_Driver/Src/stm32wbxx_hal_pwr.c ****   LL_PWR_WriteReg(PDCRB, PWR_PDCRB_RESET_VALUE);
 442              		.loc 1 113 3
ARM GAS  C:\Users\alanl\AppData\Local\Temp\ccf1ENHg.s 			page 33


 443 003a 184B     		ldr	r3, .L23
 444 003c 0022     		movs	r2, #0
 445 003e DA62     		str	r2, [r3, #44]
 114:Drivers/STM32WBxx_HAL_Driver/Src/stm32wbxx_hal_pwr.c ****   LL_PWR_WriteReg(PUCRC, PWR_PUCRC_RESET_VALUE);
 446              		.loc 1 114 3
 447 0040 164B     		ldr	r3, .L23
 448 0042 0022     		movs	r2, #0
 449 0044 1A63     		str	r2, [r3, #48]
 115:Drivers/STM32WBxx_HAL_Driver/Src/stm32wbxx_hal_pwr.c ****   LL_PWR_WriteReg(PDCRC, PWR_PDCRC_RESET_VALUE);
 450              		.loc 1 115 3
 451 0046 154B     		ldr	r3, .L23
 452 0048 0022     		movs	r2, #0
 453 004a 5A63     		str	r2, [r3, #52]
 116:Drivers/STM32WBxx_HAL_Driver/Src/stm32wbxx_hal_pwr.c **** #if defined(GPIOD)
 117:Drivers/STM32WBxx_HAL_Driver/Src/stm32wbxx_hal_pwr.c ****   LL_PWR_WriteReg(PUCRD, PWR_PUCRD_RESET_VALUE);
 454              		.loc 1 117 3
 455 004c 134B     		ldr	r3, .L23
 456 004e 0022     		movs	r2, #0
 457 0050 9A63     		str	r2, [r3, #56]
 118:Drivers/STM32WBxx_HAL_Driver/Src/stm32wbxx_hal_pwr.c ****   LL_PWR_WriteReg(PDCRD, PWR_PDCRD_RESET_VALUE);
 458              		.loc 1 118 3
 459 0052 124B     		ldr	r3, .L23
 460 0054 0022     		movs	r2, #0
 461 0056 DA63     		str	r2, [r3, #60]
 119:Drivers/STM32WBxx_HAL_Driver/Src/stm32wbxx_hal_pwr.c **** #endif /* GPIOD */
 120:Drivers/STM32WBxx_HAL_Driver/Src/stm32wbxx_hal_pwr.c ****   LL_PWR_WriteReg(PUCRE, PWR_PUCRE_RESET_VALUE);
 462              		.loc 1 120 3
 463 0058 104B     		ldr	r3, .L23
 464 005a 0022     		movs	r2, #0
 465 005c 1A64     		str	r2, [r3, #64]
 121:Drivers/STM32WBxx_HAL_Driver/Src/stm32wbxx_hal_pwr.c ****   LL_PWR_WriteReg(PDCRE, PWR_PDCRE_RESET_VALUE);
 466              		.loc 1 121 3
 467 005e 0F4B     		ldr	r3, .L23
 468 0060 0022     		movs	r2, #0
 469 0062 5A64     		str	r2, [r3, #68]
 122:Drivers/STM32WBxx_HAL_Driver/Src/stm32wbxx_hal_pwr.c ****   LL_PWR_WriteReg(PUCRH, PWR_PUCRH_RESET_VALUE);
 470              		.loc 1 122 3
 471 0064 0D4B     		ldr	r3, .L23
 472 0066 0022     		movs	r2, #0
 473 0068 9A65     		str	r2, [r3, #88]
 123:Drivers/STM32WBxx_HAL_Driver/Src/stm32wbxx_hal_pwr.c ****   LL_PWR_WriteReg(PDCRH, PWR_PDCRH_RESET_VALUE);
 474              		.loc 1 123 3
 475 006a 0C4B     		ldr	r3, .L23
 476 006c 0022     		movs	r2, #0
 477 006e DA65     		str	r2, [r3, #92]
 124:Drivers/STM32WBxx_HAL_Driver/Src/stm32wbxx_hal_pwr.c ****   LL_PWR_WriteReg(C2CR1, PWR_C2CR1_RESET_VALUE);
 478              		.loc 1 124 3
 479 0070 0A4B     		ldr	r3, .L23
 480 0072 0022     		movs	r2, #0
 481 0074 C3F88020 		str	r2, [r3, #128]
 125:Drivers/STM32WBxx_HAL_Driver/Src/stm32wbxx_hal_pwr.c ****   LL_PWR_WriteReg(C2CR3, PWR_C2CR3_RESET_VALUE);
 482              		.loc 1 125 3
 483 0078 084B     		ldr	r3, .L23
 484 007a 4FF40042 		mov	r2, #32768
 485 007e C3F88420 		str	r2, [r3, #132]
 126:Drivers/STM32WBxx_HAL_Driver/Src/stm32wbxx_hal_pwr.c **** 
 127:Drivers/STM32WBxx_HAL_Driver/Src/stm32wbxx_hal_pwr.c ****   /* Clear all flags */
ARM GAS  C:\Users\alanl\AppData\Local\Temp\ccf1ENHg.s 			page 34


 128:Drivers/STM32WBxx_HAL_Driver/Src/stm32wbxx_hal_pwr.c **** #if defined(PWR_CR3_E802A) && defined(PWR_CR5_SMPSEN)
 129:Drivers/STM32WBxx_HAL_Driver/Src/stm32wbxx_hal_pwr.c ****   LL_PWR_WriteReg(SCR,
 486              		.loc 1 129 3
 487 0082 064B     		ldr	r3, .L23
 488 0084 47F69F72 		movw	r2, #32671
 489 0088 9A61     		str	r2, [r3, #24]
 130:Drivers/STM32WBxx_HAL_Driver/Src/stm32wbxx_hal_pwr.c ****                 LL_PWR_SCR_CC2HF
 131:Drivers/STM32WBxx_HAL_Driver/Src/stm32wbxx_hal_pwr.c ****                 | LL_PWR_SCR_CBLEAF
 132:Drivers/STM32WBxx_HAL_Driver/Src/stm32wbxx_hal_pwr.c ****                 | LL_PWR_SCR_CCRPEF
 133:Drivers/STM32WBxx_HAL_Driver/Src/stm32wbxx_hal_pwr.c ****                 | LL_PWR_SCR_C802AF
 134:Drivers/STM32WBxx_HAL_Driver/Src/stm32wbxx_hal_pwr.c ****                 | LL_PWR_SCR_C802WUF
 135:Drivers/STM32WBxx_HAL_Driver/Src/stm32wbxx_hal_pwr.c ****                 | LL_PWR_SCR_CBLEWUF
 136:Drivers/STM32WBxx_HAL_Driver/Src/stm32wbxx_hal_pwr.c ****                 | LL_PWR_SCR_CBORHF
 137:Drivers/STM32WBxx_HAL_Driver/Src/stm32wbxx_hal_pwr.c ****                 | LL_PWR_SCR_CSMPSFBF
 138:Drivers/STM32WBxx_HAL_Driver/Src/stm32wbxx_hal_pwr.c ****                 | LL_PWR_SCR_CWUF);
 139:Drivers/STM32WBxx_HAL_Driver/Src/stm32wbxx_hal_pwr.c **** #elif defined(PWR_CR3_E802A)
 140:Drivers/STM32WBxx_HAL_Driver/Src/stm32wbxx_hal_pwr.c ****   LL_PWR_WriteReg(SCR,
 141:Drivers/STM32WBxx_HAL_Driver/Src/stm32wbxx_hal_pwr.c ****                 LL_PWR_SCR_CC2HF
 142:Drivers/STM32WBxx_HAL_Driver/Src/stm32wbxx_hal_pwr.c ****                 | LL_PWR_SCR_CBLEAF
 143:Drivers/STM32WBxx_HAL_Driver/Src/stm32wbxx_hal_pwr.c ****                 | LL_PWR_SCR_CCRPEF
 144:Drivers/STM32WBxx_HAL_Driver/Src/stm32wbxx_hal_pwr.c ****                 | LL_PWR_SCR_C802AF
 145:Drivers/STM32WBxx_HAL_Driver/Src/stm32wbxx_hal_pwr.c ****                 | LL_PWR_SCR_C802WUF
 146:Drivers/STM32WBxx_HAL_Driver/Src/stm32wbxx_hal_pwr.c ****                 | LL_PWR_SCR_CBLEWUF
 147:Drivers/STM32WBxx_HAL_Driver/Src/stm32wbxx_hal_pwr.c ****                 | LL_PWR_SCR_CWUF);
 148:Drivers/STM32WBxx_HAL_Driver/Src/stm32wbxx_hal_pwr.c **** #elif defined(PWR_CR5_SMPSEN)
 149:Drivers/STM32WBxx_HAL_Driver/Src/stm32wbxx_hal_pwr.c ****   LL_PWR_WriteReg(SCR,
 150:Drivers/STM32WBxx_HAL_Driver/Src/stm32wbxx_hal_pwr.c ****                 LL_PWR_SCR_CC2HF
 151:Drivers/STM32WBxx_HAL_Driver/Src/stm32wbxx_hal_pwr.c ****                 | LL_PWR_SCR_CBLEAF
 152:Drivers/STM32WBxx_HAL_Driver/Src/stm32wbxx_hal_pwr.c ****                 | LL_PWR_SCR_CCRPEF
 153:Drivers/STM32WBxx_HAL_Driver/Src/stm32wbxx_hal_pwr.c ****                 | LL_PWR_SCR_CBLEWUF
 154:Drivers/STM32WBxx_HAL_Driver/Src/stm32wbxx_hal_pwr.c ****                 | LL_PWR_SCR_CBORHF
 155:Drivers/STM32WBxx_HAL_Driver/Src/stm32wbxx_hal_pwr.c ****                 | LL_PWR_SCR_CSMPSFBF
 156:Drivers/STM32WBxx_HAL_Driver/Src/stm32wbxx_hal_pwr.c ****                 | LL_PWR_SCR_CWUF);
 157:Drivers/STM32WBxx_HAL_Driver/Src/stm32wbxx_hal_pwr.c **** #else
 158:Drivers/STM32WBxx_HAL_Driver/Src/stm32wbxx_hal_pwr.c ****   LL_PWR_WriteReg(SCR,
 159:Drivers/STM32WBxx_HAL_Driver/Src/stm32wbxx_hal_pwr.c ****                 LL_PWR_SCR_CC2HF
 160:Drivers/STM32WBxx_HAL_Driver/Src/stm32wbxx_hal_pwr.c ****                 | LL_PWR_SCR_CBLEAF
 161:Drivers/STM32WBxx_HAL_Driver/Src/stm32wbxx_hal_pwr.c ****                 | LL_PWR_SCR_CCRPEF
 162:Drivers/STM32WBxx_HAL_Driver/Src/stm32wbxx_hal_pwr.c ****                 | LL_PWR_SCR_CBLEWUF
 163:Drivers/STM32WBxx_HAL_Driver/Src/stm32wbxx_hal_pwr.c ****                 | LL_PWR_SCR_CWUF);
 164:Drivers/STM32WBxx_HAL_Driver/Src/stm32wbxx_hal_pwr.c **** #endif
 165:Drivers/STM32WBxx_HAL_Driver/Src/stm32wbxx_hal_pwr.c **** 
 166:Drivers/STM32WBxx_HAL_Driver/Src/stm32wbxx_hal_pwr.c ****   LL_PWR_WriteReg(EXTSCR,
 490              		.loc 1 166 3
 491 008a 044B     		ldr	r3, .L23
 492 008c 0722     		movs	r2, #7
 493 008e C3F88820 		str	r2, [r3, #136]
 167:Drivers/STM32WBxx_HAL_Driver/Src/stm32wbxx_hal_pwr.c ****                   LL_PWR_EXTSCR_CCRPF
 168:Drivers/STM32WBxx_HAL_Driver/Src/stm32wbxx_hal_pwr.c ****                   | LL_PWR_EXTSCR_C2CSSF
 169:Drivers/STM32WBxx_HAL_Driver/Src/stm32wbxx_hal_pwr.c ****                   | LL_PWR_EXTSCR_C1CSSF
 170:Drivers/STM32WBxx_HAL_Driver/Src/stm32wbxx_hal_pwr.c ****                  );
 171:Drivers/STM32WBxx_HAL_Driver/Src/stm32wbxx_hal_pwr.c **** }
 494              		.loc 1 171 1
 495 0092 00BF     		nop
 496 0094 BD46     		mov	sp, r7
 497              	.LCFI44:
 498              		.cfi_def_cfa_register 13
ARM GAS  C:\Users\alanl\AppData\Local\Temp\ccf1ENHg.s 			page 35


 499              		@ sp needed
 500 0096 5DF8047B 		ldr	r7, [sp], #4
 501              	.LCFI45:
 502              		.cfi_restore 7
 503              		.cfi_def_cfa_offset 0
 504 009a 7047     		bx	lr
 505              	.L24:
 506              		.align	2
 507              	.L23:
 508 009c 00040058 		.word	1476396032
 509              		.cfi_endproc
 510              	.LFE950:
 512              		.section	.text.HAL_PWR_EnableBkUpAccess,"ax",%progbits
 513              		.align	1
 514              		.global	HAL_PWR_EnableBkUpAccess
 515              		.syntax unified
 516              		.thumb
 517              		.thumb_func
 519              	HAL_PWR_EnableBkUpAccess:
 520              	.LFB951:
 172:Drivers/STM32WBxx_HAL_Driver/Src/stm32wbxx_hal_pwr.c **** 
 173:Drivers/STM32WBxx_HAL_Driver/Src/stm32wbxx_hal_pwr.c **** 
 174:Drivers/STM32WBxx_HAL_Driver/Src/stm32wbxx_hal_pwr.c **** /**
 175:Drivers/STM32WBxx_HAL_Driver/Src/stm32wbxx_hal_pwr.c ****   * @brief  Enable access to the backup domain
 176:Drivers/STM32WBxx_HAL_Driver/Src/stm32wbxx_hal_pwr.c ****   *         (RTC registers, RTC backup data registers).
 177:Drivers/STM32WBxx_HAL_Driver/Src/stm32wbxx_hal_pwr.c ****   * @note   After reset, the backup domain is protected against
 178:Drivers/STM32WBxx_HAL_Driver/Src/stm32wbxx_hal_pwr.c ****   *         possible unwanted write accesses.
 179:Drivers/STM32WBxx_HAL_Driver/Src/stm32wbxx_hal_pwr.c ****   * @note   RTCSEL that sets the RTC clock source selection is in the RTC back-up domain.
 180:Drivers/STM32WBxx_HAL_Driver/Src/stm32wbxx_hal_pwr.c ****   *         In order to set or modify the RTC clock, the backup domain access must be
 181:Drivers/STM32WBxx_HAL_Driver/Src/stm32wbxx_hal_pwr.c ****   *         disabled.
 182:Drivers/STM32WBxx_HAL_Driver/Src/stm32wbxx_hal_pwr.c ****   * @note   LSEON bit that switches on and off the LSE crystal belongs as well to the
 183:Drivers/STM32WBxx_HAL_Driver/Src/stm32wbxx_hal_pwr.c ****   *         back-up domain.
 184:Drivers/STM32WBxx_HAL_Driver/Src/stm32wbxx_hal_pwr.c ****   * @retval None
 185:Drivers/STM32WBxx_HAL_Driver/Src/stm32wbxx_hal_pwr.c ****   */
 186:Drivers/STM32WBxx_HAL_Driver/Src/stm32wbxx_hal_pwr.c **** void HAL_PWR_EnableBkUpAccess(void)
 187:Drivers/STM32WBxx_HAL_Driver/Src/stm32wbxx_hal_pwr.c **** {
 521              		.loc 1 187 1
 522              		.cfi_startproc
 523              		@ args = 0, pretend = 0, frame = 0
 524              		@ frame_needed = 1, uses_anonymous_args = 0
 525              		@ link register save eliminated.
 526 0000 80B4     		push	{r7}
 527              	.LCFI46:
 528              		.cfi_def_cfa_offset 4
 529              		.cfi_offset 7, -4
 530 0002 00AF     		add	r7, sp, #0
 531              	.LCFI47:
 532              		.cfi_def_cfa_register 7
 188:Drivers/STM32WBxx_HAL_Driver/Src/stm32wbxx_hal_pwr.c ****   SET_BIT(PWR->CR1, PWR_CR1_DBP);
 533              		.loc 1 188 3
 534 0004 054B     		ldr	r3, .L26
 535 0006 1B68     		ldr	r3, [r3]
 536 0008 044A     		ldr	r2, .L26
 537 000a 43F48073 		orr	r3, r3, #256
 538 000e 1360     		str	r3, [r2]
 189:Drivers/STM32WBxx_HAL_Driver/Src/stm32wbxx_hal_pwr.c **** }
 539              		.loc 1 189 1
ARM GAS  C:\Users\alanl\AppData\Local\Temp\ccf1ENHg.s 			page 36


 540 0010 00BF     		nop
 541 0012 BD46     		mov	sp, r7
 542              	.LCFI48:
 543              		.cfi_def_cfa_register 13
 544              		@ sp needed
 545 0014 5DF8047B 		ldr	r7, [sp], #4
 546              	.LCFI49:
 547              		.cfi_restore 7
 548              		.cfi_def_cfa_offset 0
 549 0018 7047     		bx	lr
 550              	.L27:
 551 001a 00BF     		.align	2
 552              	.L26:
 553 001c 00040058 		.word	1476396032
 554              		.cfi_endproc
 555              	.LFE951:
 557              		.section	.text.HAL_PWR_DisableBkUpAccess,"ax",%progbits
 558              		.align	1
 559              		.global	HAL_PWR_DisableBkUpAccess
 560              		.syntax unified
 561              		.thumb
 562              		.thumb_func
 564              	HAL_PWR_DisableBkUpAccess:
 565              	.LFB952:
 190:Drivers/STM32WBxx_HAL_Driver/Src/stm32wbxx_hal_pwr.c **** 
 191:Drivers/STM32WBxx_HAL_Driver/Src/stm32wbxx_hal_pwr.c **** /**
 192:Drivers/STM32WBxx_HAL_Driver/Src/stm32wbxx_hal_pwr.c ****   * @brief  Disable access to the backup domain
 193:Drivers/STM32WBxx_HAL_Driver/Src/stm32wbxx_hal_pwr.c ****   *         (RTC registers, RTC backup data registers).
 194:Drivers/STM32WBxx_HAL_Driver/Src/stm32wbxx_hal_pwr.c ****   * @retval None
 195:Drivers/STM32WBxx_HAL_Driver/Src/stm32wbxx_hal_pwr.c ****   */
 196:Drivers/STM32WBxx_HAL_Driver/Src/stm32wbxx_hal_pwr.c **** void HAL_PWR_DisableBkUpAccess(void)
 197:Drivers/STM32WBxx_HAL_Driver/Src/stm32wbxx_hal_pwr.c **** {
 566              		.loc 1 197 1
 567              		.cfi_startproc
 568              		@ args = 0, pretend = 0, frame = 0
 569              		@ frame_needed = 1, uses_anonymous_args = 0
 570              		@ link register save eliminated.
 571 0000 80B4     		push	{r7}
 572              	.LCFI50:
 573              		.cfi_def_cfa_offset 4
 574              		.cfi_offset 7, -4
 575 0002 00AF     		add	r7, sp, #0
 576              	.LCFI51:
 577              		.cfi_def_cfa_register 7
 198:Drivers/STM32WBxx_HAL_Driver/Src/stm32wbxx_hal_pwr.c ****   CLEAR_BIT(PWR->CR1, PWR_CR1_DBP);
 578              		.loc 1 198 3
 579 0004 054B     		ldr	r3, .L29
 580 0006 1B68     		ldr	r3, [r3]
 581 0008 044A     		ldr	r2, .L29
 582 000a 23F48073 		bic	r3, r3, #256
 583 000e 1360     		str	r3, [r2]
 199:Drivers/STM32WBxx_HAL_Driver/Src/stm32wbxx_hal_pwr.c **** }
 584              		.loc 1 199 1
 585 0010 00BF     		nop
 586 0012 BD46     		mov	sp, r7
 587              	.LCFI52:
 588              		.cfi_def_cfa_register 13
ARM GAS  C:\Users\alanl\AppData\Local\Temp\ccf1ENHg.s 			page 37


 589              		@ sp needed
 590 0014 5DF8047B 		ldr	r7, [sp], #4
 591              	.LCFI53:
 592              		.cfi_restore 7
 593              		.cfi_def_cfa_offset 0
 594 0018 7047     		bx	lr
 595              	.L30:
 596 001a 00BF     		.align	2
 597              	.L29:
 598 001c 00040058 		.word	1476396032
 599              		.cfi_endproc
 600              	.LFE952:
 602              		.section	.text.HAL_PWR_ConfigPVD,"ax",%progbits
 603              		.align	1
 604              		.global	HAL_PWR_ConfigPVD
 605              		.syntax unified
 606              		.thumb
 607              		.thumb_func
 609              	HAL_PWR_ConfigPVD:
 610              	.LFB953:
 200:Drivers/STM32WBxx_HAL_Driver/Src/stm32wbxx_hal_pwr.c **** 
 201:Drivers/STM32WBxx_HAL_Driver/Src/stm32wbxx_hal_pwr.c **** /**
 202:Drivers/STM32WBxx_HAL_Driver/Src/stm32wbxx_hal_pwr.c ****   * @}
 203:Drivers/STM32WBxx_HAL_Driver/Src/stm32wbxx_hal_pwr.c ****   */
 204:Drivers/STM32WBxx_HAL_Driver/Src/stm32wbxx_hal_pwr.c **** 
 205:Drivers/STM32WBxx_HAL_Driver/Src/stm32wbxx_hal_pwr.c **** 
 206:Drivers/STM32WBxx_HAL_Driver/Src/stm32wbxx_hal_pwr.c **** /** @addtogroup PWR_Exported_Functions_Group2  Peripheral Control functions
 207:Drivers/STM32WBxx_HAL_Driver/Src/stm32wbxx_hal_pwr.c ****   *  @brief Low Power modes configuration functions
 208:Drivers/STM32WBxx_HAL_Driver/Src/stm32wbxx_hal_pwr.c ****   *
 209:Drivers/STM32WBxx_HAL_Driver/Src/stm32wbxx_hal_pwr.c **** @verbatim
 210:Drivers/STM32WBxx_HAL_Driver/Src/stm32wbxx_hal_pwr.c **** 
 211:Drivers/STM32WBxx_HAL_Driver/Src/stm32wbxx_hal_pwr.c ****  ===============================================================================
 212:Drivers/STM32WBxx_HAL_Driver/Src/stm32wbxx_hal_pwr.c ****                  ##### Peripheral Control functions #####
 213:Drivers/STM32WBxx_HAL_Driver/Src/stm32wbxx_hal_pwr.c ****  ===============================================================================
 214:Drivers/STM32WBxx_HAL_Driver/Src/stm32wbxx_hal_pwr.c **** 
 215:Drivers/STM32WBxx_HAL_Driver/Src/stm32wbxx_hal_pwr.c ****     [..]
 216:Drivers/STM32WBxx_HAL_Driver/Src/stm32wbxx_hal_pwr.c ****      *** PVD configuration ***
 217:Drivers/STM32WBxx_HAL_Driver/Src/stm32wbxx_hal_pwr.c ****     =========================
 218:Drivers/STM32WBxx_HAL_Driver/Src/stm32wbxx_hal_pwr.c ****     [..]
 219:Drivers/STM32WBxx_HAL_Driver/Src/stm32wbxx_hal_pwr.c ****       (+) The PVD is used to monitor the VDD power supply by comparing it to a
 220:Drivers/STM32WBxx_HAL_Driver/Src/stm32wbxx_hal_pwr.c ****           threshold selected by the PVD Level (PLS[2:0] bits in PWR_CR2 register).
 221:Drivers/STM32WBxx_HAL_Driver/Src/stm32wbxx_hal_pwr.c ****       (+) PVDO flag is available to indicate if VDD/VDDA is higher or lower
 222:Drivers/STM32WBxx_HAL_Driver/Src/stm32wbxx_hal_pwr.c ****           than the PVD threshold. This event is internally connected to the EXTI
 223:Drivers/STM32WBxx_HAL_Driver/Src/stm32wbxx_hal_pwr.c ****           line16 and can generate an interrupt if enabled. This is done through
 224:Drivers/STM32WBxx_HAL_Driver/Src/stm32wbxx_hal_pwr.c ****           __HAL_PVD_EXTI_ENABLE_IT() macro.
 225:Drivers/STM32WBxx_HAL_Driver/Src/stm32wbxx_hal_pwr.c ****       (+) The PVD is stopped in Standby mode.
 226:Drivers/STM32WBxx_HAL_Driver/Src/stm32wbxx_hal_pwr.c **** 
 227:Drivers/STM32WBxx_HAL_Driver/Src/stm32wbxx_hal_pwr.c ****     *** WakeUp pin configuration ***
 228:Drivers/STM32WBxx_HAL_Driver/Src/stm32wbxx_hal_pwr.c ****     ================================
 229:Drivers/STM32WBxx_HAL_Driver/Src/stm32wbxx_hal_pwr.c ****     [..]
 230:Drivers/STM32WBxx_HAL_Driver/Src/stm32wbxx_hal_pwr.c ****       (+) WakeUp pins are used to wakeup the system from Standby mode or Shutdown mode.
 231:Drivers/STM32WBxx_HAL_Driver/Src/stm32wbxx_hal_pwr.c ****           The polarity of these pins can be set to configure event detection on high
 232:Drivers/STM32WBxx_HAL_Driver/Src/stm32wbxx_hal_pwr.c ****           level (rising edge) or low level (falling edge).
 233:Drivers/STM32WBxx_HAL_Driver/Src/stm32wbxx_hal_pwr.c **** 
 234:Drivers/STM32WBxx_HAL_Driver/Src/stm32wbxx_hal_pwr.c ****     *** Low Power modes configuration ***
 235:Drivers/STM32WBxx_HAL_Driver/Src/stm32wbxx_hal_pwr.c ****     =====================================
 236:Drivers/STM32WBxx_HAL_Driver/Src/stm32wbxx_hal_pwr.c ****     [..]
ARM GAS  C:\Users\alanl\AppData\Local\Temp\ccf1ENHg.s 			page 38


 237:Drivers/STM32WBxx_HAL_Driver/Src/stm32wbxx_hal_pwr.c ****       The devices feature 8 low-power modes:
 238:Drivers/STM32WBxx_HAL_Driver/Src/stm32wbxx_hal_pwr.c **** 
 239:Drivers/STM32WBxx_HAL_Driver/Src/stm32wbxx_hal_pwr.c ****       (+) Low-power Run mode: core and peripherals are running, main regulator off, low power regul
 240:Drivers/STM32WBxx_HAL_Driver/Src/stm32wbxx_hal_pwr.c **** 
 241:Drivers/STM32WBxx_HAL_Driver/Src/stm32wbxx_hal_pwr.c ****       (+) Sleep mode: Cortex-M4 core stopped, peripherals kept running, main and low power regulato
 242:Drivers/STM32WBxx_HAL_Driver/Src/stm32wbxx_hal_pwr.c ****       (+) Low-power Sleep mode: Cortex-M4 core stopped, peripherals kept running, main regulator of
 243:Drivers/STM32WBxx_HAL_Driver/Src/stm32wbxx_hal_pwr.c **** 
 244:Drivers/STM32WBxx_HAL_Driver/Src/stm32wbxx_hal_pwr.c ****       (+) Stop 0 mode: all clocks are stopped except LSI and LSE, main and low power regulators on.
 245:Drivers/STM32WBxx_HAL_Driver/Src/stm32wbxx_hal_pwr.c ****       (+) Stop 1 mode: all clocks are stopped except LSI and LSE, main regulator off, low power reg
 246:Drivers/STM32WBxx_HAL_Driver/Src/stm32wbxx_hal_pwr.c ****       (+) Stop 2 mode: all clocks are stopped except LSI and LSE, main regulator off, low power reg
 247:Drivers/STM32WBxx_HAL_Driver/Src/stm32wbxx_hal_pwr.c **** 
 248:Drivers/STM32WBxx_HAL_Driver/Src/stm32wbxx_hal_pwr.c ****       (+) Standby mode with SRAM2a: all clocks are stopped except LSI and LSE, SRAM2a content prese
 249:Drivers/STM32WBxx_HAL_Driver/Src/stm32wbxx_hal_pwr.c ****           Note: On devices STM32WB15xx, STM32WB10xx, STM32WB1Mxx retention is extended to SRAM1, SR
 250:Drivers/STM32WBxx_HAL_Driver/Src/stm32wbxx_hal_pwr.c ****       (+) Standby mode without SRAM2a: all clocks are stopped except LSI and LSE, main and low powe
 251:Drivers/STM32WBxx_HAL_Driver/Src/stm32wbxx_hal_pwr.c **** 
 252:Drivers/STM32WBxx_HAL_Driver/Src/stm32wbxx_hal_pwr.c ****       (+) Shutdown mode: all clocks are stopped except LSE, main and low power regulators off.
 253:Drivers/STM32WBxx_HAL_Driver/Src/stm32wbxx_hal_pwr.c **** 
 254:Drivers/STM32WBxx_HAL_Driver/Src/stm32wbxx_hal_pwr.c **** 
 255:Drivers/STM32WBxx_HAL_Driver/Src/stm32wbxx_hal_pwr.c ****    *** Low-power run mode ***
 256:Drivers/STM32WBxx_HAL_Driver/Src/stm32wbxx_hal_pwr.c ****    ==========================
 257:Drivers/STM32WBxx_HAL_Driver/Src/stm32wbxx_hal_pwr.c ****     [..]
 258:Drivers/STM32WBxx_HAL_Driver/Src/stm32wbxx_hal_pwr.c ****       (+) Entry: (from main run mode)
 259:Drivers/STM32WBxx_HAL_Driver/Src/stm32wbxx_hal_pwr.c ****           (++) set LPR bit with HAL_PWREx_EnableLowPowerRunMode() API after having decreased the sy
 260:Drivers/STM32WBxx_HAL_Driver/Src/stm32wbxx_hal_pwr.c ****       (+) Exit:
 261:Drivers/STM32WBxx_HAL_Driver/Src/stm32wbxx_hal_pwr.c ****           (++) clear LPR bit then wait for REGLP bit to be reset with HAL_PWREx_DisableLowPowerRunM
 262:Drivers/STM32WBxx_HAL_Driver/Src/stm32wbxx_hal_pwr.c ****                then can the system clock frequency be increased above 2 MHz.
 263:Drivers/STM32WBxx_HAL_Driver/Src/stm32wbxx_hal_pwr.c **** 
 264:Drivers/STM32WBxx_HAL_Driver/Src/stm32wbxx_hal_pwr.c ****    *** Sleep mode / Low-power sleep mode ***
 265:Drivers/STM32WBxx_HAL_Driver/Src/stm32wbxx_hal_pwr.c ****    =========================================
 266:Drivers/STM32WBxx_HAL_Driver/Src/stm32wbxx_hal_pwr.c ****     [..]
 267:Drivers/STM32WBxx_HAL_Driver/Src/stm32wbxx_hal_pwr.c ****       (+) Entry:
 268:Drivers/STM32WBxx_HAL_Driver/Src/stm32wbxx_hal_pwr.c ****           The Sleep mode / Low-power Sleep mode is entered thru HAL_PWR_EnterSLEEPMode() API
 269:Drivers/STM32WBxx_HAL_Driver/Src/stm32wbxx_hal_pwr.c ****           in specifying whether or not the regulator is forced to low-power mode and if exit is int
 270:Drivers/STM32WBxx_HAL_Driver/Src/stm32wbxx_hal_pwr.c ****           (++) PWR_MAINREGULATOR_ON: Sleep mode (regulator in main mode).
 271:Drivers/STM32WBxx_HAL_Driver/Src/stm32wbxx_hal_pwr.c ****           (++) PWR_LOWPOWERREGULATOR_ON: Low-power sleep (regulator in low power mode).
 272:Drivers/STM32WBxx_HAL_Driver/Src/stm32wbxx_hal_pwr.c ****           In the latter case, the system clock frequency must have been decreased below 2 MHz befor
 273:Drivers/STM32WBxx_HAL_Driver/Src/stm32wbxx_hal_pwr.c ****           (++) PWR_SLEEPENTRY_WFI: enter SLEEP mode with WFI instruction
 274:Drivers/STM32WBxx_HAL_Driver/Src/stm32wbxx_hal_pwr.c ****           (++) PWR_SLEEPENTRY_WFE: enter SLEEP mode with WFE instruction
 275:Drivers/STM32WBxx_HAL_Driver/Src/stm32wbxx_hal_pwr.c **** 
 276:Drivers/STM32WBxx_HAL_Driver/Src/stm32wbxx_hal_pwr.c ****       (+) WFI Exit:
 277:Drivers/STM32WBxx_HAL_Driver/Src/stm32wbxx_hal_pwr.c ****         (++) Any peripheral interrupt acknowledged by the nested vectored interrupt
 278:Drivers/STM32WBxx_HAL_Driver/Src/stm32wbxx_hal_pwr.c ****              controller (NVIC) or any wake-up event.
 279:Drivers/STM32WBxx_HAL_Driver/Src/stm32wbxx_hal_pwr.c **** 
 280:Drivers/STM32WBxx_HAL_Driver/Src/stm32wbxx_hal_pwr.c ****       (+) WFE Exit:
 281:Drivers/STM32WBxx_HAL_Driver/Src/stm32wbxx_hal_pwr.c ****         (++) Any wake-up event such as an EXTI line configured in event mode.
 282:Drivers/STM32WBxx_HAL_Driver/Src/stm32wbxx_hal_pwr.c **** 
 283:Drivers/STM32WBxx_HAL_Driver/Src/stm32wbxx_hal_pwr.c ****     [..]  When exiting the Low-power sleep mode by issuing an interrupt or a wakeup event,
 284:Drivers/STM32WBxx_HAL_Driver/Src/stm32wbxx_hal_pwr.c ****           the MCU is in Low-power Run mode.
 285:Drivers/STM32WBxx_HAL_Driver/Src/stm32wbxx_hal_pwr.c **** 
 286:Drivers/STM32WBxx_HAL_Driver/Src/stm32wbxx_hal_pwr.c ****    *** Stop 0, Stop 1 and Stop 2 modes ***
 287:Drivers/STM32WBxx_HAL_Driver/Src/stm32wbxx_hal_pwr.c ****    ===============================
 288:Drivers/STM32WBxx_HAL_Driver/Src/stm32wbxx_hal_pwr.c ****     [..]
 289:Drivers/STM32WBxx_HAL_Driver/Src/stm32wbxx_hal_pwr.c ****       (+) Entry:
 290:Drivers/STM32WBxx_HAL_Driver/Src/stm32wbxx_hal_pwr.c ****           The Stop 0, Stop 1 or Stop 2 modes are entered thru the following API's:
 291:Drivers/STM32WBxx_HAL_Driver/Src/stm32wbxx_hal_pwr.c ****           (++) HAL_PWREx_EnterSTOP0Mode() for mode 0, HAL_PWREx_EnterSTOP1Mode() for mode 1, HAL_PW
 292:Drivers/STM32WBxx_HAL_Driver/Src/stm32wbxx_hal_pwr.c ****                or for porting reasons HAL_PWR_EnterSTOPMode().
 293:Drivers/STM32WBxx_HAL_Driver/Src/stm32wbxx_hal_pwr.c ****                Note: Low power Stop2 mode is not available on devices STM32WB15xx, STM32WB10xx, STM
ARM GAS  C:\Users\alanl\AppData\Local\Temp\ccf1ENHg.s 			page 39


 294:Drivers/STM32WBxx_HAL_Driver/Src/stm32wbxx_hal_pwr.c **** 
 295:Drivers/STM32WBxx_HAL_Driver/Src/stm32wbxx_hal_pwr.c ****       (+) Regulator setting (applicable to HAL_PWR_EnterSTOPMode() only):
 296:Drivers/STM32WBxx_HAL_Driver/Src/stm32wbxx_hal_pwr.c ****           (++) PWR_MAINREGULATOR_ON: Regulator in main mode (STOP0 mode)
 297:Drivers/STM32WBxx_HAL_Driver/Src/stm32wbxx_hal_pwr.c ****           (++) PWR_LOWPOWERREGULATOR_ON: Regulator in low-power mode (STOP1 mode)
 298:Drivers/STM32WBxx_HAL_Driver/Src/stm32wbxx_hal_pwr.c ****       (+) Exit (interrupt or event-triggered, specified when entering STOP mode):
 299:Drivers/STM32WBxx_HAL_Driver/Src/stm32wbxx_hal_pwr.c ****           (++) PWR_STOPENTRY_WFI: enter Stop mode with WFI instruction
 300:Drivers/STM32WBxx_HAL_Driver/Src/stm32wbxx_hal_pwr.c ****           (++) PWR_STOPENTRY_WFE: enter Stop mode with WFE instruction
 301:Drivers/STM32WBxx_HAL_Driver/Src/stm32wbxx_hal_pwr.c ****       (+) WFI Exit:
 302:Drivers/STM32WBxx_HAL_Driver/Src/stm32wbxx_hal_pwr.c ****           (++) Any EXTI Line (Internal or External) configured in Interrupt mode.
 303:Drivers/STM32WBxx_HAL_Driver/Src/stm32wbxx_hal_pwr.c ****           (++) Some specific communication peripherals (USART, LPUART, I2C) interrupts
 304:Drivers/STM32WBxx_HAL_Driver/Src/stm32wbxx_hal_pwr.c ****                when programmed in wakeup mode.
 305:Drivers/STM32WBxx_HAL_Driver/Src/stm32wbxx_hal_pwr.c ****       (+) WFE Exit:
 306:Drivers/STM32WBxx_HAL_Driver/Src/stm32wbxx_hal_pwr.c ****           (++) Any EXTI Line (Internal or External) configured in Event mode.
 307:Drivers/STM32WBxx_HAL_Driver/Src/stm32wbxx_hal_pwr.c **** 
 308:Drivers/STM32WBxx_HAL_Driver/Src/stm32wbxx_hal_pwr.c ****        [..]
 309:Drivers/STM32WBxx_HAL_Driver/Src/stm32wbxx_hal_pwr.c ****           When exiting Stop 0 and Stop 1 modes, the MCU is either in Run mode or in Low-power Run m
 310:Drivers/STM32WBxx_HAL_Driver/Src/stm32wbxx_hal_pwr.c ****           depending on the LPR bit setting.
 311:Drivers/STM32WBxx_HAL_Driver/Src/stm32wbxx_hal_pwr.c ****           When exiting Stop 2 mode, the MCU is in Run mode.
 312:Drivers/STM32WBxx_HAL_Driver/Src/stm32wbxx_hal_pwr.c **** 
 313:Drivers/STM32WBxx_HAL_Driver/Src/stm32wbxx_hal_pwr.c ****    *** Standby mode ***
 314:Drivers/STM32WBxx_HAL_Driver/Src/stm32wbxx_hal_pwr.c ****    ====================
 315:Drivers/STM32WBxx_HAL_Driver/Src/stm32wbxx_hal_pwr.c ****     [..] The Standby mode offers two options:
 316:Drivers/STM32WBxx_HAL_Driver/Src/stm32wbxx_hal_pwr.c ****       (+) option a) all clocks off except LSI and LSE, RRS bit set (keeps voltage regulator in low 
 317:Drivers/STM32WBxx_HAL_Driver/Src/stm32wbxx_hal_pwr.c ****           SRAM and registers contents are lost except for the SRAM2 content, the RTC registers, RTC
 318:Drivers/STM32WBxx_HAL_Driver/Src/stm32wbxx_hal_pwr.c ****           and Standby circuitry.
 319:Drivers/STM32WBxx_HAL_Driver/Src/stm32wbxx_hal_pwr.c ****       (+) option b) all clocks off except LSI and LSE, RRS bit cleared (voltage regulator then disa
 320:Drivers/STM32WBxx_HAL_Driver/Src/stm32wbxx_hal_pwr.c ****           SRAM and register contents are lost except for the RTC registers, RTC backup registers
 321:Drivers/STM32WBxx_HAL_Driver/Src/stm32wbxx_hal_pwr.c ****           and Standby circuitry.
 322:Drivers/STM32WBxx_HAL_Driver/Src/stm32wbxx_hal_pwr.c **** 
 323:Drivers/STM32WBxx_HAL_Driver/Src/stm32wbxx_hal_pwr.c ****       (++) Entry:
 324:Drivers/STM32WBxx_HAL_Driver/Src/stm32wbxx_hal_pwr.c ****           (+++) The Standby mode is entered thru HAL_PWR_EnterSTANDBYMode() API.
 325:Drivers/STM32WBxx_HAL_Driver/Src/stm32wbxx_hal_pwr.c ****                 SRAM1 and register contents are lost except for registers in the Backup domain and
 326:Drivers/STM32WBxx_HAL_Driver/Src/stm32wbxx_hal_pwr.c ****                 Standby circuitry. SRAM2 content can be preserved if the bit RRS is set in PWR_CR3 
 327:Drivers/STM32WBxx_HAL_Driver/Src/stm32wbxx_hal_pwr.c ****                 To enable this feature, the user can resort to HAL_PWREx_EnableBKRAMContentRetentio
 328:Drivers/STM32WBxx_HAL_Driver/Src/stm32wbxx_hal_pwr.c ****                 to set RRS bit.
 329:Drivers/STM32WBxx_HAL_Driver/Src/stm32wbxx_hal_pwr.c ****       (++) Exit:
 330:Drivers/STM32WBxx_HAL_Driver/Src/stm32wbxx_hal_pwr.c ****           (+++) WKUP pin rising edge, RTC alarm or wakeup, tamper event, time-stamp event,
 331:Drivers/STM32WBxx_HAL_Driver/Src/stm32wbxx_hal_pwr.c ****                 external reset in NRST pin, IWDG reset.
 332:Drivers/STM32WBxx_HAL_Driver/Src/stm32wbxx_hal_pwr.c ****     [..] After waking up from Standby mode, program execution restarts in the same way as after a R
 333:Drivers/STM32WBxx_HAL_Driver/Src/stm32wbxx_hal_pwr.c **** 
 334:Drivers/STM32WBxx_HAL_Driver/Src/stm32wbxx_hal_pwr.c **** 
 335:Drivers/STM32WBxx_HAL_Driver/Src/stm32wbxx_hal_pwr.c ****     *** Shutdown mode ***
 336:Drivers/STM32WBxx_HAL_Driver/Src/stm32wbxx_hal_pwr.c ****    ======================
 337:Drivers/STM32WBxx_HAL_Driver/Src/stm32wbxx_hal_pwr.c ****     [..]
 338:Drivers/STM32WBxx_HAL_Driver/Src/stm32wbxx_hal_pwr.c ****       In Shutdown mode,
 339:Drivers/STM32WBxx_HAL_Driver/Src/stm32wbxx_hal_pwr.c ****         voltage regulator is disabled, all clocks are off except LSE, RRS bit is cleared.
 340:Drivers/STM32WBxx_HAL_Driver/Src/stm32wbxx_hal_pwr.c ****         SRAM and registers contents are lost except for backup domain registers.
 341:Drivers/STM32WBxx_HAL_Driver/Src/stm32wbxx_hal_pwr.c ****       (+) Entry:
 342:Drivers/STM32WBxx_HAL_Driver/Src/stm32wbxx_hal_pwr.c ****           The Shutdown mode is entered thru HAL_PWREx_EnterSHUTDOWNMode() API.
 343:Drivers/STM32WBxx_HAL_Driver/Src/stm32wbxx_hal_pwr.c ****       (+) Exit:
 344:Drivers/STM32WBxx_HAL_Driver/Src/stm32wbxx_hal_pwr.c ****           (++) WKUP pin rising edge, RTC alarm or wakeup, tamper event, time-stamp event,
 345:Drivers/STM32WBxx_HAL_Driver/Src/stm32wbxx_hal_pwr.c ****                external reset in NRST pin.
 346:Drivers/STM32WBxx_HAL_Driver/Src/stm32wbxx_hal_pwr.c ****     [..] After waking up from Shutdown mode, program execution restarts in the same way as after a 
 347:Drivers/STM32WBxx_HAL_Driver/Src/stm32wbxx_hal_pwr.c **** 
 348:Drivers/STM32WBxx_HAL_Driver/Src/stm32wbxx_hal_pwr.c **** 
 349:Drivers/STM32WBxx_HAL_Driver/Src/stm32wbxx_hal_pwr.c ****    *** Auto-wakeup (AWU) from low-power mode ***
 350:Drivers/STM32WBxx_HAL_Driver/Src/stm32wbxx_hal_pwr.c ****    =============================================
ARM GAS  C:\Users\alanl\AppData\Local\Temp\ccf1ENHg.s 			page 40


 351:Drivers/STM32WBxx_HAL_Driver/Src/stm32wbxx_hal_pwr.c ****     [..]
 352:Drivers/STM32WBxx_HAL_Driver/Src/stm32wbxx_hal_pwr.c ****       The MCU can be woken up from low-power mode by an RTC Alarm event, an RTC
 353:Drivers/STM32WBxx_HAL_Driver/Src/stm32wbxx_hal_pwr.c ****       Wakeup event, a tamper event or a time-stamp event, without depending on
 354:Drivers/STM32WBxx_HAL_Driver/Src/stm32wbxx_hal_pwr.c ****       an external interrupt (Auto-wakeup mode).
 355:Drivers/STM32WBxx_HAL_Driver/Src/stm32wbxx_hal_pwr.c **** 
 356:Drivers/STM32WBxx_HAL_Driver/Src/stm32wbxx_hal_pwr.c ****       (+) RTC auto-wakeup (AWU) from the Stop, Standby and Shutdown modes
 357:Drivers/STM32WBxx_HAL_Driver/Src/stm32wbxx_hal_pwr.c **** 
 358:Drivers/STM32WBxx_HAL_Driver/Src/stm32wbxx_hal_pwr.c **** 
 359:Drivers/STM32WBxx_HAL_Driver/Src/stm32wbxx_hal_pwr.c ****         (++) To wake up from the Stop mode with an RTC alarm event, it is necessary to
 360:Drivers/STM32WBxx_HAL_Driver/Src/stm32wbxx_hal_pwr.c ****              configure the RTC to generate the RTC alarm using the HAL_RTC_SetAlarm_IT() function.
 361:Drivers/STM32WBxx_HAL_Driver/Src/stm32wbxx_hal_pwr.c **** 
 362:Drivers/STM32WBxx_HAL_Driver/Src/stm32wbxx_hal_pwr.c ****         (++) To wake up from the Stop mode with an RTC Tamper or time stamp event, it
 363:Drivers/STM32WBxx_HAL_Driver/Src/stm32wbxx_hal_pwr.c ****              is necessary to configure the RTC to detect the tamper or time stamp event using the
 364:Drivers/STM32WBxx_HAL_Driver/Src/stm32wbxx_hal_pwr.c ****              HAL_RTCEx_SetTimeStamp_IT() or HAL_RTCEx_SetTamper_IT() functions.
 365:Drivers/STM32WBxx_HAL_Driver/Src/stm32wbxx_hal_pwr.c **** 
 366:Drivers/STM32WBxx_HAL_Driver/Src/stm32wbxx_hal_pwr.c ****         (++) To wake up from the Stop mode with an RTC WakeUp event, it is necessary to
 367:Drivers/STM32WBxx_HAL_Driver/Src/stm32wbxx_hal_pwr.c ****               configure the RTC to generate the RTC WakeUp event using the HAL_RTCEx_SetWakeUpTimer
 368:Drivers/STM32WBxx_HAL_Driver/Src/stm32wbxx_hal_pwr.c **** 
 369:Drivers/STM32WBxx_HAL_Driver/Src/stm32wbxx_hal_pwr.c **** @endverbatim
 370:Drivers/STM32WBxx_HAL_Driver/Src/stm32wbxx_hal_pwr.c ****   * @{
 371:Drivers/STM32WBxx_HAL_Driver/Src/stm32wbxx_hal_pwr.c ****   */
 372:Drivers/STM32WBxx_HAL_Driver/Src/stm32wbxx_hal_pwr.c **** 
 373:Drivers/STM32WBxx_HAL_Driver/Src/stm32wbxx_hal_pwr.c **** /**
 374:Drivers/STM32WBxx_HAL_Driver/Src/stm32wbxx_hal_pwr.c ****   * @brief  Configure the voltage threshold detected by the Power Voltage Detector (PVD).
 375:Drivers/STM32WBxx_HAL_Driver/Src/stm32wbxx_hal_pwr.c ****   * @param sConfigPVD pointer to a PWR_PVDTypeDef structure that contains the PVD
 376:Drivers/STM32WBxx_HAL_Driver/Src/stm32wbxx_hal_pwr.c ****   *         configuration information.
 377:Drivers/STM32WBxx_HAL_Driver/Src/stm32wbxx_hal_pwr.c ****   * @note   Refer to the electrical characteristics of your device datasheet for
 378:Drivers/STM32WBxx_HAL_Driver/Src/stm32wbxx_hal_pwr.c ****   *         more details about the voltage thresholds corresponding to each
 379:Drivers/STM32WBxx_HAL_Driver/Src/stm32wbxx_hal_pwr.c ****   *         detection level.
 380:Drivers/STM32WBxx_HAL_Driver/Src/stm32wbxx_hal_pwr.c ****   * @note   If "sConfigPVD->Mode" is set to PVD_MODE_IT,
 381:Drivers/STM32WBxx_HAL_Driver/Src/stm32wbxx_hal_pwr.c ****   *         wake-up target is set by default to wake-up target CPU1.
 382:Drivers/STM32WBxx_HAL_Driver/Src/stm32wbxx_hal_pwr.c ****   *         To select wake-up target to CPU2, additional configuration must be
 383:Drivers/STM32WBxx_HAL_Driver/Src/stm32wbxx_hal_pwr.c ****   *         performed using macro "__HAL_PWR_PVD_EXTIC2_ENABLE_IT()"
 384:Drivers/STM32WBxx_HAL_Driver/Src/stm32wbxx_hal_pwr.c ****   *         (and optionally, to select CPU2 only (not both CPU1 and CPU2):
 385:Drivers/STM32WBxx_HAL_Driver/Src/stm32wbxx_hal_pwr.c ****   *         "__HAL_PWR_PVD_EXTI_DISABLE_IT()").
 386:Drivers/STM32WBxx_HAL_Driver/Src/stm32wbxx_hal_pwr.c ****   * @retval None
 387:Drivers/STM32WBxx_HAL_Driver/Src/stm32wbxx_hal_pwr.c ****   */
 388:Drivers/STM32WBxx_HAL_Driver/Src/stm32wbxx_hal_pwr.c **** HAL_StatusTypeDef HAL_PWR_ConfigPVD(PWR_PVDTypeDef *sConfigPVD)
 389:Drivers/STM32WBxx_HAL_Driver/Src/stm32wbxx_hal_pwr.c **** {
 611              		.loc 1 389 1
 612              		.cfi_startproc
 613              		@ args = 0, pretend = 0, frame = 8
 614              		@ frame_needed = 1, uses_anonymous_args = 0
 615 0000 80B5     		push	{r7, lr}
 616              	.LCFI54:
 617              		.cfi_def_cfa_offset 8
 618              		.cfi_offset 7, -8
 619              		.cfi_offset 14, -4
 620 0002 82B0     		sub	sp, sp, #8
 621              	.LCFI55:
 622              		.cfi_def_cfa_offset 16
 623 0004 00AF     		add	r7, sp, #0
 624              	.LCFI56:
 625              		.cfi_def_cfa_register 7
 626 0006 7860     		str	r0, [r7, #4]
 390:Drivers/STM32WBxx_HAL_Driver/Src/stm32wbxx_hal_pwr.c ****   /* Check the parameters */
 391:Drivers/STM32WBxx_HAL_Driver/Src/stm32wbxx_hal_pwr.c ****   assert_param(IS_PWR_PVD_LEVEL(sConfigPVD->PVDLevel));
ARM GAS  C:\Users\alanl\AppData\Local\Temp\ccf1ENHg.s 			page 41


 392:Drivers/STM32WBxx_HAL_Driver/Src/stm32wbxx_hal_pwr.c ****   assert_param(IS_PWR_PVD_MODE(sConfigPVD->Mode));
 393:Drivers/STM32WBxx_HAL_Driver/Src/stm32wbxx_hal_pwr.c **** 
 394:Drivers/STM32WBxx_HAL_Driver/Src/stm32wbxx_hal_pwr.c ****   /* Set PLS bits according to PVDLevel value */
 395:Drivers/STM32WBxx_HAL_Driver/Src/stm32wbxx_hal_pwr.c ****   MODIFY_REG(PWR->CR2, PWR_CR2_PLS, sConfigPVD->PVDLevel);
 627              		.loc 1 395 3
 628 0008 1D4B     		ldr	r3, .L36
 629 000a 5B68     		ldr	r3, [r3, #4]
 630 000c 23F00E02 		bic	r2, r3, #14
 631 0010 7B68     		ldr	r3, [r7, #4]
 632 0012 1B68     		ldr	r3, [r3]
 633 0014 1A49     		ldr	r1, .L36
 634 0016 1343     		orrs	r3, r3, r2
 635 0018 4B60     		str	r3, [r1, #4]
 396:Drivers/STM32WBxx_HAL_Driver/Src/stm32wbxx_hal_pwr.c **** 
 397:Drivers/STM32WBxx_HAL_Driver/Src/stm32wbxx_hal_pwr.c ****   /* Clear any previous config. Keep it clear if no event or IT mode is selected */
 398:Drivers/STM32WBxx_HAL_Driver/Src/stm32wbxx_hal_pwr.c **** 
 399:Drivers/STM32WBxx_HAL_Driver/Src/stm32wbxx_hal_pwr.c ****   /* Note: On STM32WB series, power PVD event is not available on AIEC lines   */
 400:Drivers/STM32WBxx_HAL_Driver/Src/stm32wbxx_hal_pwr.c ****   /*       (only interruption is available through AIEC line 16).             */
 401:Drivers/STM32WBxx_HAL_Driver/Src/stm32wbxx_hal_pwr.c ****   __HAL_PWR_PVD_EXTI_DISABLE_IT();      /*CPU1*/
 636              		.loc 1 401 3
 637 001a 4FF48030 		mov	r0, #65536
 638 001e FFF7FEFF 		bl	LL_EXTI_DisableIT_0_31
 402:Drivers/STM32WBxx_HAL_Driver/Src/stm32wbxx_hal_pwr.c ****   __HAL_PWR_PVD_EXTIC2_DISABLE_IT();    /*CPU2*/
 639              		.loc 1 402 3
 640 0022 4FF48030 		mov	r0, #65536
 641 0026 FFF7FEFF 		bl	LL_C2_EXTI_DisableIT_0_31
 403:Drivers/STM32WBxx_HAL_Driver/Src/stm32wbxx_hal_pwr.c **** 
 404:Drivers/STM32WBxx_HAL_Driver/Src/stm32wbxx_hal_pwr.c ****   __HAL_PWR_PVD_EXTI_DISABLE_RISING_EDGE();
 642              		.loc 1 404 3
 643 002a 4FF48030 		mov	r0, #65536
 644 002e FFF7FEFF 		bl	LL_EXTI_DisableFallingTrig_0_31
 405:Drivers/STM32WBxx_HAL_Driver/Src/stm32wbxx_hal_pwr.c ****   __HAL_PWR_PVD_EXTI_DISABLE_FALLING_EDGE();
 645              		.loc 1 405 3
 646 0032 4FF48030 		mov	r0, #65536
 647 0036 FFF7FEFF 		bl	LL_EXTI_DisableRisingTrig_0_31
 406:Drivers/STM32WBxx_HAL_Driver/Src/stm32wbxx_hal_pwr.c **** 
 407:Drivers/STM32WBxx_HAL_Driver/Src/stm32wbxx_hal_pwr.c ****   /* Configure interrupt mode */
 408:Drivers/STM32WBxx_HAL_Driver/Src/stm32wbxx_hal_pwr.c ****   if ((sConfigPVD->Mode & PVD_MODE_IT) == PVD_MODE_IT)
 648              		.loc 1 408 18
 649 003a 7B68     		ldr	r3, [r7, #4]
 650 003c 5B68     		ldr	r3, [r3, #4]
 651              		.loc 1 408 25
 652 003e 03F48033 		and	r3, r3, #65536
 653              		.loc 1 408 6
 654 0042 002B     		cmp	r3, #0
 655 0044 03D0     		beq	.L32
 409:Drivers/STM32WBxx_HAL_Driver/Src/stm32wbxx_hal_pwr.c ****   {
 410:Drivers/STM32WBxx_HAL_Driver/Src/stm32wbxx_hal_pwr.c ****     /* Set CPU1 as wakeup target */
 411:Drivers/STM32WBxx_HAL_Driver/Src/stm32wbxx_hal_pwr.c ****     __HAL_PWR_PVD_EXTI_ENABLE_IT();
 656              		.loc 1 411 5
 657 0046 4FF48030 		mov	r0, #65536
 658 004a FFF7FEFF 		bl	LL_EXTI_EnableIT_0_31
 659              	.L32:
 412:Drivers/STM32WBxx_HAL_Driver/Src/stm32wbxx_hal_pwr.c ****   }
 413:Drivers/STM32WBxx_HAL_Driver/Src/stm32wbxx_hal_pwr.c **** 
 414:Drivers/STM32WBxx_HAL_Driver/Src/stm32wbxx_hal_pwr.c ****   /* Configure the edge */
 415:Drivers/STM32WBxx_HAL_Driver/Src/stm32wbxx_hal_pwr.c ****   if ((sConfigPVD->Mode & PVD_RISING_EDGE) == PVD_RISING_EDGE)
ARM GAS  C:\Users\alanl\AppData\Local\Temp\ccf1ENHg.s 			page 42


 660              		.loc 1 415 18
 661 004e 7B68     		ldr	r3, [r7, #4]
 662 0050 5B68     		ldr	r3, [r3, #4]
 663              		.loc 1 415 25
 664 0052 03F00103 		and	r3, r3, #1
 665              		.loc 1 415 6
 666 0056 002B     		cmp	r3, #0
 667 0058 03D0     		beq	.L33
 416:Drivers/STM32WBxx_HAL_Driver/Src/stm32wbxx_hal_pwr.c ****   {
 417:Drivers/STM32WBxx_HAL_Driver/Src/stm32wbxx_hal_pwr.c ****     __HAL_PWR_PVD_EXTI_ENABLE_RISING_EDGE();
 668              		.loc 1 417 5
 669 005a 4FF48030 		mov	r0, #65536
 670 005e FFF7FEFF 		bl	LL_EXTI_EnableRisingTrig_0_31
 671              	.L33:
 418:Drivers/STM32WBxx_HAL_Driver/Src/stm32wbxx_hal_pwr.c ****   }
 419:Drivers/STM32WBxx_HAL_Driver/Src/stm32wbxx_hal_pwr.c **** 
 420:Drivers/STM32WBxx_HAL_Driver/Src/stm32wbxx_hal_pwr.c ****   if ((sConfigPVD->Mode & PVD_FALLING_EDGE) == PVD_FALLING_EDGE)
 672              		.loc 1 420 18
 673 0062 7B68     		ldr	r3, [r7, #4]
 674 0064 5B68     		ldr	r3, [r3, #4]
 675              		.loc 1 420 25
 676 0066 03F00203 		and	r3, r3, #2
 677              		.loc 1 420 6
 678 006a 002B     		cmp	r3, #0
 679 006c 03D0     		beq	.L34
 421:Drivers/STM32WBxx_HAL_Driver/Src/stm32wbxx_hal_pwr.c ****   {
 422:Drivers/STM32WBxx_HAL_Driver/Src/stm32wbxx_hal_pwr.c ****     __HAL_PWR_PVD_EXTI_ENABLE_FALLING_EDGE();
 680              		.loc 1 422 5
 681 006e 4FF48030 		mov	r0, #65536
 682 0072 FFF7FEFF 		bl	LL_EXTI_EnableFallingTrig_0_31
 683              	.L34:
 423:Drivers/STM32WBxx_HAL_Driver/Src/stm32wbxx_hal_pwr.c ****   }
 424:Drivers/STM32WBxx_HAL_Driver/Src/stm32wbxx_hal_pwr.c **** 
 425:Drivers/STM32WBxx_HAL_Driver/Src/stm32wbxx_hal_pwr.c ****   return HAL_OK;
 684              		.loc 1 425 10
 685 0076 0023     		movs	r3, #0
 426:Drivers/STM32WBxx_HAL_Driver/Src/stm32wbxx_hal_pwr.c **** }
 686              		.loc 1 426 1
 687 0078 1846     		mov	r0, r3
 688 007a 0837     		adds	r7, r7, #8
 689              	.LCFI57:
 690              		.cfi_def_cfa_offset 8
 691 007c BD46     		mov	sp, r7
 692              	.LCFI58:
 693              		.cfi_def_cfa_register 13
 694              		@ sp needed
 695 007e 80BD     		pop	{r7, pc}
 696              	.L37:
 697              		.align	2
 698              	.L36:
 699 0080 00040058 		.word	1476396032
 700              		.cfi_endproc
 701              	.LFE953:
 703              		.section	.text.HAL_PWR_EnablePVD,"ax",%progbits
 704              		.align	1
 705              		.global	HAL_PWR_EnablePVD
 706              		.syntax unified
ARM GAS  C:\Users\alanl\AppData\Local\Temp\ccf1ENHg.s 			page 43


 707              		.thumb
 708              		.thumb_func
 710              	HAL_PWR_EnablePVD:
 711              	.LFB954:
 427:Drivers/STM32WBxx_HAL_Driver/Src/stm32wbxx_hal_pwr.c **** 
 428:Drivers/STM32WBxx_HAL_Driver/Src/stm32wbxx_hal_pwr.c **** /**
 429:Drivers/STM32WBxx_HAL_Driver/Src/stm32wbxx_hal_pwr.c ****   * @brief Enables the Power Voltage Detector(PVD).
 430:Drivers/STM32WBxx_HAL_Driver/Src/stm32wbxx_hal_pwr.c ****   * @retval None
 431:Drivers/STM32WBxx_HAL_Driver/Src/stm32wbxx_hal_pwr.c ****   */
 432:Drivers/STM32WBxx_HAL_Driver/Src/stm32wbxx_hal_pwr.c **** void HAL_PWR_EnablePVD(void)
 433:Drivers/STM32WBxx_HAL_Driver/Src/stm32wbxx_hal_pwr.c **** {
 712              		.loc 1 433 1
 713              		.cfi_startproc
 714              		@ args = 0, pretend = 0, frame = 0
 715              		@ frame_needed = 1, uses_anonymous_args = 0
 716              		@ link register save eliminated.
 717 0000 80B4     		push	{r7}
 718              	.LCFI59:
 719              		.cfi_def_cfa_offset 4
 720              		.cfi_offset 7, -4
 721 0002 00AF     		add	r7, sp, #0
 722              	.LCFI60:
 723              		.cfi_def_cfa_register 7
 434:Drivers/STM32WBxx_HAL_Driver/Src/stm32wbxx_hal_pwr.c ****   /* Enable the power voltage detector */
 435:Drivers/STM32WBxx_HAL_Driver/Src/stm32wbxx_hal_pwr.c ****   SET_BIT(PWR->CR2, PWR_CR2_PVDE);
 724              		.loc 1 435 3
 725 0004 054B     		ldr	r3, .L39
 726 0006 5B68     		ldr	r3, [r3, #4]
 727 0008 044A     		ldr	r2, .L39
 728 000a 43F00103 		orr	r3, r3, #1
 729 000e 5360     		str	r3, [r2, #4]
 436:Drivers/STM32WBxx_HAL_Driver/Src/stm32wbxx_hal_pwr.c **** }
 730              		.loc 1 436 1
 731 0010 00BF     		nop
 732 0012 BD46     		mov	sp, r7
 733              	.LCFI61:
 734              		.cfi_def_cfa_register 13
 735              		@ sp needed
 736 0014 5DF8047B 		ldr	r7, [sp], #4
 737              	.LCFI62:
 738              		.cfi_restore 7
 739              		.cfi_def_cfa_offset 0
 740 0018 7047     		bx	lr
 741              	.L40:
 742 001a 00BF     		.align	2
 743              	.L39:
 744 001c 00040058 		.word	1476396032
 745              		.cfi_endproc
 746              	.LFE954:
 748              		.section	.text.HAL_PWR_DisablePVD,"ax",%progbits
 749              		.align	1
 750              		.global	HAL_PWR_DisablePVD
 751              		.syntax unified
 752              		.thumb
 753              		.thumb_func
 755              	HAL_PWR_DisablePVD:
 756              	.LFB955:
ARM GAS  C:\Users\alanl\AppData\Local\Temp\ccf1ENHg.s 			page 44


 437:Drivers/STM32WBxx_HAL_Driver/Src/stm32wbxx_hal_pwr.c **** 
 438:Drivers/STM32WBxx_HAL_Driver/Src/stm32wbxx_hal_pwr.c **** /**
 439:Drivers/STM32WBxx_HAL_Driver/Src/stm32wbxx_hal_pwr.c ****   * @brief Disables the Power Voltage Detector(PVD).
 440:Drivers/STM32WBxx_HAL_Driver/Src/stm32wbxx_hal_pwr.c ****   * @retval None
 441:Drivers/STM32WBxx_HAL_Driver/Src/stm32wbxx_hal_pwr.c ****   */
 442:Drivers/STM32WBxx_HAL_Driver/Src/stm32wbxx_hal_pwr.c **** void HAL_PWR_DisablePVD(void)
 443:Drivers/STM32WBxx_HAL_Driver/Src/stm32wbxx_hal_pwr.c **** {
 757              		.loc 1 443 1
 758              		.cfi_startproc
 759              		@ args = 0, pretend = 0, frame = 0
 760              		@ frame_needed = 1, uses_anonymous_args = 0
 761              		@ link register save eliminated.
 762 0000 80B4     		push	{r7}
 763              	.LCFI63:
 764              		.cfi_def_cfa_offset 4
 765              		.cfi_offset 7, -4
 766 0002 00AF     		add	r7, sp, #0
 767              	.LCFI64:
 768              		.cfi_def_cfa_register 7
 444:Drivers/STM32WBxx_HAL_Driver/Src/stm32wbxx_hal_pwr.c ****   /* Disable the power voltage detector */
 445:Drivers/STM32WBxx_HAL_Driver/Src/stm32wbxx_hal_pwr.c ****   CLEAR_BIT(PWR->CR2, PWR_CR2_PVDE);
 769              		.loc 1 445 3
 770 0004 054B     		ldr	r3, .L42
 771 0006 5B68     		ldr	r3, [r3, #4]
 772 0008 044A     		ldr	r2, .L42
 773 000a 23F00103 		bic	r3, r3, #1
 774 000e 5360     		str	r3, [r2, #4]
 446:Drivers/STM32WBxx_HAL_Driver/Src/stm32wbxx_hal_pwr.c **** }
 775              		.loc 1 446 1
 776 0010 00BF     		nop
 777 0012 BD46     		mov	sp, r7
 778              	.LCFI65:
 779              		.cfi_def_cfa_register 13
 780              		@ sp needed
 781 0014 5DF8047B 		ldr	r7, [sp], #4
 782              	.LCFI66:
 783              		.cfi_restore 7
 784              		.cfi_def_cfa_offset 0
 785 0018 7047     		bx	lr
 786              	.L43:
 787 001a 00BF     		.align	2
 788              	.L42:
 789 001c 00040058 		.word	1476396032
 790              		.cfi_endproc
 791              	.LFE955:
 793              		.section	.text.HAL_PWR_EnableWakeUpPin,"ax",%progbits
 794              		.align	1
 795              		.global	HAL_PWR_EnableWakeUpPin
 796              		.syntax unified
 797              		.thumb
 798              		.thumb_func
 800              	HAL_PWR_EnableWakeUpPin:
 801              	.LFB956:
 447:Drivers/STM32WBxx_HAL_Driver/Src/stm32wbxx_hal_pwr.c **** 
 448:Drivers/STM32WBxx_HAL_Driver/Src/stm32wbxx_hal_pwr.c **** 
 449:Drivers/STM32WBxx_HAL_Driver/Src/stm32wbxx_hal_pwr.c **** /**
 450:Drivers/STM32WBxx_HAL_Driver/Src/stm32wbxx_hal_pwr.c ****   * @brief Enable the WakeUp PINx functionality.
ARM GAS  C:\Users\alanl\AppData\Local\Temp\ccf1ENHg.s 			page 45


 451:Drivers/STM32WBxx_HAL_Driver/Src/stm32wbxx_hal_pwr.c ****   * @param WakeUpPinPolarity Specifies which Wake-Up pin to enable.
 452:Drivers/STM32WBxx_HAL_Driver/Src/stm32wbxx_hal_pwr.c ****   *         This parameter can be one of the following legacy values which set the default polarity
 453:Drivers/STM32WBxx_HAL_Driver/Src/stm32wbxx_hal_pwr.c ****   *         i.e. detection on high level (rising edge):
 454:Drivers/STM32WBxx_HAL_Driver/Src/stm32wbxx_hal_pwr.c ****   *           @arg @ref PWR_WAKEUP_PIN1, PWR_WAKEUP_PIN2, PWR_WAKEUP_PIN3, PWR_WAKEUP_PIN4, PWR_WAK
 455:Drivers/STM32WBxx_HAL_Driver/Src/stm32wbxx_hal_pwr.c ****   *
 456:Drivers/STM32WBxx_HAL_Driver/Src/stm32wbxx_hal_pwr.c ****   *         or one of the following value where the user can explicitly specify the enabled pin and
 457:Drivers/STM32WBxx_HAL_Driver/Src/stm32wbxx_hal_pwr.c ****   *         the chosen polarity:
 458:Drivers/STM32WBxx_HAL_Driver/Src/stm32wbxx_hal_pwr.c ****   *           @arg @ref PWR_WAKEUP_PIN1_HIGH or PWR_WAKEUP_PIN1_LOW
 459:Drivers/STM32WBxx_HAL_Driver/Src/stm32wbxx_hal_pwr.c ****   *           @arg @ref PWR_WAKEUP_PIN2_HIGH or PWR_WAKEUP_PIN2_LOW
 460:Drivers/STM32WBxx_HAL_Driver/Src/stm32wbxx_hal_pwr.c ****   *           @arg @ref PWR_WAKEUP_PIN3_HIGH or PWR_WAKEUP_PIN3_LOW
 461:Drivers/STM32WBxx_HAL_Driver/Src/stm32wbxx_hal_pwr.c ****   *           @arg @ref PWR_WAKEUP_PIN4_HIGH or PWR_WAKEUP_PIN4_LOW
 462:Drivers/STM32WBxx_HAL_Driver/Src/stm32wbxx_hal_pwr.c ****   *           @arg @ref PWR_WAKEUP_PIN5_HIGH or PWR_WAKEUP_PIN5_LOW
 463:Drivers/STM32WBxx_HAL_Driver/Src/stm32wbxx_hal_pwr.c ****   * @note  PWR_WAKEUP_PINx and PWR_WAKEUP_PINx_HIGH are equivalent.
 464:Drivers/STM32WBxx_HAL_Driver/Src/stm32wbxx_hal_pwr.c ****   * @retval None
 465:Drivers/STM32WBxx_HAL_Driver/Src/stm32wbxx_hal_pwr.c ****   */
 466:Drivers/STM32WBxx_HAL_Driver/Src/stm32wbxx_hal_pwr.c **** void HAL_PWR_EnableWakeUpPin(uint32_t WakeUpPinPolarity)
 467:Drivers/STM32WBxx_HAL_Driver/Src/stm32wbxx_hal_pwr.c **** {
 802              		.loc 1 467 1
 803              		.cfi_startproc
 804              		@ args = 0, pretend = 0, frame = 8
 805              		@ frame_needed = 1, uses_anonymous_args = 0
 806              		@ link register save eliminated.
 807 0000 80B4     		push	{r7}
 808              	.LCFI67:
 809              		.cfi_def_cfa_offset 4
 810              		.cfi_offset 7, -4
 811 0002 83B0     		sub	sp, sp, #12
 812              	.LCFI68:
 813              		.cfi_def_cfa_offset 16
 814 0004 00AF     		add	r7, sp, #0
 815              	.LCFI69:
 816              		.cfi_def_cfa_register 7
 817 0006 7860     		str	r0, [r7, #4]
 468:Drivers/STM32WBxx_HAL_Driver/Src/stm32wbxx_hal_pwr.c ****   assert_param(IS_PWR_WAKEUP_PIN(WakeUpPinPolarity));
 469:Drivers/STM32WBxx_HAL_Driver/Src/stm32wbxx_hal_pwr.c **** 
 470:Drivers/STM32WBxx_HAL_Driver/Src/stm32wbxx_hal_pwr.c ****   /* Specifies the Wake-Up pin polarity for the event detection
 471:Drivers/STM32WBxx_HAL_Driver/Src/stm32wbxx_hal_pwr.c ****     (rising or falling edge) */
 472:Drivers/STM32WBxx_HAL_Driver/Src/stm32wbxx_hal_pwr.c ****   MODIFY_REG(PWR->CR4, (PWR_CR3_EWUP & WakeUpPinPolarity), (WakeUpPinPolarity >> PWR_WUP_POLARITY_S
 818              		.loc 1 472 3
 819 0008 0C4B     		ldr	r3, .L45
 820 000a DA68     		ldr	r2, [r3, #12]
 821 000c 7B68     		ldr	r3, [r7, #4]
 822 000e 03F01F03 		and	r3, r3, #31
 823 0012 DB43     		mvns	r3, r3
 824 0014 1A40     		ands	r2, r2, r3
 825 0016 7B68     		ldr	r3, [r7, #4]
 826 0018 5B09     		lsrs	r3, r3, #5
 827 001a 0849     		ldr	r1, .L45
 828 001c 1343     		orrs	r3, r3, r2
 829 001e CB60     		str	r3, [r1, #12]
 473:Drivers/STM32WBxx_HAL_Driver/Src/stm32wbxx_hal_pwr.c **** 
 474:Drivers/STM32WBxx_HAL_Driver/Src/stm32wbxx_hal_pwr.c ****   /* Enable wake-up pin */
 475:Drivers/STM32WBxx_HAL_Driver/Src/stm32wbxx_hal_pwr.c ****   SET_BIT(PWR->CR3, (PWR_CR3_EWUP & WakeUpPinPolarity));
 830              		.loc 1 475 3
 831 0020 064B     		ldr	r3, .L45
 832 0022 9A68     		ldr	r2, [r3, #8]
 833 0024 7B68     		ldr	r3, [r7, #4]
ARM GAS  C:\Users\alanl\AppData\Local\Temp\ccf1ENHg.s 			page 46


 834 0026 03F01F03 		and	r3, r3, #31
 835 002a 0449     		ldr	r1, .L45
 836 002c 1343     		orrs	r3, r3, r2
 837 002e 8B60     		str	r3, [r1, #8]
 476:Drivers/STM32WBxx_HAL_Driver/Src/stm32wbxx_hal_pwr.c **** }
 838              		.loc 1 476 1
 839 0030 00BF     		nop
 840 0032 0C37     		adds	r7, r7, #12
 841              	.LCFI70:
 842              		.cfi_def_cfa_offset 4
 843 0034 BD46     		mov	sp, r7
 844              	.LCFI71:
 845              		.cfi_def_cfa_register 13
 846              		@ sp needed
 847 0036 5DF8047B 		ldr	r7, [sp], #4
 848              	.LCFI72:
 849              		.cfi_restore 7
 850              		.cfi_def_cfa_offset 0
 851 003a 7047     		bx	lr
 852              	.L46:
 853              		.align	2
 854              	.L45:
 855 003c 00040058 		.word	1476396032
 856              		.cfi_endproc
 857              	.LFE956:
 859              		.section	.text.HAL_PWR_DisableWakeUpPin,"ax",%progbits
 860              		.align	1
 861              		.global	HAL_PWR_DisableWakeUpPin
 862              		.syntax unified
 863              		.thumb
 864              		.thumb_func
 866              	HAL_PWR_DisableWakeUpPin:
 867              	.LFB957:
 477:Drivers/STM32WBxx_HAL_Driver/Src/stm32wbxx_hal_pwr.c **** 
 478:Drivers/STM32WBxx_HAL_Driver/Src/stm32wbxx_hal_pwr.c **** /**
 479:Drivers/STM32WBxx_HAL_Driver/Src/stm32wbxx_hal_pwr.c ****   * @brief  Disable the WakeUp PINx functionality.
 480:Drivers/STM32WBxx_HAL_Driver/Src/stm32wbxx_hal_pwr.c ****   * @param WakeUpPinx Specifies the Power Wake-Up pin to disable.
 481:Drivers/STM32WBxx_HAL_Driver/Src/stm32wbxx_hal_pwr.c ****   *         This parameter can be one of the following values:
 482:Drivers/STM32WBxx_HAL_Driver/Src/stm32wbxx_hal_pwr.c ****   *           @arg PWR_WAKEUP_PIN1: An event on PA0   PIN wakes-up the system from Standby mode.
 483:Drivers/STM32WBxx_HAL_Driver/Src/stm32wbxx_hal_pwr.c ****   *           @arg PWR_WAKEUP_PIN2: An event on PC13  PIN wakes-up the system from Standby mode.
 484:Drivers/STM32WBxx_HAL_Driver/Src/stm32wbxx_hal_pwr.c ****   *           @arg PWR_WAKEUP_PIN3: An event on PC12  PIN wakes-up the system from Standby mode.
 485:Drivers/STM32WBxx_HAL_Driver/Src/stm32wbxx_hal_pwr.c ****   *           @arg PWR_WAKEUP_PIN4: An event on PA2   PIN wakes-up the system from Standby mode.
 486:Drivers/STM32WBxx_HAL_Driver/Src/stm32wbxx_hal_pwr.c ****   *           @arg PWR_WAKEUP_PIN5: An event on PC5   PIN wakes-up the system from Standby mode.
 487:Drivers/STM32WBxx_HAL_Driver/Src/stm32wbxx_hal_pwr.c ****   * @retval None
 488:Drivers/STM32WBxx_HAL_Driver/Src/stm32wbxx_hal_pwr.c ****   */
 489:Drivers/STM32WBxx_HAL_Driver/Src/stm32wbxx_hal_pwr.c **** void HAL_PWR_DisableWakeUpPin(uint32_t WakeUpPinx)
 490:Drivers/STM32WBxx_HAL_Driver/Src/stm32wbxx_hal_pwr.c **** {
 868              		.loc 1 490 1
 869              		.cfi_startproc
 870              		@ args = 0, pretend = 0, frame = 8
 871              		@ frame_needed = 1, uses_anonymous_args = 0
 872              		@ link register save eliminated.
 873 0000 80B4     		push	{r7}
 874              	.LCFI73:
 875              		.cfi_def_cfa_offset 4
 876              		.cfi_offset 7, -4
 877 0002 83B0     		sub	sp, sp, #12
ARM GAS  C:\Users\alanl\AppData\Local\Temp\ccf1ENHg.s 			page 47


 878              	.LCFI74:
 879              		.cfi_def_cfa_offset 16
 880 0004 00AF     		add	r7, sp, #0
 881              	.LCFI75:
 882              		.cfi_def_cfa_register 7
 883 0006 7860     		str	r0, [r7, #4]
 491:Drivers/STM32WBxx_HAL_Driver/Src/stm32wbxx_hal_pwr.c ****   assert_param(IS_PWR_WAKEUP_PIN(WakeUpPinx));
 492:Drivers/STM32WBxx_HAL_Driver/Src/stm32wbxx_hal_pwr.c **** 
 493:Drivers/STM32WBxx_HAL_Driver/Src/stm32wbxx_hal_pwr.c ****   CLEAR_BIT(PWR->CR3, (PWR_CR3_EWUP & WakeUpPinx));
 884              		.loc 1 493 3
 885 0008 074B     		ldr	r3, .L48
 886 000a 9A68     		ldr	r2, [r3, #8]
 887 000c 7B68     		ldr	r3, [r7, #4]
 888 000e 03F01F03 		and	r3, r3, #31
 889 0012 DB43     		mvns	r3, r3
 890 0014 0449     		ldr	r1, .L48
 891 0016 1340     		ands	r3, r3, r2
 892 0018 8B60     		str	r3, [r1, #8]
 494:Drivers/STM32WBxx_HAL_Driver/Src/stm32wbxx_hal_pwr.c **** }
 893              		.loc 1 494 1
 894 001a 00BF     		nop
 895 001c 0C37     		adds	r7, r7, #12
 896              	.LCFI76:
 897              		.cfi_def_cfa_offset 4
 898 001e BD46     		mov	sp, r7
 899              	.LCFI77:
 900              		.cfi_def_cfa_register 13
 901              		@ sp needed
 902 0020 5DF8047B 		ldr	r7, [sp], #4
 903              	.LCFI78:
 904              		.cfi_restore 7
 905              		.cfi_def_cfa_offset 0
 906 0024 7047     		bx	lr
 907              	.L49:
 908 0026 00BF     		.align	2
 909              	.L48:
 910 0028 00040058 		.word	1476396032
 911              		.cfi_endproc
 912              	.LFE957:
 914              		.section	.text.HAL_PWR_EnterSLEEPMode,"ax",%progbits
 915              		.align	1
 916              		.global	HAL_PWR_EnterSLEEPMode
 917              		.syntax unified
 918              		.thumb
 919              		.thumb_func
 921              	HAL_PWR_EnterSLEEPMode:
 922              	.LFB958:
 495:Drivers/STM32WBxx_HAL_Driver/Src/stm32wbxx_hal_pwr.c **** 
 496:Drivers/STM32WBxx_HAL_Driver/Src/stm32wbxx_hal_pwr.c **** /**
 497:Drivers/STM32WBxx_HAL_Driver/Src/stm32wbxx_hal_pwr.c ****   * @brief Enter Sleep or Low-power Sleep mode.
 498:Drivers/STM32WBxx_HAL_Driver/Src/stm32wbxx_hal_pwr.c ****   * @note  In Sleep/Low-power Sleep mode, all I/O pins keep the same state as in Run mode.
 499:Drivers/STM32WBxx_HAL_Driver/Src/stm32wbxx_hal_pwr.c ****   * @param Regulator Specifies the regulator state in Sleep/Low-power Sleep mode.
 500:Drivers/STM32WBxx_HAL_Driver/Src/stm32wbxx_hal_pwr.c ****   *          This parameter can be one of the following values:
 501:Drivers/STM32WBxx_HAL_Driver/Src/stm32wbxx_hal_pwr.c ****   *            @arg @ref PWR_MAINREGULATOR_ON Sleep mode (regulator in main mode)
 502:Drivers/STM32WBxx_HAL_Driver/Src/stm32wbxx_hal_pwr.c ****   *            @arg @ref PWR_LOWPOWERREGULATOR_ON Low-power Sleep mode (regulator in low-power mode
 503:Drivers/STM32WBxx_HAL_Driver/Src/stm32wbxx_hal_pwr.c ****   * @note  Low-power Sleep mode is entered from Low-power Run mode. Therefore, if not yet
 504:Drivers/STM32WBxx_HAL_Driver/Src/stm32wbxx_hal_pwr.c ****   *        in Low-power Run mode before calling HAL_PWR_EnterSLEEPMode() with Regulator set
ARM GAS  C:\Users\alanl\AppData\Local\Temp\ccf1ENHg.s 			page 48


 505:Drivers/STM32WBxx_HAL_Driver/Src/stm32wbxx_hal_pwr.c ****   *        to PWR_LOWPOWERREGULATOR_ON, the user can optionally configure the
 506:Drivers/STM32WBxx_HAL_Driver/Src/stm32wbxx_hal_pwr.c ****   *        Flash in power-down mode in setting the SLEEP_PD bit in FLASH_ACR register.
 507:Drivers/STM32WBxx_HAL_Driver/Src/stm32wbxx_hal_pwr.c ****   *        Additionally, the clock frequency must be reduced below 2 MHz.
 508:Drivers/STM32WBxx_HAL_Driver/Src/stm32wbxx_hal_pwr.c ****   *        Setting SLEEP_PD in FLASH_ACR then appropriately reducing the clock frequency must
 509:Drivers/STM32WBxx_HAL_Driver/Src/stm32wbxx_hal_pwr.c ****   *        be done before calling HAL_PWR_EnterSLEEPMode() API.
 510:Drivers/STM32WBxx_HAL_Driver/Src/stm32wbxx_hal_pwr.c ****   * @note  When exiting Low-power Sleep mode, the MCU is in Low-power Run mode. To move in
 511:Drivers/STM32WBxx_HAL_Driver/Src/stm32wbxx_hal_pwr.c ****   *        Run mode, the user must resort to HAL_PWREx_DisableLowPowerRunMode() API.
 512:Drivers/STM32WBxx_HAL_Driver/Src/stm32wbxx_hal_pwr.c ****   * @param SLEEPEntry Specifies if Sleep mode is entered with WFI or WFE instruction.
 513:Drivers/STM32WBxx_HAL_Driver/Src/stm32wbxx_hal_pwr.c ****   *           This parameter can be one of the following values:
 514:Drivers/STM32WBxx_HAL_Driver/Src/stm32wbxx_hal_pwr.c ****   *            @arg @ref PWR_SLEEPENTRY_WFI enter Sleep or Low-power Sleep mode with WFI instructio
 515:Drivers/STM32WBxx_HAL_Driver/Src/stm32wbxx_hal_pwr.c ****   *            @arg @ref PWR_SLEEPENTRY_WFE enter Sleep or Low-power Sleep mode with WFE instructio
 516:Drivers/STM32WBxx_HAL_Driver/Src/stm32wbxx_hal_pwr.c ****   * @note  When WFI entry is used, tick interrupt have to be disabled if not desired as
 517:Drivers/STM32WBxx_HAL_Driver/Src/stm32wbxx_hal_pwr.c ****   *        the interrupt wake up source.
 518:Drivers/STM32WBxx_HAL_Driver/Src/stm32wbxx_hal_pwr.c ****   * @retval None
 519:Drivers/STM32WBxx_HAL_Driver/Src/stm32wbxx_hal_pwr.c ****   */
 520:Drivers/STM32WBxx_HAL_Driver/Src/stm32wbxx_hal_pwr.c **** void HAL_PWR_EnterSLEEPMode(uint32_t Regulator, uint8_t SLEEPEntry)
 521:Drivers/STM32WBxx_HAL_Driver/Src/stm32wbxx_hal_pwr.c **** {
 923              		.loc 1 521 1
 924              		.cfi_startproc
 925              		@ args = 0, pretend = 0, frame = 8
 926              		@ frame_needed = 1, uses_anonymous_args = 0
 927 0000 80B5     		push	{r7, lr}
 928              	.LCFI79:
 929              		.cfi_def_cfa_offset 8
 930              		.cfi_offset 7, -8
 931              		.cfi_offset 14, -4
 932 0002 82B0     		sub	sp, sp, #8
 933              	.LCFI80:
 934              		.cfi_def_cfa_offset 16
 935 0004 00AF     		add	r7, sp, #0
 936              	.LCFI81:
 937              		.cfi_def_cfa_register 7
 938 0006 7860     		str	r0, [r7, #4]
 939 0008 0B46     		mov	r3, r1
 940 000a FB70     		strb	r3, [r7, #3]
 522:Drivers/STM32WBxx_HAL_Driver/Src/stm32wbxx_hal_pwr.c ****   /* Check the parameters */
 523:Drivers/STM32WBxx_HAL_Driver/Src/stm32wbxx_hal_pwr.c ****   assert_param(IS_PWR_REGULATOR(Regulator));
 524:Drivers/STM32WBxx_HAL_Driver/Src/stm32wbxx_hal_pwr.c ****   assert_param(IS_PWR_SLEEP_ENTRY(SLEEPEntry));
 525:Drivers/STM32WBxx_HAL_Driver/Src/stm32wbxx_hal_pwr.c **** 
 526:Drivers/STM32WBxx_HAL_Driver/Src/stm32wbxx_hal_pwr.c ****   /* Set Regulator parameter */
 527:Drivers/STM32WBxx_HAL_Driver/Src/stm32wbxx_hal_pwr.c ****   if (Regulator == PWR_MAINREGULATOR_ON)
 941              		.loc 1 527 6
 942 000c 7B68     		ldr	r3, [r7, #4]
 943 000e 002B     		cmp	r3, #0
 944 0010 0CD1     		bne	.L51
 528:Drivers/STM32WBxx_HAL_Driver/Src/stm32wbxx_hal_pwr.c ****   {
 529:Drivers/STM32WBxx_HAL_Driver/Src/stm32wbxx_hal_pwr.c ****     /* If in low-power run mode at this point, exit it */
 530:Drivers/STM32WBxx_HAL_Driver/Src/stm32wbxx_hal_pwr.c ****     if (HAL_IS_BIT_SET(PWR->SR2, PWR_SR2_REGLPF))
 945              		.loc 1 530 9
 946 0012 134B     		ldr	r3, .L55
 947 0014 5B69     		ldr	r3, [r3, #20]
 948 0016 03F40073 		and	r3, r3, #512
 949              		.loc 1 530 8
 950 001a B3F5007F 		cmp	r3, #512
 951 001e 0ED1     		bne	.L52
 531:Drivers/STM32WBxx_HAL_Driver/Src/stm32wbxx_hal_pwr.c ****     {
 532:Drivers/STM32WBxx_HAL_Driver/Src/stm32wbxx_hal_pwr.c ****       if (HAL_PWREx_DisableLowPowerRunMode() != HAL_OK)
ARM GAS  C:\Users\alanl\AppData\Local\Temp\ccf1ENHg.s 			page 49


 952              		.loc 1 532 11
 953 0020 FFF7FEFF 		bl	HAL_PWREx_DisableLowPowerRunMode
 954 0024 0346     		mov	r3, r0
 955              		.loc 1 532 10 discriminator 1
 956 0026 002B     		cmp	r3, #0
 957 0028 09D0     		beq	.L52
 533:Drivers/STM32WBxx_HAL_Driver/Src/stm32wbxx_hal_pwr.c ****       {
 534:Drivers/STM32WBxx_HAL_Driver/Src/stm32wbxx_hal_pwr.c ****         return ;
 958              		.loc 1 534 9
 959 002a 16E0     		b	.L50
 960              	.L51:
 535:Drivers/STM32WBxx_HAL_Driver/Src/stm32wbxx_hal_pwr.c ****       }
 536:Drivers/STM32WBxx_HAL_Driver/Src/stm32wbxx_hal_pwr.c ****     }
 537:Drivers/STM32WBxx_HAL_Driver/Src/stm32wbxx_hal_pwr.c ****     /* Regulator now in main mode. */
 538:Drivers/STM32WBxx_HAL_Driver/Src/stm32wbxx_hal_pwr.c ****   }
 539:Drivers/STM32WBxx_HAL_Driver/Src/stm32wbxx_hal_pwr.c ****   else
 540:Drivers/STM32WBxx_HAL_Driver/Src/stm32wbxx_hal_pwr.c ****   {
 541:Drivers/STM32WBxx_HAL_Driver/Src/stm32wbxx_hal_pwr.c ****     /* If in run mode, first move to low-power run mode.
 542:Drivers/STM32WBxx_HAL_Driver/Src/stm32wbxx_hal_pwr.c ****        The system clock frequency must be below 2 MHz at this point. */
 543:Drivers/STM32WBxx_HAL_Driver/Src/stm32wbxx_hal_pwr.c ****     if (HAL_IS_BIT_SET(PWR->SR2, PWR_SR2_REGLPF) == RESET)
 961              		.loc 1 543 9
 962 002c 0C4B     		ldr	r3, .L55
 963 002e 5B69     		ldr	r3, [r3, #20]
 964 0030 03F40073 		and	r3, r3, #512
 965              		.loc 1 543 8
 966 0034 B3F5007F 		cmp	r3, #512
 967 0038 01D0     		beq	.L52
 544:Drivers/STM32WBxx_HAL_Driver/Src/stm32wbxx_hal_pwr.c ****     {
 545:Drivers/STM32WBxx_HAL_Driver/Src/stm32wbxx_hal_pwr.c ****       HAL_PWREx_EnableLowPowerRunMode();
 968              		.loc 1 545 7
 969 003a FFF7FEFF 		bl	HAL_PWREx_EnableLowPowerRunMode
 970              	.L52:
 546:Drivers/STM32WBxx_HAL_Driver/Src/stm32wbxx_hal_pwr.c ****     }
 547:Drivers/STM32WBxx_HAL_Driver/Src/stm32wbxx_hal_pwr.c ****   }
 548:Drivers/STM32WBxx_HAL_Driver/Src/stm32wbxx_hal_pwr.c **** 
 549:Drivers/STM32WBxx_HAL_Driver/Src/stm32wbxx_hal_pwr.c ****   /* Clear SLEEPDEEP bit of Cortex System Control Register */
 550:Drivers/STM32WBxx_HAL_Driver/Src/stm32wbxx_hal_pwr.c ****   CLEAR_BIT(SCB->SCR, ((uint32_t)SCB_SCR_SLEEPDEEP_Msk));
 971              		.loc 1 550 3
 972 003e 094B     		ldr	r3, .L55+4
 973 0040 1B69     		ldr	r3, [r3, #16]
 974 0042 084A     		ldr	r2, .L55+4
 975 0044 23F00403 		bic	r3, r3, #4
 976 0048 1361     		str	r3, [r2, #16]
 551:Drivers/STM32WBxx_HAL_Driver/Src/stm32wbxx_hal_pwr.c **** 
 552:Drivers/STM32WBxx_HAL_Driver/Src/stm32wbxx_hal_pwr.c ****   /* Select SLEEP mode entry -------------------------------------------------*/
 553:Drivers/STM32WBxx_HAL_Driver/Src/stm32wbxx_hal_pwr.c ****   if (SLEEPEntry == PWR_SLEEPENTRY_WFI)
 977              		.loc 1 553 6
 978 004a FB78     		ldrb	r3, [r7, #3]	@ zero_extendqisi2
 979 004c 012B     		cmp	r3, #1
 980 004e 01D1     		bne	.L54
 554:Drivers/STM32WBxx_HAL_Driver/Src/stm32wbxx_hal_pwr.c ****   {
 555:Drivers/STM32WBxx_HAL_Driver/Src/stm32wbxx_hal_pwr.c ****     /* Request Wait For Interrupt */
 556:Drivers/STM32WBxx_HAL_Driver/Src/stm32wbxx_hal_pwr.c ****     __WFI();
 981              		.loc 1 556 5
 982              		.syntax unified
 983              	@ 556 "Drivers/STM32WBxx_HAL_Driver/Src/stm32wbxx_hal_pwr.c" 1
 984 0050 30BF     		wfi
ARM GAS  C:\Users\alanl\AppData\Local\Temp\ccf1ENHg.s 			page 50


 985              	@ 0 "" 2
 986              		.thumb
 987              		.syntax unified
 988 0052 02E0     		b	.L50
 989              	.L54:
 557:Drivers/STM32WBxx_HAL_Driver/Src/stm32wbxx_hal_pwr.c ****   }
 558:Drivers/STM32WBxx_HAL_Driver/Src/stm32wbxx_hal_pwr.c ****   else
 559:Drivers/STM32WBxx_HAL_Driver/Src/stm32wbxx_hal_pwr.c ****   {
 560:Drivers/STM32WBxx_HAL_Driver/Src/stm32wbxx_hal_pwr.c ****     /* Request Wait For Event */
 561:Drivers/STM32WBxx_HAL_Driver/Src/stm32wbxx_hal_pwr.c ****     __SEV();
 990              		.loc 1 561 5
 991              		.syntax unified
 992              	@ 561 "Drivers/STM32WBxx_HAL_Driver/Src/stm32wbxx_hal_pwr.c" 1
 993 0054 40BF     		sev
 994              	@ 0 "" 2
 562:Drivers/STM32WBxx_HAL_Driver/Src/stm32wbxx_hal_pwr.c ****     __WFE();
 995              		.loc 1 562 5
 996              	@ 562 "Drivers/STM32WBxx_HAL_Driver/Src/stm32wbxx_hal_pwr.c" 1
 997 0056 20BF     		wfe
 998              	@ 0 "" 2
 563:Drivers/STM32WBxx_HAL_Driver/Src/stm32wbxx_hal_pwr.c ****     __WFE();
 999              		.loc 1 563 5
 1000              	@ 563 "Drivers/STM32WBxx_HAL_Driver/Src/stm32wbxx_hal_pwr.c" 1
 1001 0058 20BF     		wfe
 1002              	@ 0 "" 2
 1003              		.thumb
 1004              		.syntax unified
 1005              	.L50:
 564:Drivers/STM32WBxx_HAL_Driver/Src/stm32wbxx_hal_pwr.c ****   }
 565:Drivers/STM32WBxx_HAL_Driver/Src/stm32wbxx_hal_pwr.c **** }
 1006              		.loc 1 565 1
 1007 005a 0837     		adds	r7, r7, #8
 1008              	.LCFI82:
 1009              		.cfi_def_cfa_offset 8
 1010 005c BD46     		mov	sp, r7
 1011              	.LCFI83:
 1012              		.cfi_def_cfa_register 13
 1013              		@ sp needed
 1014 005e 80BD     		pop	{r7, pc}
 1015              	.L56:
 1016              		.align	2
 1017              	.L55:
 1018 0060 00040058 		.word	1476396032
 1019 0064 00ED00E0 		.word	-536810240
 1020              		.cfi_endproc
 1021              	.LFE958:
 1023              		.section	.text.HAL_PWR_EnterSTOPMode,"ax",%progbits
 1024              		.align	1
 1025              		.global	HAL_PWR_EnterSTOPMode
 1026              		.syntax unified
 1027              		.thumb
 1028              		.thumb_func
 1030              	HAL_PWR_EnterSTOPMode:
 1031              	.LFB959:
 566:Drivers/STM32WBxx_HAL_Driver/Src/stm32wbxx_hal_pwr.c **** 
 567:Drivers/STM32WBxx_HAL_Driver/Src/stm32wbxx_hal_pwr.c **** 
 568:Drivers/STM32WBxx_HAL_Driver/Src/stm32wbxx_hal_pwr.c **** /**
ARM GAS  C:\Users\alanl\AppData\Local\Temp\ccf1ENHg.s 			page 51


 569:Drivers/STM32WBxx_HAL_Driver/Src/stm32wbxx_hal_pwr.c ****   * @brief Enter Stop mode
 570:Drivers/STM32WBxx_HAL_Driver/Src/stm32wbxx_hal_pwr.c ****   * @note  This API is named HAL_PWR_EnterSTOPMode to ensure compatibility with legacy code running
 571:Drivers/STM32WBxx_HAL_Driver/Src/stm32wbxx_hal_pwr.c ****   *        on devices where only "Stop mode" is mentioned with main or low power regulator ON.
 572:Drivers/STM32WBxx_HAL_Driver/Src/stm32wbxx_hal_pwr.c ****   * @note  In Stop mode, all I/O pins keep the same state as in Run mode.
 573:Drivers/STM32WBxx_HAL_Driver/Src/stm32wbxx_hal_pwr.c ****   * @note  All clocks in the VCORE domain are stopped; the PLL, the MSI,
 574:Drivers/STM32WBxx_HAL_Driver/Src/stm32wbxx_hal_pwr.c ****   *        the HSI and the HSE oscillators are disabled. Some peripherals with the wakeup capabilit
 575:Drivers/STM32WBxx_HAL_Driver/Src/stm32wbxx_hal_pwr.c ****   *        (I2Cx, USARTx and LPUART) can switch on the HSI to receive a frame, and switch off the H
 576:Drivers/STM32WBxx_HAL_Driver/Src/stm32wbxx_hal_pwr.c ****   *        after receiving the frame if it is not a wakeup frame. In this case, the HSI clock is pr
 577:Drivers/STM32WBxx_HAL_Driver/Src/stm32wbxx_hal_pwr.c ****   *        only to the peripheral requesting it.
 578:Drivers/STM32WBxx_HAL_Driver/Src/stm32wbxx_hal_pwr.c ****   *        SRAM1, SRAM2 and register contents are preserved.
 579:Drivers/STM32WBxx_HAL_Driver/Src/stm32wbxx_hal_pwr.c ****   *        The BOR is available.
 580:Drivers/STM32WBxx_HAL_Driver/Src/stm32wbxx_hal_pwr.c ****   *        The voltage regulator can be configured either in normal (Stop 0) or low-power mode (Sto
 581:Drivers/STM32WBxx_HAL_Driver/Src/stm32wbxx_hal_pwr.c ****   * @note  When exiting Stop 0 or Stop 1 mode by issuing an interrupt or a wakeup event,
 582:Drivers/STM32WBxx_HAL_Driver/Src/stm32wbxx_hal_pwr.c ****   *         the HSI RC oscillator is selected as system clock if STOPWUCK bit in RCC_CFGR register
 583:Drivers/STM32WBxx_HAL_Driver/Src/stm32wbxx_hal_pwr.c ****   *         is set; the MSI oscillator is selected if STOPWUCK is cleared.
 584:Drivers/STM32WBxx_HAL_Driver/Src/stm32wbxx_hal_pwr.c ****   * @note  When the voltage regulator operates in low power mode (Stop 1), an additional
 585:Drivers/STM32WBxx_HAL_Driver/Src/stm32wbxx_hal_pwr.c ****   *         startup delay is incurred when waking up.
 586:Drivers/STM32WBxx_HAL_Driver/Src/stm32wbxx_hal_pwr.c ****   *         By keeping the internal regulator ON during Stop mode (Stop 0), the consumption
 587:Drivers/STM32WBxx_HAL_Driver/Src/stm32wbxx_hal_pwr.c ****   *         is higher although the startup time is reduced.
 588:Drivers/STM32WBxx_HAL_Driver/Src/stm32wbxx_hal_pwr.c ****   * @note  Case of Stop0 mode with SMPS: Before entering Stop 0 mode with SMPS Step Down converter 
 589:Drivers/STM32WBxx_HAL_Driver/Src/stm32wbxx_hal_pwr.c ****   *        the HSI16 must be kept on by enabling HSI kernel clock (set HSIKERON register bit).
 590:Drivers/STM32WBxx_HAL_Driver/Src/stm32wbxx_hal_pwr.c ****   * @note  According to system power policy, system entering in Stop mode
 591:Drivers/STM32WBxx_HAL_Driver/Src/stm32wbxx_hal_pwr.c ****   *        is depending on other CPU power mode.
 592:Drivers/STM32WBxx_HAL_Driver/Src/stm32wbxx_hal_pwr.c ****   * @param Regulator Specifies the regulator state in Stop mode.
 593:Drivers/STM32WBxx_HAL_Driver/Src/stm32wbxx_hal_pwr.c ****   *          This parameter can be one of the following values:
 594:Drivers/STM32WBxx_HAL_Driver/Src/stm32wbxx_hal_pwr.c ****   *            @arg @ref PWR_MAINREGULATOR_ON  Stop 0 mode (main regulator ON)
 595:Drivers/STM32WBxx_HAL_Driver/Src/stm32wbxx_hal_pwr.c ****   *            @arg @ref PWR_LOWPOWERREGULATOR_ON  Stop 1 mode (low power regulator ON)
 596:Drivers/STM32WBxx_HAL_Driver/Src/stm32wbxx_hal_pwr.c ****   * @param STOPEntry Specifies Stop 0, Stop 1 or Stop 2 mode is entered with WFI or WFE instruction
 597:Drivers/STM32WBxx_HAL_Driver/Src/stm32wbxx_hal_pwr.c ****   *          This parameter can be one of the following values:
 598:Drivers/STM32WBxx_HAL_Driver/Src/stm32wbxx_hal_pwr.c ****   *            @arg @ref PWR_STOPENTRY_WFI  Enter Stop 0 or Stop 1 mode with WFI instruction.
 599:Drivers/STM32WBxx_HAL_Driver/Src/stm32wbxx_hal_pwr.c ****   *            @arg @ref PWR_STOPENTRY_WFE  Enter Stop 0 or Stop 1 mode with WFE instruction.
 600:Drivers/STM32WBxx_HAL_Driver/Src/stm32wbxx_hal_pwr.c ****   * @retval None
 601:Drivers/STM32WBxx_HAL_Driver/Src/stm32wbxx_hal_pwr.c ****   */
 602:Drivers/STM32WBxx_HAL_Driver/Src/stm32wbxx_hal_pwr.c **** void HAL_PWR_EnterSTOPMode(uint32_t Regulator, uint8_t STOPEntry)
 603:Drivers/STM32WBxx_HAL_Driver/Src/stm32wbxx_hal_pwr.c **** {
 1032              		.loc 1 603 1
 1033              		.cfi_startproc
 1034              		@ args = 0, pretend = 0, frame = 8
 1035              		@ frame_needed = 1, uses_anonymous_args = 0
 1036 0000 80B5     		push	{r7, lr}
 1037              	.LCFI84:
 1038              		.cfi_def_cfa_offset 8
 1039              		.cfi_offset 7, -8
 1040              		.cfi_offset 14, -4
 1041 0002 82B0     		sub	sp, sp, #8
 1042              	.LCFI85:
 1043              		.cfi_def_cfa_offset 16
 1044 0004 00AF     		add	r7, sp, #0
 1045              	.LCFI86:
 1046              		.cfi_def_cfa_register 7
 1047 0006 7860     		str	r0, [r7, #4]
 1048 0008 0B46     		mov	r3, r1
 1049 000a FB70     		strb	r3, [r7, #3]
 604:Drivers/STM32WBxx_HAL_Driver/Src/stm32wbxx_hal_pwr.c ****   /* Check the parameters */
 605:Drivers/STM32WBxx_HAL_Driver/Src/stm32wbxx_hal_pwr.c ****   assert_param(IS_PWR_REGULATOR(Regulator));
 606:Drivers/STM32WBxx_HAL_Driver/Src/stm32wbxx_hal_pwr.c **** 
 607:Drivers/STM32WBxx_HAL_Driver/Src/stm32wbxx_hal_pwr.c ****   if (Regulator == PWR_LOWPOWERREGULATOR_ON)
ARM GAS  C:\Users\alanl\AppData\Local\Temp\ccf1ENHg.s 			page 52


 1050              		.loc 1 607 6
 1051 000c 7B68     		ldr	r3, [r7, #4]
 1052 000e B3F5804F 		cmp	r3, #16384
 1053 0012 04D1     		bne	.L58
 608:Drivers/STM32WBxx_HAL_Driver/Src/stm32wbxx_hal_pwr.c ****   {
 609:Drivers/STM32WBxx_HAL_Driver/Src/stm32wbxx_hal_pwr.c ****     HAL_PWREx_EnterSTOP1Mode(STOPEntry);
 1054              		.loc 1 609 5
 1055 0014 FB78     		ldrb	r3, [r7, #3]	@ zero_extendqisi2
 1056 0016 1846     		mov	r0, r3
 1057 0018 FFF7FEFF 		bl	HAL_PWREx_EnterSTOP1Mode
 610:Drivers/STM32WBxx_HAL_Driver/Src/stm32wbxx_hal_pwr.c ****   }
 611:Drivers/STM32WBxx_HAL_Driver/Src/stm32wbxx_hal_pwr.c ****   else
 612:Drivers/STM32WBxx_HAL_Driver/Src/stm32wbxx_hal_pwr.c ****   {
 613:Drivers/STM32WBxx_HAL_Driver/Src/stm32wbxx_hal_pwr.c ****     HAL_PWREx_EnterSTOP0Mode(STOPEntry);
 614:Drivers/STM32WBxx_HAL_Driver/Src/stm32wbxx_hal_pwr.c ****   }
 615:Drivers/STM32WBxx_HAL_Driver/Src/stm32wbxx_hal_pwr.c **** }
 1058              		.loc 1 615 1
 1059 001c 03E0     		b	.L60
 1060              	.L58:
 613:Drivers/STM32WBxx_HAL_Driver/Src/stm32wbxx_hal_pwr.c ****   }
 1061              		.loc 1 613 5
 1062 001e FB78     		ldrb	r3, [r7, #3]	@ zero_extendqisi2
 1063 0020 1846     		mov	r0, r3
 1064 0022 FFF7FEFF 		bl	HAL_PWREx_EnterSTOP0Mode
 1065              	.L60:
 1066              		.loc 1 615 1
 1067 0026 00BF     		nop
 1068 0028 0837     		adds	r7, r7, #8
 1069              	.LCFI87:
 1070              		.cfi_def_cfa_offset 8
 1071 002a BD46     		mov	sp, r7
 1072              	.LCFI88:
 1073              		.cfi_def_cfa_register 13
 1074              		@ sp needed
 1075 002c 80BD     		pop	{r7, pc}
 1076              		.cfi_endproc
 1077              	.LFE959:
 1079              		.section	.text.HAL_PWR_EnterSTANDBYMode,"ax",%progbits
 1080              		.align	1
 1081              		.global	HAL_PWR_EnterSTANDBYMode
 1082              		.syntax unified
 1083              		.thumb
 1084              		.thumb_func
 1086              	HAL_PWR_EnterSTANDBYMode:
 1087              	.LFB960:
 616:Drivers/STM32WBxx_HAL_Driver/Src/stm32wbxx_hal_pwr.c **** 
 617:Drivers/STM32WBxx_HAL_Driver/Src/stm32wbxx_hal_pwr.c **** 
 618:Drivers/STM32WBxx_HAL_Driver/Src/stm32wbxx_hal_pwr.c **** /**
 619:Drivers/STM32WBxx_HAL_Driver/Src/stm32wbxx_hal_pwr.c ****   * @brief Enter Standby mode.
 620:Drivers/STM32WBxx_HAL_Driver/Src/stm32wbxx_hal_pwr.c ****   * @note  In Standby mode, the PLL, the HSI, the MSI and the HSE oscillators are switched
 621:Drivers/STM32WBxx_HAL_Driver/Src/stm32wbxx_hal_pwr.c ****   *        off. The voltage regulator is disabled, except when BKRAM content is preserved
 622:Drivers/STM32WBxx_HAL_Driver/Src/stm32wbxx_hal_pwr.c ****   *        in which case the regulator is in low-power mode.
 623:Drivers/STM32WBxx_HAL_Driver/Src/stm32wbxx_hal_pwr.c ****   *        SRAM and register contents are lost except for registers in the Backup domain and
 624:Drivers/STM32WBxx_HAL_Driver/Src/stm32wbxx_hal_pwr.c ****   *        Standby circuitry. BKRAM content can be preserved if the bit RRS is set in PWR_CR3 regis
 625:Drivers/STM32WBxx_HAL_Driver/Src/stm32wbxx_hal_pwr.c ****   *        To enable this feature, the user can resort to HAL_PWREx_EnableBKRAMContentRetention() A
 626:Drivers/STM32WBxx_HAL_Driver/Src/stm32wbxx_hal_pwr.c ****   *        to set RRS bit.
 627:Drivers/STM32WBxx_HAL_Driver/Src/stm32wbxx_hal_pwr.c ****   *        The BOR is available.
ARM GAS  C:\Users\alanl\AppData\Local\Temp\ccf1ENHg.s 			page 53


 628:Drivers/STM32WBxx_HAL_Driver/Src/stm32wbxx_hal_pwr.c ****   * @note  The I/Os can be configured either with a pull-up or pull-down or can be kept in analog s
 629:Drivers/STM32WBxx_HAL_Driver/Src/stm32wbxx_hal_pwr.c ****   *        HAL_PWREx_EnableGPIOPullUp() and HAL_PWREx_EnableGPIOPullDown() respectively enable Pull
 630:Drivers/STM32WBxx_HAL_Driver/Src/stm32wbxx_hal_pwr.c ****   *        Pull Down state, HAL_PWREx_DisableGPIOPullUp() and HAL_PWREx_DisableGPIOPullDown() disab
 631:Drivers/STM32WBxx_HAL_Driver/Src/stm32wbxx_hal_pwr.c ****   *        same.
 632:Drivers/STM32WBxx_HAL_Driver/Src/stm32wbxx_hal_pwr.c ****   *        These states are effective in Standby mode only if APC bit is set through
 633:Drivers/STM32WBxx_HAL_Driver/Src/stm32wbxx_hal_pwr.c ****   *        HAL_PWREx_EnablePullUpPullDownConfig() API.
 634:Drivers/STM32WBxx_HAL_Driver/Src/stm32wbxx_hal_pwr.c ****   * @note  According to system power policy, system entering in Standby mode
 635:Drivers/STM32WBxx_HAL_Driver/Src/stm32wbxx_hal_pwr.c ****   *        is depending on other CPU power mode.
 636:Drivers/STM32WBxx_HAL_Driver/Src/stm32wbxx_hal_pwr.c ****   * @retval None
 637:Drivers/STM32WBxx_HAL_Driver/Src/stm32wbxx_hal_pwr.c ****   */
 638:Drivers/STM32WBxx_HAL_Driver/Src/stm32wbxx_hal_pwr.c **** void HAL_PWR_EnterSTANDBYMode(void)
 639:Drivers/STM32WBxx_HAL_Driver/Src/stm32wbxx_hal_pwr.c **** {
 1088              		.loc 1 639 1
 1089              		.cfi_startproc
 1090              		@ args = 0, pretend = 0, frame = 0
 1091              		@ frame_needed = 1, uses_anonymous_args = 0
 1092              		@ link register save eliminated.
 1093 0000 80B4     		push	{r7}
 1094              	.LCFI89:
 1095              		.cfi_def_cfa_offset 4
 1096              		.cfi_offset 7, -4
 1097 0002 00AF     		add	r7, sp, #0
 1098              	.LCFI90:
 1099              		.cfi_def_cfa_register 7
 640:Drivers/STM32WBxx_HAL_Driver/Src/stm32wbxx_hal_pwr.c ****   /* Set Stand-by mode */
 641:Drivers/STM32WBxx_HAL_Driver/Src/stm32wbxx_hal_pwr.c ****   MODIFY_REG(PWR->CR1, PWR_CR1_LPMS, PWR_LOWPOWERMODE_STANDBY);
 1100              		.loc 1 641 3
 1101 0004 0C4B     		ldr	r3, .L62
 1102 0006 1B68     		ldr	r3, [r3]
 1103 0008 23F00703 		bic	r3, r3, #7
 1104 000c 0A4A     		ldr	r2, .L62
 1105 000e 43F00303 		orr	r3, r3, #3
 1106 0012 1360     		str	r3, [r2]
 642:Drivers/STM32WBxx_HAL_Driver/Src/stm32wbxx_hal_pwr.c **** 
 643:Drivers/STM32WBxx_HAL_Driver/Src/stm32wbxx_hal_pwr.c ****   /* Set SLEEPDEEP bit of Cortex System Control Register */
 644:Drivers/STM32WBxx_HAL_Driver/Src/stm32wbxx_hal_pwr.c ****   SET_BIT(SCB->SCR, ((uint32_t)SCB_SCR_SLEEPDEEP_Msk));
 1107              		.loc 1 644 3
 1108 0014 094B     		ldr	r3, .L62+4
 1109 0016 1B69     		ldr	r3, [r3, #16]
 1110 0018 084A     		ldr	r2, .L62+4
 1111 001a 43F00403 		orr	r3, r3, #4
 1112 001e 1361     		str	r3, [r2, #16]
 645:Drivers/STM32WBxx_HAL_Driver/Src/stm32wbxx_hal_pwr.c **** 
 646:Drivers/STM32WBxx_HAL_Driver/Src/stm32wbxx_hal_pwr.c ****   /* This option is used to ensure that store operations are completed */
 647:Drivers/STM32WBxx_HAL_Driver/Src/stm32wbxx_hal_pwr.c **** #if defined (__CC_ARM)
 648:Drivers/STM32WBxx_HAL_Driver/Src/stm32wbxx_hal_pwr.c ****   __force_stores();
 649:Drivers/STM32WBxx_HAL_Driver/Src/stm32wbxx_hal_pwr.c **** #endif /* __CC_ARM */
 650:Drivers/STM32WBxx_HAL_Driver/Src/stm32wbxx_hal_pwr.c **** 
 651:Drivers/STM32WBxx_HAL_Driver/Src/stm32wbxx_hal_pwr.c ****   /* Request Wait For Interrupt */
 652:Drivers/STM32WBxx_HAL_Driver/Src/stm32wbxx_hal_pwr.c ****   __WFI();
 1113              		.loc 1 652 3
 1114              		.syntax unified
 1115              	@ 652 "Drivers/STM32WBxx_HAL_Driver/Src/stm32wbxx_hal_pwr.c" 1
 1116 0020 30BF     		wfi
 1117              	@ 0 "" 2
 653:Drivers/STM32WBxx_HAL_Driver/Src/stm32wbxx_hal_pwr.c **** 
 654:Drivers/STM32WBxx_HAL_Driver/Src/stm32wbxx_hal_pwr.c ****   /* Following code is executed after wake up if system did not go to STANDBY
ARM GAS  C:\Users\alanl\AppData\Local\Temp\ccf1ENHg.s 			page 54


 655:Drivers/STM32WBxx_HAL_Driver/Src/stm32wbxx_hal_pwr.c ****      mode according to system power policy */
 656:Drivers/STM32WBxx_HAL_Driver/Src/stm32wbxx_hal_pwr.c **** 
 657:Drivers/STM32WBxx_HAL_Driver/Src/stm32wbxx_hal_pwr.c ****   /* Reset SLEEPDEEP bit of Cortex System Control Register */
 658:Drivers/STM32WBxx_HAL_Driver/Src/stm32wbxx_hal_pwr.c ****   CLEAR_BIT(SCB->SCR, ((uint32_t)SCB_SCR_SLEEPDEEP_Msk));
 1118              		.loc 1 658 3
 1119              		.thumb
 1120              		.syntax unified
 1121 0022 064B     		ldr	r3, .L62+4
 1122 0024 1B69     		ldr	r3, [r3, #16]
 1123 0026 054A     		ldr	r2, .L62+4
 1124 0028 23F00403 		bic	r3, r3, #4
 1125 002c 1361     		str	r3, [r2, #16]
 659:Drivers/STM32WBxx_HAL_Driver/Src/stm32wbxx_hal_pwr.c **** }
 1126              		.loc 1 659 1
 1127 002e 00BF     		nop
 1128 0030 BD46     		mov	sp, r7
 1129              	.LCFI91:
 1130              		.cfi_def_cfa_register 13
 1131              		@ sp needed
 1132 0032 5DF8047B 		ldr	r7, [sp], #4
 1133              	.LCFI92:
 1134              		.cfi_restore 7
 1135              		.cfi_def_cfa_offset 0
 1136 0036 7047     		bx	lr
 1137              	.L63:
 1138              		.align	2
 1139              	.L62:
 1140 0038 00040058 		.word	1476396032
 1141 003c 00ED00E0 		.word	-536810240
 1142              		.cfi_endproc
 1143              	.LFE960:
 1145              		.section	.text.HAL_PWR_EnableSleepOnExit,"ax",%progbits
 1146              		.align	1
 1147              		.global	HAL_PWR_EnableSleepOnExit
 1148              		.syntax unified
 1149              		.thumb
 1150              		.thumb_func
 1152              	HAL_PWR_EnableSleepOnExit:
 1153              	.LFB961:
 660:Drivers/STM32WBxx_HAL_Driver/Src/stm32wbxx_hal_pwr.c **** 
 661:Drivers/STM32WBxx_HAL_Driver/Src/stm32wbxx_hal_pwr.c **** /**
 662:Drivers/STM32WBxx_HAL_Driver/Src/stm32wbxx_hal_pwr.c ****   * @brief  Indicate Sleep-On-Exit when returning from Handler mode to Thread mode.
 663:Drivers/STM32WBxx_HAL_Driver/Src/stm32wbxx_hal_pwr.c ****   * @note   Set SLEEPONEXIT bit of SCR register. When this bit is set, the processor
 664:Drivers/STM32WBxx_HAL_Driver/Src/stm32wbxx_hal_pwr.c ****   *         re-enters SLEEP mode when an interruption handling is over.
 665:Drivers/STM32WBxx_HAL_Driver/Src/stm32wbxx_hal_pwr.c ****   *         Setting this bit is useful when the processor is expected to run only on
 666:Drivers/STM32WBxx_HAL_Driver/Src/stm32wbxx_hal_pwr.c ****   *         interruptions handling.
 667:Drivers/STM32WBxx_HAL_Driver/Src/stm32wbxx_hal_pwr.c ****   * @retval None
 668:Drivers/STM32WBxx_HAL_Driver/Src/stm32wbxx_hal_pwr.c ****   */
 669:Drivers/STM32WBxx_HAL_Driver/Src/stm32wbxx_hal_pwr.c **** void HAL_PWR_EnableSleepOnExit(void)
 670:Drivers/STM32WBxx_HAL_Driver/Src/stm32wbxx_hal_pwr.c **** {
 1154              		.loc 1 670 1
 1155              		.cfi_startproc
 1156              		@ args = 0, pretend = 0, frame = 0
 1157              		@ frame_needed = 1, uses_anonymous_args = 0
 1158              		@ link register save eliminated.
 1159 0000 80B4     		push	{r7}
 1160              	.LCFI93:
ARM GAS  C:\Users\alanl\AppData\Local\Temp\ccf1ENHg.s 			page 55


 1161              		.cfi_def_cfa_offset 4
 1162              		.cfi_offset 7, -4
 1163 0002 00AF     		add	r7, sp, #0
 1164              	.LCFI94:
 1165              		.cfi_def_cfa_register 7
 671:Drivers/STM32WBxx_HAL_Driver/Src/stm32wbxx_hal_pwr.c ****   /* Set SLEEPONEXIT bit of Cortex System Control Register */
 672:Drivers/STM32WBxx_HAL_Driver/Src/stm32wbxx_hal_pwr.c ****   SET_BIT(SCB->SCR, ((uint32_t)SCB_SCR_SLEEPONEXIT_Msk));
 1166              		.loc 1 672 3
 1167 0004 054B     		ldr	r3, .L65
 1168 0006 1B69     		ldr	r3, [r3, #16]
 1169 0008 044A     		ldr	r2, .L65
 1170 000a 43F00203 		orr	r3, r3, #2
 1171 000e 1361     		str	r3, [r2, #16]
 673:Drivers/STM32WBxx_HAL_Driver/Src/stm32wbxx_hal_pwr.c **** }
 1172              		.loc 1 673 1
 1173 0010 00BF     		nop
 1174 0012 BD46     		mov	sp, r7
 1175              	.LCFI95:
 1176              		.cfi_def_cfa_register 13
 1177              		@ sp needed
 1178 0014 5DF8047B 		ldr	r7, [sp], #4
 1179              	.LCFI96:
 1180              		.cfi_restore 7
 1181              		.cfi_def_cfa_offset 0
 1182 0018 7047     		bx	lr
 1183              	.L66:
 1184 001a 00BF     		.align	2
 1185              	.L65:
 1186 001c 00ED00E0 		.word	-536810240
 1187              		.cfi_endproc
 1188              	.LFE961:
 1190              		.section	.text.HAL_PWR_DisableSleepOnExit,"ax",%progbits
 1191              		.align	1
 1192              		.global	HAL_PWR_DisableSleepOnExit
 1193              		.syntax unified
 1194              		.thumb
 1195              		.thumb_func
 1197              	HAL_PWR_DisableSleepOnExit:
 1198              	.LFB962:
 674:Drivers/STM32WBxx_HAL_Driver/Src/stm32wbxx_hal_pwr.c **** 
 675:Drivers/STM32WBxx_HAL_Driver/Src/stm32wbxx_hal_pwr.c **** /**
 676:Drivers/STM32WBxx_HAL_Driver/Src/stm32wbxx_hal_pwr.c ****   * @brief  Disable Sleep-On-Exit feature when returning from Handler mode to Thread mode.
 677:Drivers/STM32WBxx_HAL_Driver/Src/stm32wbxx_hal_pwr.c ****   * @note   Clear SLEEPONEXIT bit of SCR register. When this bit is set, the processor
 678:Drivers/STM32WBxx_HAL_Driver/Src/stm32wbxx_hal_pwr.c ****   *         re-enters SLEEP mode when an interruption handling is over.
 679:Drivers/STM32WBxx_HAL_Driver/Src/stm32wbxx_hal_pwr.c ****   * @retval None
