ARM GAS  C:\Users\alanl\AppData\Local\Temp\ccY2aaIM.s 			page 1


   1              		.cpu cortex-m4
   2              		.arch armv7e-m
   3              		.fpu fpv4-sp-d16
   4              		.eabi_attribute 27, 1
   5              		.eabi_attribute 28, 1
   6              		.eabi_attribute 20, 1
   7              		.eabi_attribute 21, 1
   8              		.eabi_attribute 23, 3
   9              		.eabi_attribute 24, 1
  10              		.eabi_attribute 25, 1
  11              		.eabi_attribute 26, 1
  12              		.eabi_attribute 30, 6
  13              		.eabi_attribute 34, 1
  14              		.eabi_attribute 18, 4
  15              		.file	"stm32wbxx_nucleo.c"
  16              		.text
  17              	.Ltext0:
  18              		.cfi_sections	.debug_frame
  19              		.file 1 "Drivers/BSP/P-NUCLEO-WB55.Nucleo/stm32wbxx_nucleo.c"
  20              		.section	.text.LL_AHB2_GRP1_EnableClock,"ax",%progbits
  21              		.align	1
  22              		.syntax unified
  23              		.thumb
  24              		.thumb_func
  26              	LL_AHB2_GRP1_EnableClock:
  27              	.LFB716:
  28              		.file 2 "Drivers/STM32WBxx_HAL_Driver/Inc/stm32wbxx_ll_bus.h"
   1:Drivers/STM32WBxx_HAL_Driver/Inc/stm32wbxx_ll_bus.h **** /**
   2:Drivers/STM32WBxx_HAL_Driver/Inc/stm32wbxx_ll_bus.h ****   ******************************************************************************
   3:Drivers/STM32WBxx_HAL_Driver/Inc/stm32wbxx_ll_bus.h ****   * @file    stm32wbxx_ll_bus.h
   4:Drivers/STM32WBxx_HAL_Driver/Inc/stm32wbxx_ll_bus.h ****   * @author  MCD Application Team
   5:Drivers/STM32WBxx_HAL_Driver/Inc/stm32wbxx_ll_bus.h ****   * @brief   Header file of BUS LL module.
   6:Drivers/STM32WBxx_HAL_Driver/Inc/stm32wbxx_ll_bus.h ****   ******************************************************************************
   7:Drivers/STM32WBxx_HAL_Driver/Inc/stm32wbxx_ll_bus.h ****   * @attention
   8:Drivers/STM32WBxx_HAL_Driver/Inc/stm32wbxx_ll_bus.h ****   *
   9:Drivers/STM32WBxx_HAL_Driver/Inc/stm32wbxx_ll_bus.h ****   * Copyright (c) 2019 STMicroelectronics.
  10:Drivers/STM32WBxx_HAL_Driver/Inc/stm32wbxx_ll_bus.h ****   * All rights reserved.
  11:Drivers/STM32WBxx_HAL_Driver/Inc/stm32wbxx_ll_bus.h ****   *
  12:Drivers/STM32WBxx_HAL_Driver/Inc/stm32wbxx_ll_bus.h ****   * This software is licensed under terms that can be found in the LICENSE file
  13:Drivers/STM32WBxx_HAL_Driver/Inc/stm32wbxx_ll_bus.h ****   * in the root directory of this software component.
  14:Drivers/STM32WBxx_HAL_Driver/Inc/stm32wbxx_ll_bus.h ****   * If no LICENSE file comes with this software, it is provided AS-IS.
  15:Drivers/STM32WBxx_HAL_Driver/Inc/stm32wbxx_ll_bus.h ****   *
  16:Drivers/STM32WBxx_HAL_Driver/Inc/stm32wbxx_ll_bus.h ****   ******************************************************************************
  17:Drivers/STM32WBxx_HAL_Driver/Inc/stm32wbxx_ll_bus.h ****   @verbatim
  18:Drivers/STM32WBxx_HAL_Driver/Inc/stm32wbxx_ll_bus.h ****                       ##### RCC Limitations #####
  19:Drivers/STM32WBxx_HAL_Driver/Inc/stm32wbxx_ll_bus.h ****   ==============================================================================
  20:Drivers/STM32WBxx_HAL_Driver/Inc/stm32wbxx_ll_bus.h ****     [..]
  21:Drivers/STM32WBxx_HAL_Driver/Inc/stm32wbxx_ll_bus.h ****       A delay between an RCC peripheral clock enable and the effective peripheral
  22:Drivers/STM32WBxx_HAL_Driver/Inc/stm32wbxx_ll_bus.h ****       enabling should be taken into account in order to manage the peripheral read/write
  23:Drivers/STM32WBxx_HAL_Driver/Inc/stm32wbxx_ll_bus.h ****       from/to registers.
  24:Drivers/STM32WBxx_HAL_Driver/Inc/stm32wbxx_ll_bus.h ****       (+) This delay depends on the peripheral mapping.
  25:Drivers/STM32WBxx_HAL_Driver/Inc/stm32wbxx_ll_bus.h ****         (++) AHB & APB peripherals, 1 dummy read is necessary
  26:Drivers/STM32WBxx_HAL_Driver/Inc/stm32wbxx_ll_bus.h **** 
  27:Drivers/STM32WBxx_HAL_Driver/Inc/stm32wbxx_ll_bus.h ****     [..]
  28:Drivers/STM32WBxx_HAL_Driver/Inc/stm32wbxx_ll_bus.h ****       Workarounds:
  29:Drivers/STM32WBxx_HAL_Driver/Inc/stm32wbxx_ll_bus.h ****       (#) For AHB & APB peripherals, a dummy read to the peripheral register has been
  30:Drivers/STM32WBxx_HAL_Driver/Inc/stm32wbxx_ll_bus.h ****           inserted in each LL_{BUS}_GRP{x}_EnableClock() function.
ARM GAS  C:\Users\alanl\AppData\Local\Temp\ccY2aaIM.s 			page 2


  31:Drivers/STM32WBxx_HAL_Driver/Inc/stm32wbxx_ll_bus.h **** 
  32:Drivers/STM32WBxx_HAL_Driver/Inc/stm32wbxx_ll_bus.h ****   @endverbatim
  33:Drivers/STM32WBxx_HAL_Driver/Inc/stm32wbxx_ll_bus.h ****   ******************************************************************************
  34:Drivers/STM32WBxx_HAL_Driver/Inc/stm32wbxx_ll_bus.h ****   */
  35:Drivers/STM32WBxx_HAL_Driver/Inc/stm32wbxx_ll_bus.h **** 
  36:Drivers/STM32WBxx_HAL_Driver/Inc/stm32wbxx_ll_bus.h **** /* Define to prevent recursive inclusion -------------------------------------*/
  37:Drivers/STM32WBxx_HAL_Driver/Inc/stm32wbxx_ll_bus.h **** #ifndef STM32WBxx_LL_BUS_H
  38:Drivers/STM32WBxx_HAL_Driver/Inc/stm32wbxx_ll_bus.h **** #define STM32WBxx_LL_BUS_H
  39:Drivers/STM32WBxx_HAL_Driver/Inc/stm32wbxx_ll_bus.h **** 
  40:Drivers/STM32WBxx_HAL_Driver/Inc/stm32wbxx_ll_bus.h **** #ifdef __cplusplus
  41:Drivers/STM32WBxx_HAL_Driver/Inc/stm32wbxx_ll_bus.h **** extern "C" {
  42:Drivers/STM32WBxx_HAL_Driver/Inc/stm32wbxx_ll_bus.h **** #endif
  43:Drivers/STM32WBxx_HAL_Driver/Inc/stm32wbxx_ll_bus.h **** 
  44:Drivers/STM32WBxx_HAL_Driver/Inc/stm32wbxx_ll_bus.h **** /* Includes ------------------------------------------------------------------*/
  45:Drivers/STM32WBxx_HAL_Driver/Inc/stm32wbxx_ll_bus.h **** #include "stm32wbxx.h"
  46:Drivers/STM32WBxx_HAL_Driver/Inc/stm32wbxx_ll_bus.h **** 
  47:Drivers/STM32WBxx_HAL_Driver/Inc/stm32wbxx_ll_bus.h **** /** @addtogroup STM32WBxx_LL_Driver
  48:Drivers/STM32WBxx_HAL_Driver/Inc/stm32wbxx_ll_bus.h ****   * @{
  49:Drivers/STM32WBxx_HAL_Driver/Inc/stm32wbxx_ll_bus.h ****   */
  50:Drivers/STM32WBxx_HAL_Driver/Inc/stm32wbxx_ll_bus.h **** 
  51:Drivers/STM32WBxx_HAL_Driver/Inc/stm32wbxx_ll_bus.h **** #if defined(RCC)
  52:Drivers/STM32WBxx_HAL_Driver/Inc/stm32wbxx_ll_bus.h **** 
  53:Drivers/STM32WBxx_HAL_Driver/Inc/stm32wbxx_ll_bus.h **** /** @defgroup BUS_LL BUS
  54:Drivers/STM32WBxx_HAL_Driver/Inc/stm32wbxx_ll_bus.h ****   * @{
  55:Drivers/STM32WBxx_HAL_Driver/Inc/stm32wbxx_ll_bus.h ****   */
  56:Drivers/STM32WBxx_HAL_Driver/Inc/stm32wbxx_ll_bus.h **** 
  57:Drivers/STM32WBxx_HAL_Driver/Inc/stm32wbxx_ll_bus.h **** /* Private types -------------------------------------------------------------*/
  58:Drivers/STM32WBxx_HAL_Driver/Inc/stm32wbxx_ll_bus.h **** /* Private variables ---------------------------------------------------------*/
  59:Drivers/STM32WBxx_HAL_Driver/Inc/stm32wbxx_ll_bus.h **** 
  60:Drivers/STM32WBxx_HAL_Driver/Inc/stm32wbxx_ll_bus.h **** /* Private constants ---------------------------------------------------------*/
  61:Drivers/STM32WBxx_HAL_Driver/Inc/stm32wbxx_ll_bus.h **** 
  62:Drivers/STM32WBxx_HAL_Driver/Inc/stm32wbxx_ll_bus.h **** /* Private macros ------------------------------------------------------------*/
  63:Drivers/STM32WBxx_HAL_Driver/Inc/stm32wbxx_ll_bus.h **** 
  64:Drivers/STM32WBxx_HAL_Driver/Inc/stm32wbxx_ll_bus.h **** /* Exported types ------------------------------------------------------------*/
  65:Drivers/STM32WBxx_HAL_Driver/Inc/stm32wbxx_ll_bus.h **** 
  66:Drivers/STM32WBxx_HAL_Driver/Inc/stm32wbxx_ll_bus.h **** /* Exported constants --------------------------------------------------------*/
  67:Drivers/STM32WBxx_HAL_Driver/Inc/stm32wbxx_ll_bus.h **** /** @defgroup BUS_LL_Exported_Constants BUS Exported Constants
  68:Drivers/STM32WBxx_HAL_Driver/Inc/stm32wbxx_ll_bus.h ****   * @{
  69:Drivers/STM32WBxx_HAL_Driver/Inc/stm32wbxx_ll_bus.h ****   */
  70:Drivers/STM32WBxx_HAL_Driver/Inc/stm32wbxx_ll_bus.h **** 
  71:Drivers/STM32WBxx_HAL_Driver/Inc/stm32wbxx_ll_bus.h **** /** @defgroup BUS_LL_EC_AHB1_GRP1_PERIPH  AHB1 GRP1 PERIPH
  72:Drivers/STM32WBxx_HAL_Driver/Inc/stm32wbxx_ll_bus.h ****   * @{
  73:Drivers/STM32WBxx_HAL_Driver/Inc/stm32wbxx_ll_bus.h ****   */
  74:Drivers/STM32WBxx_HAL_Driver/Inc/stm32wbxx_ll_bus.h **** #define LL_AHB1_GRP1_PERIPH_ALL            (0xFFFFFFFFU)
  75:Drivers/STM32WBxx_HAL_Driver/Inc/stm32wbxx_ll_bus.h **** 
  76:Drivers/STM32WBxx_HAL_Driver/Inc/stm32wbxx_ll_bus.h **** #define LL_AHB1_GRP1_PERIPH_DMA1           RCC_AHB1ENR_DMA1EN
  77:Drivers/STM32WBxx_HAL_Driver/Inc/stm32wbxx_ll_bus.h **** #if defined(DMA2)
  78:Drivers/STM32WBxx_HAL_Driver/Inc/stm32wbxx_ll_bus.h **** #define LL_AHB1_GRP1_PERIPH_DMA2           RCC_AHB1ENR_DMA2EN
  79:Drivers/STM32WBxx_HAL_Driver/Inc/stm32wbxx_ll_bus.h **** #endif /* DMA2 */
  80:Drivers/STM32WBxx_HAL_Driver/Inc/stm32wbxx_ll_bus.h **** #define LL_AHB1_GRP1_PERIPH_DMAMUX1        RCC_AHB1ENR_DMAMUX1EN
  81:Drivers/STM32WBxx_HAL_Driver/Inc/stm32wbxx_ll_bus.h **** #define LL_AHB1_GRP1_PERIPH_SRAM1          RCC_AHB1SMENR_SRAM1SMEN
  82:Drivers/STM32WBxx_HAL_Driver/Inc/stm32wbxx_ll_bus.h **** #define LL_AHB1_GRP1_PERIPH_CRC            RCC_AHB1ENR_CRCEN
  83:Drivers/STM32WBxx_HAL_Driver/Inc/stm32wbxx_ll_bus.h **** #if defined(TSC)
  84:Drivers/STM32WBxx_HAL_Driver/Inc/stm32wbxx_ll_bus.h **** #define LL_AHB1_GRP1_PERIPH_TSC            RCC_AHB1ENR_TSCEN
  85:Drivers/STM32WBxx_HAL_Driver/Inc/stm32wbxx_ll_bus.h **** #endif /* TSC */
  86:Drivers/STM32WBxx_HAL_Driver/Inc/stm32wbxx_ll_bus.h **** /**
  87:Drivers/STM32WBxx_HAL_Driver/Inc/stm32wbxx_ll_bus.h ****   * @}
ARM GAS  C:\Users\alanl\AppData\Local\Temp\ccY2aaIM.s 			page 3


  88:Drivers/STM32WBxx_HAL_Driver/Inc/stm32wbxx_ll_bus.h ****   */
  89:Drivers/STM32WBxx_HAL_Driver/Inc/stm32wbxx_ll_bus.h **** 
  90:Drivers/STM32WBxx_HAL_Driver/Inc/stm32wbxx_ll_bus.h **** /** @defgroup BUS_LL_EC_AHB2_GRP1_PERIPH  AHB2 GRP1 PERIPH
  91:Drivers/STM32WBxx_HAL_Driver/Inc/stm32wbxx_ll_bus.h ****   * @{
  92:Drivers/STM32WBxx_HAL_Driver/Inc/stm32wbxx_ll_bus.h ****   */
  93:Drivers/STM32WBxx_HAL_Driver/Inc/stm32wbxx_ll_bus.h **** #define LL_AHB2_GRP1_PERIPH_ALL            (0xFFFFFFFFU)
  94:Drivers/STM32WBxx_HAL_Driver/Inc/stm32wbxx_ll_bus.h **** 
  95:Drivers/STM32WBxx_HAL_Driver/Inc/stm32wbxx_ll_bus.h **** #define LL_AHB2_GRP1_PERIPH_GPIOA          RCC_AHB2ENR_GPIOAEN
  96:Drivers/STM32WBxx_HAL_Driver/Inc/stm32wbxx_ll_bus.h **** #define LL_AHB2_GRP1_PERIPH_GPIOB          RCC_AHB2ENR_GPIOBEN
  97:Drivers/STM32WBxx_HAL_Driver/Inc/stm32wbxx_ll_bus.h **** #define LL_AHB2_GRP1_PERIPH_GPIOC          RCC_AHB2ENR_GPIOCEN
  98:Drivers/STM32WBxx_HAL_Driver/Inc/stm32wbxx_ll_bus.h **** #if defined(GPIOD)
  99:Drivers/STM32WBxx_HAL_Driver/Inc/stm32wbxx_ll_bus.h **** #define LL_AHB2_GRP1_PERIPH_GPIOD          RCC_AHB2ENR_GPIODEN
 100:Drivers/STM32WBxx_HAL_Driver/Inc/stm32wbxx_ll_bus.h **** #endif /* GPIOD */
 101:Drivers/STM32WBxx_HAL_Driver/Inc/stm32wbxx_ll_bus.h **** #define LL_AHB2_GRP1_PERIPH_GPIOE          RCC_AHB2ENR_GPIOEEN
 102:Drivers/STM32WBxx_HAL_Driver/Inc/stm32wbxx_ll_bus.h **** #define LL_AHB2_GRP1_PERIPH_GPIOH          RCC_AHB2ENR_GPIOHEN
 103:Drivers/STM32WBxx_HAL_Driver/Inc/stm32wbxx_ll_bus.h **** #if defined(ADC_SUPPORT_5_MSPS)
 104:Drivers/STM32WBxx_HAL_Driver/Inc/stm32wbxx_ll_bus.h **** #define LL_AHB2_GRP1_PERIPH_ADC            RCC_AHB2ENR_ADCEN
 105:Drivers/STM32WBxx_HAL_Driver/Inc/stm32wbxx_ll_bus.h **** #endif /* ADC_SUPPORT_5_MSPS */
 106:Drivers/STM32WBxx_HAL_Driver/Inc/stm32wbxx_ll_bus.h **** #if defined(AES1)
 107:Drivers/STM32WBxx_HAL_Driver/Inc/stm32wbxx_ll_bus.h **** #define LL_AHB2_GRP1_PERIPH_AES1           RCC_AHB2ENR_AES1EN
 108:Drivers/STM32WBxx_HAL_Driver/Inc/stm32wbxx_ll_bus.h **** #endif /* AES1 */
 109:Drivers/STM32WBxx_HAL_Driver/Inc/stm32wbxx_ll_bus.h **** /**
 110:Drivers/STM32WBxx_HAL_Driver/Inc/stm32wbxx_ll_bus.h ****   * @}
 111:Drivers/STM32WBxx_HAL_Driver/Inc/stm32wbxx_ll_bus.h ****   */
 112:Drivers/STM32WBxx_HAL_Driver/Inc/stm32wbxx_ll_bus.h **** 
 113:Drivers/STM32WBxx_HAL_Driver/Inc/stm32wbxx_ll_bus.h **** /** @defgroup BUS_LL_EC_AHB3_GRP1_PERIPH  AHB3 GRP1 PERIPH
 114:Drivers/STM32WBxx_HAL_Driver/Inc/stm32wbxx_ll_bus.h ****   * @{
 115:Drivers/STM32WBxx_HAL_Driver/Inc/stm32wbxx_ll_bus.h ****   */
 116:Drivers/STM32WBxx_HAL_Driver/Inc/stm32wbxx_ll_bus.h **** #define LL_AHB3_GRP1_PERIPH_ALL            (0xFFFFFFFFU)
 117:Drivers/STM32WBxx_HAL_Driver/Inc/stm32wbxx_ll_bus.h **** #if defined(QUADSPI)
 118:Drivers/STM32WBxx_HAL_Driver/Inc/stm32wbxx_ll_bus.h **** #define LL_AHB3_GRP1_PERIPH_QUADSPI        RCC_AHB3ENR_QUADSPIEN
 119:Drivers/STM32WBxx_HAL_Driver/Inc/stm32wbxx_ll_bus.h **** #endif /* QUADSPI */
 120:Drivers/STM32WBxx_HAL_Driver/Inc/stm32wbxx_ll_bus.h **** #define LL_AHB3_GRP1_PERIPH_PKA            RCC_AHB3ENR_PKAEN
 121:Drivers/STM32WBxx_HAL_Driver/Inc/stm32wbxx_ll_bus.h **** #define LL_AHB3_GRP1_PERIPH_AES2           RCC_AHB3ENR_AES2EN
 122:Drivers/STM32WBxx_HAL_Driver/Inc/stm32wbxx_ll_bus.h **** #define LL_AHB3_GRP1_PERIPH_RNG            RCC_AHB3ENR_RNGEN
 123:Drivers/STM32WBxx_HAL_Driver/Inc/stm32wbxx_ll_bus.h **** #define LL_AHB3_GRP1_PERIPH_HSEM           RCC_AHB3ENR_HSEMEN
 124:Drivers/STM32WBxx_HAL_Driver/Inc/stm32wbxx_ll_bus.h **** #define LL_AHB3_GRP1_PERIPH_IPCC           RCC_AHB3ENR_IPCCEN
 125:Drivers/STM32WBxx_HAL_Driver/Inc/stm32wbxx_ll_bus.h **** #define LL_AHB3_GRP1_PERIPH_SRAM2          RCC_AHB3SMENR_SRAM2SMEN
 126:Drivers/STM32WBxx_HAL_Driver/Inc/stm32wbxx_ll_bus.h **** #define LL_AHB3_GRP1_PERIPH_FLASH          RCC_AHB3ENR_FLASHEN
 127:Drivers/STM32WBxx_HAL_Driver/Inc/stm32wbxx_ll_bus.h **** /**
 128:Drivers/STM32WBxx_HAL_Driver/Inc/stm32wbxx_ll_bus.h ****   * @}
 129:Drivers/STM32WBxx_HAL_Driver/Inc/stm32wbxx_ll_bus.h ****   */
 130:Drivers/STM32WBxx_HAL_Driver/Inc/stm32wbxx_ll_bus.h **** 
 131:Drivers/STM32WBxx_HAL_Driver/Inc/stm32wbxx_ll_bus.h **** /** @defgroup BUS_LL_EC_APB1_GRP1_PERIPH  APB1 GRP1 PERIPH
 132:Drivers/STM32WBxx_HAL_Driver/Inc/stm32wbxx_ll_bus.h ****   * @{
 133:Drivers/STM32WBxx_HAL_Driver/Inc/stm32wbxx_ll_bus.h ****   */
 134:Drivers/STM32WBxx_HAL_Driver/Inc/stm32wbxx_ll_bus.h **** #define LL_APB1_GRP1_PERIPH_ALL            (0xFFFFFFFFU)
 135:Drivers/STM32WBxx_HAL_Driver/Inc/stm32wbxx_ll_bus.h **** #define LL_APB1_GRP1_PERIPH_TIM2           RCC_APB1ENR1_TIM2EN
 136:Drivers/STM32WBxx_HAL_Driver/Inc/stm32wbxx_ll_bus.h **** #if defined(LCD)
 137:Drivers/STM32WBxx_HAL_Driver/Inc/stm32wbxx_ll_bus.h **** #define LL_APB1_GRP1_PERIPH_LCD            RCC_APB1ENR1_LCDEN
 138:Drivers/STM32WBxx_HAL_Driver/Inc/stm32wbxx_ll_bus.h **** #endif /* LCD */
 139:Drivers/STM32WBxx_HAL_Driver/Inc/stm32wbxx_ll_bus.h **** #define LL_APB1_GRP1_PERIPH_RTCAPB         RCC_APB1ENR1_RTCAPBEN
 140:Drivers/STM32WBxx_HAL_Driver/Inc/stm32wbxx_ll_bus.h **** #define LL_APB1_GRP1_PERIPH_WWDG           RCC_APB1ENR1_WWDGEN
 141:Drivers/STM32WBxx_HAL_Driver/Inc/stm32wbxx_ll_bus.h **** #if defined(SPI2)
 142:Drivers/STM32WBxx_HAL_Driver/Inc/stm32wbxx_ll_bus.h **** #define LL_APB1_GRP1_PERIPH_SPI2           RCC_APB1ENR1_SPI2EN
 143:Drivers/STM32WBxx_HAL_Driver/Inc/stm32wbxx_ll_bus.h **** #endif /* SPI2 */
 144:Drivers/STM32WBxx_HAL_Driver/Inc/stm32wbxx_ll_bus.h **** #define LL_APB1_GRP1_PERIPH_I2C1           RCC_APB1ENR1_I2C1EN
ARM GAS  C:\Users\alanl\AppData\Local\Temp\ccY2aaIM.s 			page 4


 145:Drivers/STM32WBxx_HAL_Driver/Inc/stm32wbxx_ll_bus.h **** #if defined(I2C3)
 146:Drivers/STM32WBxx_HAL_Driver/Inc/stm32wbxx_ll_bus.h **** #define LL_APB1_GRP1_PERIPH_I2C3           RCC_APB1ENR1_I2C3EN
 147:Drivers/STM32WBxx_HAL_Driver/Inc/stm32wbxx_ll_bus.h **** #endif /* I2C3 */
 148:Drivers/STM32WBxx_HAL_Driver/Inc/stm32wbxx_ll_bus.h **** #if defined(CRS)
 149:Drivers/STM32WBxx_HAL_Driver/Inc/stm32wbxx_ll_bus.h **** #define LL_APB1_GRP1_PERIPH_CRS            RCC_APB1ENR1_CRSEN
 150:Drivers/STM32WBxx_HAL_Driver/Inc/stm32wbxx_ll_bus.h **** #endif /* CRS */
 151:Drivers/STM32WBxx_HAL_Driver/Inc/stm32wbxx_ll_bus.h **** #if defined(USB)
 152:Drivers/STM32WBxx_HAL_Driver/Inc/stm32wbxx_ll_bus.h **** #define LL_APB1_GRP1_PERIPH_USB            RCC_APB1ENR1_USBEN
 153:Drivers/STM32WBxx_HAL_Driver/Inc/stm32wbxx_ll_bus.h **** #endif /* USB */
 154:Drivers/STM32WBxx_HAL_Driver/Inc/stm32wbxx_ll_bus.h **** #define LL_APB1_GRP1_PERIPH_LPTIM1         RCC_APB1ENR1_LPTIM1EN
 155:Drivers/STM32WBxx_HAL_Driver/Inc/stm32wbxx_ll_bus.h **** /**
 156:Drivers/STM32WBxx_HAL_Driver/Inc/stm32wbxx_ll_bus.h ****   * @}
 157:Drivers/STM32WBxx_HAL_Driver/Inc/stm32wbxx_ll_bus.h ****   */
 158:Drivers/STM32WBxx_HAL_Driver/Inc/stm32wbxx_ll_bus.h **** 
 159:Drivers/STM32WBxx_HAL_Driver/Inc/stm32wbxx_ll_bus.h **** 
 160:Drivers/STM32WBxx_HAL_Driver/Inc/stm32wbxx_ll_bus.h **** /** @defgroup BUS_LL_EC_APB1_GRP2_PERIPH  APB1 GRP2 PERIPH
 161:Drivers/STM32WBxx_HAL_Driver/Inc/stm32wbxx_ll_bus.h ****   * @{
 162:Drivers/STM32WBxx_HAL_Driver/Inc/stm32wbxx_ll_bus.h ****   */
 163:Drivers/STM32WBxx_HAL_Driver/Inc/stm32wbxx_ll_bus.h **** #define LL_APB1_GRP2_PERIPH_ALL            (0xFFFFFFFFU)
 164:Drivers/STM32WBxx_HAL_Driver/Inc/stm32wbxx_ll_bus.h **** 
 165:Drivers/STM32WBxx_HAL_Driver/Inc/stm32wbxx_ll_bus.h **** #if defined(LPUART1)
 166:Drivers/STM32WBxx_HAL_Driver/Inc/stm32wbxx_ll_bus.h **** #define LL_APB1_GRP2_PERIPH_LPUART1        RCC_APB1ENR2_LPUART1EN
 167:Drivers/STM32WBxx_HAL_Driver/Inc/stm32wbxx_ll_bus.h **** #endif /* LPUART1 */
 168:Drivers/STM32WBxx_HAL_Driver/Inc/stm32wbxx_ll_bus.h **** #define LL_APB1_GRP2_PERIPH_LPTIM2         RCC_APB1ENR2_LPTIM2EN
 169:Drivers/STM32WBxx_HAL_Driver/Inc/stm32wbxx_ll_bus.h **** /**
 170:Drivers/STM32WBxx_HAL_Driver/Inc/stm32wbxx_ll_bus.h ****   * @}
 171:Drivers/STM32WBxx_HAL_Driver/Inc/stm32wbxx_ll_bus.h ****   */
 172:Drivers/STM32WBxx_HAL_Driver/Inc/stm32wbxx_ll_bus.h **** 
 173:Drivers/STM32WBxx_HAL_Driver/Inc/stm32wbxx_ll_bus.h **** /** @defgroup BUS_LL_EC_APB2_GRP1_PERIPH  APB2 GRP1 PERIPH
 174:Drivers/STM32WBxx_HAL_Driver/Inc/stm32wbxx_ll_bus.h ****   * @{
 175:Drivers/STM32WBxx_HAL_Driver/Inc/stm32wbxx_ll_bus.h ****   */
 176:Drivers/STM32WBxx_HAL_Driver/Inc/stm32wbxx_ll_bus.h **** #define LL_APB2_GRP1_PERIPH_ALL            (0xFFFFFFFFU)
 177:Drivers/STM32WBxx_HAL_Driver/Inc/stm32wbxx_ll_bus.h **** 
 178:Drivers/STM32WBxx_HAL_Driver/Inc/stm32wbxx_ll_bus.h **** #if defined(ADC_SUPPORT_2_5_MSPS)
 179:Drivers/STM32WBxx_HAL_Driver/Inc/stm32wbxx_ll_bus.h **** #define LL_APB2_GRP1_PERIPH_ADC            RCC_APB2ENR_ADCEN
 180:Drivers/STM32WBxx_HAL_Driver/Inc/stm32wbxx_ll_bus.h **** #endif /* ADC_SUPPORT_2_5_MSPS */
 181:Drivers/STM32WBxx_HAL_Driver/Inc/stm32wbxx_ll_bus.h **** #define LL_APB2_GRP1_PERIPH_TIM1           RCC_APB2ENR_TIM1EN
 182:Drivers/STM32WBxx_HAL_Driver/Inc/stm32wbxx_ll_bus.h **** #define LL_APB2_GRP1_PERIPH_SPI1           RCC_APB2ENR_SPI1EN
 183:Drivers/STM32WBxx_HAL_Driver/Inc/stm32wbxx_ll_bus.h **** #define LL_APB2_GRP1_PERIPH_USART1         RCC_APB2ENR_USART1EN
 184:Drivers/STM32WBxx_HAL_Driver/Inc/stm32wbxx_ll_bus.h **** #if defined(TIM16)
 185:Drivers/STM32WBxx_HAL_Driver/Inc/stm32wbxx_ll_bus.h **** #define LL_APB2_GRP1_PERIPH_TIM16          RCC_APB2ENR_TIM16EN
 186:Drivers/STM32WBxx_HAL_Driver/Inc/stm32wbxx_ll_bus.h **** #endif /* TIM16 */
 187:Drivers/STM32WBxx_HAL_Driver/Inc/stm32wbxx_ll_bus.h **** #if defined(TIM17)
 188:Drivers/STM32WBxx_HAL_Driver/Inc/stm32wbxx_ll_bus.h **** #define LL_APB2_GRP1_PERIPH_TIM17          RCC_APB2ENR_TIM17EN
 189:Drivers/STM32WBxx_HAL_Driver/Inc/stm32wbxx_ll_bus.h **** #endif /* TIM17 */
 190:Drivers/STM32WBxx_HAL_Driver/Inc/stm32wbxx_ll_bus.h **** #if defined(SAI1)
 191:Drivers/STM32WBxx_HAL_Driver/Inc/stm32wbxx_ll_bus.h **** #define LL_APB2_GRP1_PERIPH_SAI1           RCC_APB2ENR_SAI1EN
 192:Drivers/STM32WBxx_HAL_Driver/Inc/stm32wbxx_ll_bus.h **** #endif /* SAI1 */
 193:Drivers/STM32WBxx_HAL_Driver/Inc/stm32wbxx_ll_bus.h **** /**
 194:Drivers/STM32WBxx_HAL_Driver/Inc/stm32wbxx_ll_bus.h ****   * @}
 195:Drivers/STM32WBxx_HAL_Driver/Inc/stm32wbxx_ll_bus.h ****   */
 196:Drivers/STM32WBxx_HAL_Driver/Inc/stm32wbxx_ll_bus.h **** 
 197:Drivers/STM32WBxx_HAL_Driver/Inc/stm32wbxx_ll_bus.h **** /** @defgroup BUS_LL_EC_APB3_GRP1_PERIPH  APB3 GRP1 PERIPH
 198:Drivers/STM32WBxx_HAL_Driver/Inc/stm32wbxx_ll_bus.h ****   * @{
 199:Drivers/STM32WBxx_HAL_Driver/Inc/stm32wbxx_ll_bus.h ****   */
 200:Drivers/STM32WBxx_HAL_Driver/Inc/stm32wbxx_ll_bus.h **** #define LL_APB3_GRP1_PERIPH_ALL            (0xFFFFFFFFU)
 201:Drivers/STM32WBxx_HAL_Driver/Inc/stm32wbxx_ll_bus.h **** #define LL_APB3_GRP1_PERIPH_RF             RCC_APB3RSTR_RFRST
ARM GAS  C:\Users\alanl\AppData\Local\Temp\ccY2aaIM.s 			page 5


 202:Drivers/STM32WBxx_HAL_Driver/Inc/stm32wbxx_ll_bus.h **** /**
 203:Drivers/STM32WBxx_HAL_Driver/Inc/stm32wbxx_ll_bus.h ****   * @}
 204:Drivers/STM32WBxx_HAL_Driver/Inc/stm32wbxx_ll_bus.h ****   */
 205:Drivers/STM32WBxx_HAL_Driver/Inc/stm32wbxx_ll_bus.h **** 
 206:Drivers/STM32WBxx_HAL_Driver/Inc/stm32wbxx_ll_bus.h **** 
 207:Drivers/STM32WBxx_HAL_Driver/Inc/stm32wbxx_ll_bus.h **** /** @defgroup BUS_LL_EC_C2_AHB1_GRP1_PERIPH  C2 AHB1 GRP1 PERIPH
 208:Drivers/STM32WBxx_HAL_Driver/Inc/stm32wbxx_ll_bus.h ****   * @{
 209:Drivers/STM32WBxx_HAL_Driver/Inc/stm32wbxx_ll_bus.h ****   */
 210:Drivers/STM32WBxx_HAL_Driver/Inc/stm32wbxx_ll_bus.h **** #define LL_C2_AHB1_GRP1_PERIPH_DMA1         RCC_C2AHB1ENR_DMA1EN
 211:Drivers/STM32WBxx_HAL_Driver/Inc/stm32wbxx_ll_bus.h **** #if defined(DMA2)
 212:Drivers/STM32WBxx_HAL_Driver/Inc/stm32wbxx_ll_bus.h **** #define LL_C2_AHB1_GRP1_PERIPH_DMA2         RCC_C2AHB1ENR_DMA2EN
 213:Drivers/STM32WBxx_HAL_Driver/Inc/stm32wbxx_ll_bus.h **** #endif /* DMA2 */
 214:Drivers/STM32WBxx_HAL_Driver/Inc/stm32wbxx_ll_bus.h **** #define LL_C2_AHB1_GRP1_PERIPH_DMAMUX1      RCC_C2AHB1ENR_DMAMUX1EN
 215:Drivers/STM32WBxx_HAL_Driver/Inc/stm32wbxx_ll_bus.h **** #define LL_C2_AHB1_GRP1_PERIPH_SRAM1        RCC_C2AHB1ENR_SRAM1EN
 216:Drivers/STM32WBxx_HAL_Driver/Inc/stm32wbxx_ll_bus.h **** #define LL_C2_AHB1_GRP1_PERIPH_CRC          RCC_C2AHB1ENR_CRCEN
 217:Drivers/STM32WBxx_HAL_Driver/Inc/stm32wbxx_ll_bus.h **** #if defined(TSC)
 218:Drivers/STM32WBxx_HAL_Driver/Inc/stm32wbxx_ll_bus.h **** #define LL_C2_AHB1_GRP1_PERIPH_TSC          RCC_C2AHB1ENR_TSCEN
 219:Drivers/STM32WBxx_HAL_Driver/Inc/stm32wbxx_ll_bus.h **** #endif /* TSC */
 220:Drivers/STM32WBxx_HAL_Driver/Inc/stm32wbxx_ll_bus.h **** /**
 221:Drivers/STM32WBxx_HAL_Driver/Inc/stm32wbxx_ll_bus.h ****   * @}
 222:Drivers/STM32WBxx_HAL_Driver/Inc/stm32wbxx_ll_bus.h ****   */
 223:Drivers/STM32WBxx_HAL_Driver/Inc/stm32wbxx_ll_bus.h **** 
 224:Drivers/STM32WBxx_HAL_Driver/Inc/stm32wbxx_ll_bus.h **** 
 225:Drivers/STM32WBxx_HAL_Driver/Inc/stm32wbxx_ll_bus.h **** /** @defgroup BUS_LL_EC_C2_AHB2_GRP1_PERIPH  C2 AHB2 GRP1 PERIPH
 226:Drivers/STM32WBxx_HAL_Driver/Inc/stm32wbxx_ll_bus.h ****   * @{
 227:Drivers/STM32WBxx_HAL_Driver/Inc/stm32wbxx_ll_bus.h ****   */
 228:Drivers/STM32WBxx_HAL_Driver/Inc/stm32wbxx_ll_bus.h **** #define LL_C2_AHB2_GRP1_PERIPH_GPIOA        RCC_C2AHB2ENR_GPIOAEN
 229:Drivers/STM32WBxx_HAL_Driver/Inc/stm32wbxx_ll_bus.h **** #define LL_C2_AHB2_GRP1_PERIPH_GPIOB        RCC_C2AHB2ENR_GPIOBEN
 230:Drivers/STM32WBxx_HAL_Driver/Inc/stm32wbxx_ll_bus.h **** #define LL_C2_AHB2_GRP1_PERIPH_GPIOC        RCC_C2AHB2ENR_GPIOCEN
 231:Drivers/STM32WBxx_HAL_Driver/Inc/stm32wbxx_ll_bus.h **** #if defined(GPIOD)
 232:Drivers/STM32WBxx_HAL_Driver/Inc/stm32wbxx_ll_bus.h **** #define LL_C2_AHB2_GRP1_PERIPH_GPIOD        RCC_C2AHB2ENR_GPIODEN
 233:Drivers/STM32WBxx_HAL_Driver/Inc/stm32wbxx_ll_bus.h **** #endif /* GPIOD */
 234:Drivers/STM32WBxx_HAL_Driver/Inc/stm32wbxx_ll_bus.h **** #define LL_C2_AHB2_GRP1_PERIPH_GPIOE        RCC_C2AHB2ENR_GPIOEEN
 235:Drivers/STM32WBxx_HAL_Driver/Inc/stm32wbxx_ll_bus.h **** #define LL_C2_AHB2_GRP1_PERIPH_GPIOH        RCC_C2AHB2ENR_GPIOHEN
 236:Drivers/STM32WBxx_HAL_Driver/Inc/stm32wbxx_ll_bus.h **** #if defined(ADC_SUPPORT_5_MSPS)
 237:Drivers/STM32WBxx_HAL_Driver/Inc/stm32wbxx_ll_bus.h **** #define LL_C2_AHB2_GRP1_PERIPH_ADC          RCC_C2AHB2ENR_ADCEN
 238:Drivers/STM32WBxx_HAL_Driver/Inc/stm32wbxx_ll_bus.h **** #endif /* ADC_SUPPORT_5_MSPS */
 239:Drivers/STM32WBxx_HAL_Driver/Inc/stm32wbxx_ll_bus.h **** #if defined(AES1)
 240:Drivers/STM32WBxx_HAL_Driver/Inc/stm32wbxx_ll_bus.h **** #define LL_C2_AHB2_GRP1_PERIPH_AES1         RCC_C2AHB2ENR_AES1EN
 241:Drivers/STM32WBxx_HAL_Driver/Inc/stm32wbxx_ll_bus.h **** #endif /* AES1 */
 242:Drivers/STM32WBxx_HAL_Driver/Inc/stm32wbxx_ll_bus.h **** /**
 243:Drivers/STM32WBxx_HAL_Driver/Inc/stm32wbxx_ll_bus.h ****   * @}
 244:Drivers/STM32WBxx_HAL_Driver/Inc/stm32wbxx_ll_bus.h ****   */
 245:Drivers/STM32WBxx_HAL_Driver/Inc/stm32wbxx_ll_bus.h **** 
 246:Drivers/STM32WBxx_HAL_Driver/Inc/stm32wbxx_ll_bus.h **** 
 247:Drivers/STM32WBxx_HAL_Driver/Inc/stm32wbxx_ll_bus.h **** /** @defgroup BUS_LL_EC_C2_AHB3_GRP1_PERIPH  C2 AHB3 GRP1 PERIPH
 248:Drivers/STM32WBxx_HAL_Driver/Inc/stm32wbxx_ll_bus.h ****   * @{
 249:Drivers/STM32WBxx_HAL_Driver/Inc/stm32wbxx_ll_bus.h ****   */
 250:Drivers/STM32WBxx_HAL_Driver/Inc/stm32wbxx_ll_bus.h **** #define LL_C2_AHB3_GRP1_PERIPH_PKA          RCC_C2AHB3ENR_PKAEN
 251:Drivers/STM32WBxx_HAL_Driver/Inc/stm32wbxx_ll_bus.h **** #define LL_C2_AHB3_GRP1_PERIPH_AES2         RCC_C2AHB3ENR_AES2EN
 252:Drivers/STM32WBxx_HAL_Driver/Inc/stm32wbxx_ll_bus.h **** #define LL_C2_AHB3_GRP1_PERIPH_RNG          RCC_C2AHB3ENR_RNGEN
 253:Drivers/STM32WBxx_HAL_Driver/Inc/stm32wbxx_ll_bus.h **** #define LL_C2_AHB3_GRP1_PERIPH_HSEM         RCC_C2AHB3ENR_HSEMEN
 254:Drivers/STM32WBxx_HAL_Driver/Inc/stm32wbxx_ll_bus.h **** #define LL_C2_AHB3_GRP1_PERIPH_IPCC         RCC_C2AHB3ENR_IPCCEN
 255:Drivers/STM32WBxx_HAL_Driver/Inc/stm32wbxx_ll_bus.h **** #define LL_C2_AHB3_GRP1_PERIPH_FLASH        RCC_C2AHB3ENR_FLASHEN
 256:Drivers/STM32WBxx_HAL_Driver/Inc/stm32wbxx_ll_bus.h **** #define LL_C2_AHB3_GRP1_PERIPH_SRAM2        RCC_C2AHB3SMENR_SRAM2SMEN
 257:Drivers/STM32WBxx_HAL_Driver/Inc/stm32wbxx_ll_bus.h **** /**
 258:Drivers/STM32WBxx_HAL_Driver/Inc/stm32wbxx_ll_bus.h ****   * @}
ARM GAS  C:\Users\alanl\AppData\Local\Temp\ccY2aaIM.s 			page 6


 259:Drivers/STM32WBxx_HAL_Driver/Inc/stm32wbxx_ll_bus.h ****   */
 260:Drivers/STM32WBxx_HAL_Driver/Inc/stm32wbxx_ll_bus.h **** 
 261:Drivers/STM32WBxx_HAL_Driver/Inc/stm32wbxx_ll_bus.h **** 
 262:Drivers/STM32WBxx_HAL_Driver/Inc/stm32wbxx_ll_bus.h **** /** @defgroup BUS_LL_EC_C2_APB1_GRP1_PERIPH  C2 APB1 GRP1 PERIPH
 263:Drivers/STM32WBxx_HAL_Driver/Inc/stm32wbxx_ll_bus.h ****   * @{
 264:Drivers/STM32WBxx_HAL_Driver/Inc/stm32wbxx_ll_bus.h ****   */
 265:Drivers/STM32WBxx_HAL_Driver/Inc/stm32wbxx_ll_bus.h **** #define LL_C2_APB1_GRP1_PERIPH_TIM2         RCC_C2APB1ENR1_TIM2EN
 266:Drivers/STM32WBxx_HAL_Driver/Inc/stm32wbxx_ll_bus.h **** #if defined(LCD)
 267:Drivers/STM32WBxx_HAL_Driver/Inc/stm32wbxx_ll_bus.h **** #define LL_C2_APB1_GRP1_PERIPH_LCD          RCC_C2APB1ENR1_LCDEN
 268:Drivers/STM32WBxx_HAL_Driver/Inc/stm32wbxx_ll_bus.h **** #endif /* LCD */
 269:Drivers/STM32WBxx_HAL_Driver/Inc/stm32wbxx_ll_bus.h **** #define LL_C2_APB1_GRP1_PERIPH_RTCAPB       RCC_C2APB1ENR1_RTCAPBEN
 270:Drivers/STM32WBxx_HAL_Driver/Inc/stm32wbxx_ll_bus.h **** #if defined(SPI2)
 271:Drivers/STM32WBxx_HAL_Driver/Inc/stm32wbxx_ll_bus.h **** #define LL_C2_APB1_GRP1_PERIPH_SPI2         RCC_C2APB1ENR1_SPI2EN
 272:Drivers/STM32WBxx_HAL_Driver/Inc/stm32wbxx_ll_bus.h **** #endif /* SPI2 */
 273:Drivers/STM32WBxx_HAL_Driver/Inc/stm32wbxx_ll_bus.h **** #define LL_C2_APB1_GRP1_PERIPH_I2C1         RCC_C2APB1ENR1_I2C1EN
 274:Drivers/STM32WBxx_HAL_Driver/Inc/stm32wbxx_ll_bus.h **** #if defined(I2C3)
 275:Drivers/STM32WBxx_HAL_Driver/Inc/stm32wbxx_ll_bus.h **** #define LL_C2_APB1_GRP1_PERIPH_I2C3         RCC_C2APB1ENR1_I2C3EN
 276:Drivers/STM32WBxx_HAL_Driver/Inc/stm32wbxx_ll_bus.h **** #define LL_C2_APB1_GRP1_PERIPH_CRS          RCC_C2APB1ENR1_CRSEN
 277:Drivers/STM32WBxx_HAL_Driver/Inc/stm32wbxx_ll_bus.h **** #define LL_C2_APB1_GRP1_PERIPH_USB          RCC_C2APB1ENR1_USBEN
 278:Drivers/STM32WBxx_HAL_Driver/Inc/stm32wbxx_ll_bus.h **** #endif /* I2C3 */
 279:Drivers/STM32WBxx_HAL_Driver/Inc/stm32wbxx_ll_bus.h **** #define LL_C2_APB1_GRP1_PERIPH_LPTIM1       RCC_C2APB1ENR1_LPTIM1EN
 280:Drivers/STM32WBxx_HAL_Driver/Inc/stm32wbxx_ll_bus.h **** /**
 281:Drivers/STM32WBxx_HAL_Driver/Inc/stm32wbxx_ll_bus.h ****   * @}
 282:Drivers/STM32WBxx_HAL_Driver/Inc/stm32wbxx_ll_bus.h ****   */
 283:Drivers/STM32WBxx_HAL_Driver/Inc/stm32wbxx_ll_bus.h **** 
 284:Drivers/STM32WBxx_HAL_Driver/Inc/stm32wbxx_ll_bus.h **** 
 285:Drivers/STM32WBxx_HAL_Driver/Inc/stm32wbxx_ll_bus.h **** /** @defgroup BUS_LL_EC_C2_APB1_GRP2_PERIPH  C2 APB1 GRP2 PERIPH
 286:Drivers/STM32WBxx_HAL_Driver/Inc/stm32wbxx_ll_bus.h ****   * @{
 287:Drivers/STM32WBxx_HAL_Driver/Inc/stm32wbxx_ll_bus.h ****   */
 288:Drivers/STM32WBxx_HAL_Driver/Inc/stm32wbxx_ll_bus.h **** #if defined(LPUART1)
 289:Drivers/STM32WBxx_HAL_Driver/Inc/stm32wbxx_ll_bus.h **** #define LL_C2_APB1_GRP2_PERIPH_LPUART1      RCC_C2APB1ENR2_LPUART1EN
 290:Drivers/STM32WBxx_HAL_Driver/Inc/stm32wbxx_ll_bus.h **** #endif /* LPUART1 */
 291:Drivers/STM32WBxx_HAL_Driver/Inc/stm32wbxx_ll_bus.h **** #define LL_C2_APB1_GRP2_PERIPH_LPTIM2       RCC_C2APB1ENR2_LPTIM2EN
 292:Drivers/STM32WBxx_HAL_Driver/Inc/stm32wbxx_ll_bus.h **** /**
 293:Drivers/STM32WBxx_HAL_Driver/Inc/stm32wbxx_ll_bus.h ****   * @}
 294:Drivers/STM32WBxx_HAL_Driver/Inc/stm32wbxx_ll_bus.h ****   */
 295:Drivers/STM32WBxx_HAL_Driver/Inc/stm32wbxx_ll_bus.h **** 
 296:Drivers/STM32WBxx_HAL_Driver/Inc/stm32wbxx_ll_bus.h **** 
 297:Drivers/STM32WBxx_HAL_Driver/Inc/stm32wbxx_ll_bus.h **** /** @defgroup BUS_LL_EC_C2_APB2_GRP1_PERIPH  C2 APB2 GRP1 PERIPH
 298:Drivers/STM32WBxx_HAL_Driver/Inc/stm32wbxx_ll_bus.h ****   * @{
 299:Drivers/STM32WBxx_HAL_Driver/Inc/stm32wbxx_ll_bus.h ****   */
 300:Drivers/STM32WBxx_HAL_Driver/Inc/stm32wbxx_ll_bus.h **** #if defined(ADC_SUPPORT_2_5_MSPS)
 301:Drivers/STM32WBxx_HAL_Driver/Inc/stm32wbxx_ll_bus.h **** #define LL_C2_APB2_GRP1_PERIPH_ADC          RCC_C2APB2ENR_ADCEN
 302:Drivers/STM32WBxx_HAL_Driver/Inc/stm32wbxx_ll_bus.h **** #endif /* ADC_SUPPORT_5_MSPS */
 303:Drivers/STM32WBxx_HAL_Driver/Inc/stm32wbxx_ll_bus.h **** #define LL_C2_APB2_GRP1_PERIPH_TIM1         RCC_C2APB2ENR_TIM1EN
 304:Drivers/STM32WBxx_HAL_Driver/Inc/stm32wbxx_ll_bus.h **** #define LL_C2_APB2_GRP1_PERIPH_SPI1         RCC_C2APB2ENR_SPI1EN
 305:Drivers/STM32WBxx_HAL_Driver/Inc/stm32wbxx_ll_bus.h **** #define LL_C2_APB2_GRP1_PERIPH_USART1       RCC_C2APB2ENR_USART1EN
 306:Drivers/STM32WBxx_HAL_Driver/Inc/stm32wbxx_ll_bus.h **** #if defined(TIM16)
 307:Drivers/STM32WBxx_HAL_Driver/Inc/stm32wbxx_ll_bus.h **** #define LL_C2_APB2_GRP1_PERIPH_TIM16        RCC_C2APB2ENR_TIM16EN
 308:Drivers/STM32WBxx_HAL_Driver/Inc/stm32wbxx_ll_bus.h **** #endif /* TIM16 */
 309:Drivers/STM32WBxx_HAL_Driver/Inc/stm32wbxx_ll_bus.h **** #if defined(TIM17)
 310:Drivers/STM32WBxx_HAL_Driver/Inc/stm32wbxx_ll_bus.h **** #define LL_C2_APB2_GRP1_PERIPH_TIM17        RCC_C2APB2ENR_TIM17EN
 311:Drivers/STM32WBxx_HAL_Driver/Inc/stm32wbxx_ll_bus.h **** #endif /* TIM17 */
 312:Drivers/STM32WBxx_HAL_Driver/Inc/stm32wbxx_ll_bus.h **** #if defined(SAI1)
 313:Drivers/STM32WBxx_HAL_Driver/Inc/stm32wbxx_ll_bus.h **** #define LL_C2_APB2_GRP1_PERIPH_SAI1         RCC_C2APB2ENR_SAI1EN
 314:Drivers/STM32WBxx_HAL_Driver/Inc/stm32wbxx_ll_bus.h **** #endif /* SAI1 */
 315:Drivers/STM32WBxx_HAL_Driver/Inc/stm32wbxx_ll_bus.h **** /**
ARM GAS  C:\Users\alanl\AppData\Local\Temp\ccY2aaIM.s 			page 7


 316:Drivers/STM32WBxx_HAL_Driver/Inc/stm32wbxx_ll_bus.h ****   * @}
 317:Drivers/STM32WBxx_HAL_Driver/Inc/stm32wbxx_ll_bus.h ****   */
 318:Drivers/STM32WBxx_HAL_Driver/Inc/stm32wbxx_ll_bus.h **** 
 319:Drivers/STM32WBxx_HAL_Driver/Inc/stm32wbxx_ll_bus.h **** 
 320:Drivers/STM32WBxx_HAL_Driver/Inc/stm32wbxx_ll_bus.h **** /** @defgroup BUS_LL_EC_C2_APB3_GRP1_PERIPH  C2 APB3 GRP1 PERIPH
 321:Drivers/STM32WBxx_HAL_Driver/Inc/stm32wbxx_ll_bus.h ****   * @{
 322:Drivers/STM32WBxx_HAL_Driver/Inc/stm32wbxx_ll_bus.h ****   */
 323:Drivers/STM32WBxx_HAL_Driver/Inc/stm32wbxx_ll_bus.h **** #define LL_C2_APB3_GRP1_PERIPH_BLE          RCC_C2APB3ENR_BLEEN
 324:Drivers/STM32WBxx_HAL_Driver/Inc/stm32wbxx_ll_bus.h **** #if defined(RCC_802_SUPPORT)
 325:Drivers/STM32WBxx_HAL_Driver/Inc/stm32wbxx_ll_bus.h **** #define LL_C2_APB3_GRP1_PERIPH_802          RCC_C2APB3ENR_802EN
 326:Drivers/STM32WBxx_HAL_Driver/Inc/stm32wbxx_ll_bus.h **** #endif /* RCC_802_SUPPORT */
 327:Drivers/STM32WBxx_HAL_Driver/Inc/stm32wbxx_ll_bus.h **** /**
 328:Drivers/STM32WBxx_HAL_Driver/Inc/stm32wbxx_ll_bus.h ****   * @}
 329:Drivers/STM32WBxx_HAL_Driver/Inc/stm32wbxx_ll_bus.h ****   */
 330:Drivers/STM32WBxx_HAL_Driver/Inc/stm32wbxx_ll_bus.h **** 
 331:Drivers/STM32WBxx_HAL_Driver/Inc/stm32wbxx_ll_bus.h **** 
 332:Drivers/STM32WBxx_HAL_Driver/Inc/stm32wbxx_ll_bus.h **** /**
 333:Drivers/STM32WBxx_HAL_Driver/Inc/stm32wbxx_ll_bus.h ****   * @}
 334:Drivers/STM32WBxx_HAL_Driver/Inc/stm32wbxx_ll_bus.h ****   */
 335:Drivers/STM32WBxx_HAL_Driver/Inc/stm32wbxx_ll_bus.h **** 
 336:Drivers/STM32WBxx_HAL_Driver/Inc/stm32wbxx_ll_bus.h **** /* Exported macro ------------------------------------------------------------*/
 337:Drivers/STM32WBxx_HAL_Driver/Inc/stm32wbxx_ll_bus.h **** 
 338:Drivers/STM32WBxx_HAL_Driver/Inc/stm32wbxx_ll_bus.h **** /* Exported functions --------------------------------------------------------*/
 339:Drivers/STM32WBxx_HAL_Driver/Inc/stm32wbxx_ll_bus.h **** 
 340:Drivers/STM32WBxx_HAL_Driver/Inc/stm32wbxx_ll_bus.h **** /** @defgroup BUS_LL_Exported_Functions BUS Exported Functions
 341:Drivers/STM32WBxx_HAL_Driver/Inc/stm32wbxx_ll_bus.h ****   * @{
 342:Drivers/STM32WBxx_HAL_Driver/Inc/stm32wbxx_ll_bus.h ****   */
 343:Drivers/STM32WBxx_HAL_Driver/Inc/stm32wbxx_ll_bus.h **** 
 344:Drivers/STM32WBxx_HAL_Driver/Inc/stm32wbxx_ll_bus.h **** /** @defgroup BUS_LL_EF_AHB1 AHB1
 345:Drivers/STM32WBxx_HAL_Driver/Inc/stm32wbxx_ll_bus.h ****   * @{
 346:Drivers/STM32WBxx_HAL_Driver/Inc/stm32wbxx_ll_bus.h ****   */
 347:Drivers/STM32WBxx_HAL_Driver/Inc/stm32wbxx_ll_bus.h **** 
 348:Drivers/STM32WBxx_HAL_Driver/Inc/stm32wbxx_ll_bus.h **** /**
 349:Drivers/STM32WBxx_HAL_Driver/Inc/stm32wbxx_ll_bus.h ****   * @brief  Enable AHB1 peripherals clock.
 350:Drivers/STM32WBxx_HAL_Driver/Inc/stm32wbxx_ll_bus.h ****   * @rmtoll AHB1ENR      DMA1EN        LL_AHB1_GRP1_EnableClock\n
 351:Drivers/STM32WBxx_HAL_Driver/Inc/stm32wbxx_ll_bus.h ****   *         AHB1ENR      DMA2EN        LL_AHB1_GRP1_EnableClock\n
 352:Drivers/STM32WBxx_HAL_Driver/Inc/stm32wbxx_ll_bus.h ****   *         AHB1ENR      DMAMUX1EN      LL_AHB1_GRP1_EnableClock\n
 353:Drivers/STM32WBxx_HAL_Driver/Inc/stm32wbxx_ll_bus.h ****   *         AHB1ENR      CRCEN         LL_AHB1_GRP1_EnableClock\n
 354:Drivers/STM32WBxx_HAL_Driver/Inc/stm32wbxx_ll_bus.h ****   *         AHB1ENR      TSCEN         LL_AHB1_GRP1_EnableClock
 355:Drivers/STM32WBxx_HAL_Driver/Inc/stm32wbxx_ll_bus.h ****   * @param  Periphs This parameter can be a combination of the following values:
 356:Drivers/STM32WBxx_HAL_Driver/Inc/stm32wbxx_ll_bus.h ****   *         @arg @ref LL_AHB1_GRP1_PERIPH_DMA1
 357:Drivers/STM32WBxx_HAL_Driver/Inc/stm32wbxx_ll_bus.h ****   *         @arg @ref LL_AHB1_GRP1_PERIPH_DMA2 (*)
 358:Drivers/STM32WBxx_HAL_Driver/Inc/stm32wbxx_ll_bus.h ****   *         @arg @ref LL_AHB1_GRP1_PERIPH_DMAMUX1
 359:Drivers/STM32WBxx_HAL_Driver/Inc/stm32wbxx_ll_bus.h ****   *         @arg @ref LL_AHB1_GRP1_PERIPH_CRC
 360:Drivers/STM32WBxx_HAL_Driver/Inc/stm32wbxx_ll_bus.h ****   *         @arg @ref LL_AHB1_GRP1_PERIPH_TSC
 361:Drivers/STM32WBxx_HAL_Driver/Inc/stm32wbxx_ll_bus.h ****   * @note  (*) Not supported by all the devices
 362:Drivers/STM32WBxx_HAL_Driver/Inc/stm32wbxx_ll_bus.h ****   * @retval None
 363:Drivers/STM32WBxx_HAL_Driver/Inc/stm32wbxx_ll_bus.h ****   */
 364:Drivers/STM32WBxx_HAL_Driver/Inc/stm32wbxx_ll_bus.h **** __STATIC_INLINE void LL_AHB1_GRP1_EnableClock(uint32_t Periphs)
 365:Drivers/STM32WBxx_HAL_Driver/Inc/stm32wbxx_ll_bus.h **** {
 366:Drivers/STM32WBxx_HAL_Driver/Inc/stm32wbxx_ll_bus.h ****   __IO uint32_t tmpreg;
 367:Drivers/STM32WBxx_HAL_Driver/Inc/stm32wbxx_ll_bus.h ****   SET_BIT(RCC->AHB1ENR, Periphs);
 368:Drivers/STM32WBxx_HAL_Driver/Inc/stm32wbxx_ll_bus.h ****   /* Delay after an RCC peripheral clock enabling */
 369:Drivers/STM32WBxx_HAL_Driver/Inc/stm32wbxx_ll_bus.h ****   tmpreg = READ_BIT(RCC->AHB1ENR, Periphs);
 370:Drivers/STM32WBxx_HAL_Driver/Inc/stm32wbxx_ll_bus.h ****   (void)tmpreg;
 371:Drivers/STM32WBxx_HAL_Driver/Inc/stm32wbxx_ll_bus.h **** }
 372:Drivers/STM32WBxx_HAL_Driver/Inc/stm32wbxx_ll_bus.h **** 
ARM GAS  C:\Users\alanl\AppData\Local\Temp\ccY2aaIM.s 			page 8


 373:Drivers/STM32WBxx_HAL_Driver/Inc/stm32wbxx_ll_bus.h **** /**
 374:Drivers/STM32WBxx_HAL_Driver/Inc/stm32wbxx_ll_bus.h ****   * @brief  Check if AHB1 peripheral clock is enabled or not
 375:Drivers/STM32WBxx_HAL_Driver/Inc/stm32wbxx_ll_bus.h ****   * @rmtoll AHB1ENR      DMA1EN        LL_AHB1_GRP1_IsEnabledClock\n
 376:Drivers/STM32WBxx_HAL_Driver/Inc/stm32wbxx_ll_bus.h ****   *         AHB1ENR      DMA2EN        LL_AHB1_GRP1_IsEnabledClock\n
 377:Drivers/STM32WBxx_HAL_Driver/Inc/stm32wbxx_ll_bus.h ****   *         AHB1ENR      DMAMUX1EN      LL_AHB1_GRP1_IsEnabledClock\n
 378:Drivers/STM32WBxx_HAL_Driver/Inc/stm32wbxx_ll_bus.h ****   *         AHB1ENR      CRCEN         LL_AHB1_GRP1_IsEnabledClock\n
 379:Drivers/STM32WBxx_HAL_Driver/Inc/stm32wbxx_ll_bus.h ****   *         AHB1ENR      TSCEN         LL_AHB1_GRP1_IsEnabledClock
 380:Drivers/STM32WBxx_HAL_Driver/Inc/stm32wbxx_ll_bus.h ****   * @param  Periphs This parameter can be a combination of the following values:
 381:Drivers/STM32WBxx_HAL_Driver/Inc/stm32wbxx_ll_bus.h ****   *         @arg @ref LL_AHB1_GRP1_PERIPH_DMA1
 382:Drivers/STM32WBxx_HAL_Driver/Inc/stm32wbxx_ll_bus.h ****   *         @arg @ref LL_AHB1_GRP1_PERIPH_DMA2 (*)
 383:Drivers/STM32WBxx_HAL_Driver/Inc/stm32wbxx_ll_bus.h ****   *         @arg @ref LL_AHB1_GRP1_PERIPH_DMAMUX1
 384:Drivers/STM32WBxx_HAL_Driver/Inc/stm32wbxx_ll_bus.h ****   *         @arg @ref LL_AHB1_GRP1_PERIPH_CRC
 385:Drivers/STM32WBxx_HAL_Driver/Inc/stm32wbxx_ll_bus.h ****   *         @arg @ref LL_AHB1_GRP1_PERIPH_TSC
 386:Drivers/STM32WBxx_HAL_Driver/Inc/stm32wbxx_ll_bus.h ****   * @note  (*) Not supported by all the devices
 387:Drivers/STM32WBxx_HAL_Driver/Inc/stm32wbxx_ll_bus.h ****   * @retval uint32_t
 388:Drivers/STM32WBxx_HAL_Driver/Inc/stm32wbxx_ll_bus.h ****   */
 389:Drivers/STM32WBxx_HAL_Driver/Inc/stm32wbxx_ll_bus.h **** __STATIC_INLINE uint32_t LL_AHB1_GRP1_IsEnabledClock(uint32_t Periphs)
 390:Drivers/STM32WBxx_HAL_Driver/Inc/stm32wbxx_ll_bus.h **** {
 391:Drivers/STM32WBxx_HAL_Driver/Inc/stm32wbxx_ll_bus.h ****   return ((READ_BIT(RCC->AHB1ENR, Periphs) == (Periphs)) ? 1UL : 0UL);
 392:Drivers/STM32WBxx_HAL_Driver/Inc/stm32wbxx_ll_bus.h **** }
 393:Drivers/STM32WBxx_HAL_Driver/Inc/stm32wbxx_ll_bus.h **** 
 394:Drivers/STM32WBxx_HAL_Driver/Inc/stm32wbxx_ll_bus.h **** /**
 395:Drivers/STM32WBxx_HAL_Driver/Inc/stm32wbxx_ll_bus.h ****   * @brief  Disable AHB1 peripherals clock.
 396:Drivers/STM32WBxx_HAL_Driver/Inc/stm32wbxx_ll_bus.h ****   * @rmtoll AHB1ENR      DMA1EN        LL_AHB1_GRP1_DisableClock\n
 397:Drivers/STM32WBxx_HAL_Driver/Inc/stm32wbxx_ll_bus.h ****   *         AHB1ENR      DMA2EN        LL_AHB1_GRP1_DisableClock\n
 398:Drivers/STM32WBxx_HAL_Driver/Inc/stm32wbxx_ll_bus.h ****   *         AHB1ENR      DMAMUX1EN      LL_AHB1_GRP1_DisableClock\n
 399:Drivers/STM32WBxx_HAL_Driver/Inc/stm32wbxx_ll_bus.h ****   *         AHB1ENR      CRCEN         LL_AHB1_GRP1_DisableClock\n
 400:Drivers/STM32WBxx_HAL_Driver/Inc/stm32wbxx_ll_bus.h ****   *         AHB1ENR      TSCEN         LL_AHB1_GRP1_DisableClock
 401:Drivers/STM32WBxx_HAL_Driver/Inc/stm32wbxx_ll_bus.h ****   * @param  Periphs This parameter can be a combination of the following values:
 402:Drivers/STM32WBxx_HAL_Driver/Inc/stm32wbxx_ll_bus.h ****   *         @arg @ref LL_AHB1_GRP1_PERIPH_DMA1
 403:Drivers/STM32WBxx_HAL_Driver/Inc/stm32wbxx_ll_bus.h ****   *         @arg @ref LL_AHB1_GRP1_PERIPH_DMA2 (*)
 404:Drivers/STM32WBxx_HAL_Driver/Inc/stm32wbxx_ll_bus.h ****   *         @arg @ref LL_AHB1_GRP1_PERIPH_DMAMUX1
 405:Drivers/STM32WBxx_HAL_Driver/Inc/stm32wbxx_ll_bus.h ****   *         @arg @ref LL_AHB1_GRP1_PERIPH_CRC
 406:Drivers/STM32WBxx_HAL_Driver/Inc/stm32wbxx_ll_bus.h ****   *         @arg @ref LL_AHB1_GRP1_PERIPH_TSC
 407:Drivers/STM32WBxx_HAL_Driver/Inc/stm32wbxx_ll_bus.h ****   * @note  (*) Not supported by all the devices
 408:Drivers/STM32WBxx_HAL_Driver/Inc/stm32wbxx_ll_bus.h ****   * @retval None
 409:Drivers/STM32WBxx_HAL_Driver/Inc/stm32wbxx_ll_bus.h ****   */
 410:Drivers/STM32WBxx_HAL_Driver/Inc/stm32wbxx_ll_bus.h **** __STATIC_INLINE void LL_AHB1_GRP1_DisableClock(uint32_t Periphs)
 411:Drivers/STM32WBxx_HAL_Driver/Inc/stm32wbxx_ll_bus.h **** {
 412:Drivers/STM32WBxx_HAL_Driver/Inc/stm32wbxx_ll_bus.h ****   CLEAR_BIT(RCC->AHB1ENR, Periphs);
 413:Drivers/STM32WBxx_HAL_Driver/Inc/stm32wbxx_ll_bus.h **** }
 414:Drivers/STM32WBxx_HAL_Driver/Inc/stm32wbxx_ll_bus.h **** 
 415:Drivers/STM32WBxx_HAL_Driver/Inc/stm32wbxx_ll_bus.h **** /**
 416:Drivers/STM32WBxx_HAL_Driver/Inc/stm32wbxx_ll_bus.h ****   * @brief  Force AHB1 peripherals reset.
 417:Drivers/STM32WBxx_HAL_Driver/Inc/stm32wbxx_ll_bus.h ****   * @rmtoll AHB1RSTR     DMA1RST       LL_AHB1_GRP1_ForceReset\n
 418:Drivers/STM32WBxx_HAL_Driver/Inc/stm32wbxx_ll_bus.h ****   *         AHB1RSTR     DMA2RST       LL_AHB1_GRP1_ForceReset\n
 419:Drivers/STM32WBxx_HAL_Driver/Inc/stm32wbxx_ll_bus.h ****   *         AHB1RSTR     DMAMUX1RST     LL_AHB1_GRP1_ForceReset\n
 420:Drivers/STM32WBxx_HAL_Driver/Inc/stm32wbxx_ll_bus.h ****   *         AHB1RSTR     CRCRST        LL_AHB1_GRP1_ForceReset\n
 421:Drivers/STM32WBxx_HAL_Driver/Inc/stm32wbxx_ll_bus.h ****   *         AHB1RSTR     TSCRST        LL_AHB1_GRP1_ForceReset
 422:Drivers/STM32WBxx_HAL_Driver/Inc/stm32wbxx_ll_bus.h ****   * @param  Periphs This parameter can be a combination of the following values:
 423:Drivers/STM32WBxx_HAL_Driver/Inc/stm32wbxx_ll_bus.h ****   *         @arg @ref LL_AHB1_GRP1_PERIPH_ALL
 424:Drivers/STM32WBxx_HAL_Driver/Inc/stm32wbxx_ll_bus.h ****   *         @arg @ref LL_AHB1_GRP1_PERIPH_DMA1
 425:Drivers/STM32WBxx_HAL_Driver/Inc/stm32wbxx_ll_bus.h ****   *         @arg @ref LL_AHB1_GRP1_PERIPH_DMA2 (*)
 426:Drivers/STM32WBxx_HAL_Driver/Inc/stm32wbxx_ll_bus.h ****   *         @arg @ref LL_AHB1_GRP1_PERIPH_DMAMUX1
 427:Drivers/STM32WBxx_HAL_Driver/Inc/stm32wbxx_ll_bus.h ****   *         @arg @ref LL_AHB1_GRP1_PERIPH_CRC
 428:Drivers/STM32WBxx_HAL_Driver/Inc/stm32wbxx_ll_bus.h ****   *         @arg @ref LL_AHB1_GRP1_PERIPH_TSC
 429:Drivers/STM32WBxx_HAL_Driver/Inc/stm32wbxx_ll_bus.h ****   * @note  (*) Not supported by all the devices
ARM GAS  C:\Users\alanl\AppData\Local\Temp\ccY2aaIM.s 			page 9


 430:Drivers/STM32WBxx_HAL_Driver/Inc/stm32wbxx_ll_bus.h ****   * @retval None
 431:Drivers/STM32WBxx_HAL_Driver/Inc/stm32wbxx_ll_bus.h ****   */
 432:Drivers/STM32WBxx_HAL_Driver/Inc/stm32wbxx_ll_bus.h **** __STATIC_INLINE void LL_AHB1_GRP1_ForceReset(uint32_t Periphs)
 433:Drivers/STM32WBxx_HAL_Driver/Inc/stm32wbxx_ll_bus.h **** {
 434:Drivers/STM32WBxx_HAL_Driver/Inc/stm32wbxx_ll_bus.h ****   SET_BIT(RCC->AHB1RSTR, Periphs);
 435:Drivers/STM32WBxx_HAL_Driver/Inc/stm32wbxx_ll_bus.h **** }
 436:Drivers/STM32WBxx_HAL_Driver/Inc/stm32wbxx_ll_bus.h **** 
 437:Drivers/STM32WBxx_HAL_Driver/Inc/stm32wbxx_ll_bus.h **** /**
 438:Drivers/STM32WBxx_HAL_Driver/Inc/stm32wbxx_ll_bus.h ****   * @brief  Release AHB1 peripherals reset.
 439:Drivers/STM32WBxx_HAL_Driver/Inc/stm32wbxx_ll_bus.h ****   * @rmtoll AHB1RSTR     DMA1RST       LL_AHB1_GRP1_ReleaseReset\n
 440:Drivers/STM32WBxx_HAL_Driver/Inc/stm32wbxx_ll_bus.h ****   *         AHB1RSTR     DMA2RST       LL_AHB1_GRP1_ReleaseReset\n
 441:Drivers/STM32WBxx_HAL_Driver/Inc/stm32wbxx_ll_bus.h ****   *         AHB1RSTR     DMAMUX1RST     LL_AHB1_GRP1_ReleaseReset\n
 442:Drivers/STM32WBxx_HAL_Driver/Inc/stm32wbxx_ll_bus.h ****   *         AHB1RSTR     CRCRST        LL_AHB1_GRP1_ReleaseReset\n
 443:Drivers/STM32WBxx_HAL_Driver/Inc/stm32wbxx_ll_bus.h ****   *         AHB1RSTR     TSCRST        LL_AHB1_GRP1_ReleaseReset
 444:Drivers/STM32WBxx_HAL_Driver/Inc/stm32wbxx_ll_bus.h ****   * @param  Periphs This parameter can be a combination of the following values:
 445:Drivers/STM32WBxx_HAL_Driver/Inc/stm32wbxx_ll_bus.h ****   *         @arg @ref LL_AHB1_GRP1_PERIPH_ALL
 446:Drivers/STM32WBxx_HAL_Driver/Inc/stm32wbxx_ll_bus.h ****   *         @arg @ref LL_AHB1_GRP1_PERIPH_DMA1
 447:Drivers/STM32WBxx_HAL_Driver/Inc/stm32wbxx_ll_bus.h ****   *         @arg @ref LL_AHB1_GRP1_PERIPH_DMA2 (*)
 448:Drivers/STM32WBxx_HAL_Driver/Inc/stm32wbxx_ll_bus.h ****   *         @arg @ref LL_AHB1_GRP1_PERIPH_DMAMUX1
 449:Drivers/STM32WBxx_HAL_Driver/Inc/stm32wbxx_ll_bus.h ****   *         @arg @ref LL_AHB1_GRP1_PERIPH_CRC
 450:Drivers/STM32WBxx_HAL_Driver/Inc/stm32wbxx_ll_bus.h ****   *         @arg @ref LL_AHB1_GRP1_PERIPH_TSC
 451:Drivers/STM32WBxx_HAL_Driver/Inc/stm32wbxx_ll_bus.h ****   * @note  (*) Not supported by all the devices
 452:Drivers/STM32WBxx_HAL_Driver/Inc/stm32wbxx_ll_bus.h ****   * @retval None
 453:Drivers/STM32WBxx_HAL_Driver/Inc/stm32wbxx_ll_bus.h ****   */
 454:Drivers/STM32WBxx_HAL_Driver/Inc/stm32wbxx_ll_bus.h **** __STATIC_INLINE void LL_AHB1_GRP1_ReleaseReset(uint32_t Periphs)
 455:Drivers/STM32WBxx_HAL_Driver/Inc/stm32wbxx_ll_bus.h **** {
 456:Drivers/STM32WBxx_HAL_Driver/Inc/stm32wbxx_ll_bus.h ****   CLEAR_BIT(RCC->AHB1RSTR, Periphs);
 457:Drivers/STM32WBxx_HAL_Driver/Inc/stm32wbxx_ll_bus.h **** }
 458:Drivers/STM32WBxx_HAL_Driver/Inc/stm32wbxx_ll_bus.h **** 
 459:Drivers/STM32WBxx_HAL_Driver/Inc/stm32wbxx_ll_bus.h **** /**
 460:Drivers/STM32WBxx_HAL_Driver/Inc/stm32wbxx_ll_bus.h ****   * @brief  Enable AHB1 peripherals clock during Low Power (Sleep) mode.
 461:Drivers/STM32WBxx_HAL_Driver/Inc/stm32wbxx_ll_bus.h ****   * @rmtoll AHB1SMENR    DMA1SMEN      LL_AHB1_GRP1_EnableClockSleep\n
 462:Drivers/STM32WBxx_HAL_Driver/Inc/stm32wbxx_ll_bus.h ****   *         AHB1SMENR    DMA2SMEN      LL_AHB1_GRP1_EnableClockSleep\n
 463:Drivers/STM32WBxx_HAL_Driver/Inc/stm32wbxx_ll_bus.h ****   *         AHB1SMENR    DMAMUX1SMEN    LL_AHB1_GRP1_EnableClockSleep\n
 464:Drivers/STM32WBxx_HAL_Driver/Inc/stm32wbxx_ll_bus.h ****   *         AHB1SMENR    SRAM1SMEN     LL_AHB1_GRP1_EnableClockSleep\n
 465:Drivers/STM32WBxx_HAL_Driver/Inc/stm32wbxx_ll_bus.h ****   *         AHB1SMENR    CRCSMEN       LL_AHB1_GRP1_EnableClockSleep\n
 466:Drivers/STM32WBxx_HAL_Driver/Inc/stm32wbxx_ll_bus.h ****   *         AHB1SMENR    TSCSMEN       LL_AHB1_GRP1_EnableClockSleep
 467:Drivers/STM32WBxx_HAL_Driver/Inc/stm32wbxx_ll_bus.h ****   * @param  Periphs This parameter can be a combination of the following values:
 468:Drivers/STM32WBxx_HAL_Driver/Inc/stm32wbxx_ll_bus.h ****   *         @arg @ref LL_AHB1_GRP1_PERIPH_DMA1
 469:Drivers/STM32WBxx_HAL_Driver/Inc/stm32wbxx_ll_bus.h ****   *         @arg @ref LL_AHB1_GRP1_PERIPH_DMA2 (*)
 470:Drivers/STM32WBxx_HAL_Driver/Inc/stm32wbxx_ll_bus.h ****   *         @arg @ref LL_AHB1_GRP1_PERIPH_DMAMUX1
 471:Drivers/STM32WBxx_HAL_Driver/Inc/stm32wbxx_ll_bus.h ****   *         @arg @ref LL_AHB1_GRP1_PERIPH_SRAM1
 472:Drivers/STM32WBxx_HAL_Driver/Inc/stm32wbxx_ll_bus.h ****   *         @arg @ref LL_AHB1_GRP1_PERIPH_CRC
 473:Drivers/STM32WBxx_HAL_Driver/Inc/stm32wbxx_ll_bus.h ****   *         @arg @ref LL_AHB1_GRP1_PERIPH_TSC
 474:Drivers/STM32WBxx_HAL_Driver/Inc/stm32wbxx_ll_bus.h ****   * @note  (*) Not supported by all the devices
 475:Drivers/STM32WBxx_HAL_Driver/Inc/stm32wbxx_ll_bus.h ****   * @retval None
 476:Drivers/STM32WBxx_HAL_Driver/Inc/stm32wbxx_ll_bus.h ****   */
 477:Drivers/STM32WBxx_HAL_Driver/Inc/stm32wbxx_ll_bus.h **** __STATIC_INLINE void LL_AHB1_GRP1_EnableClockSleep(uint32_t Periphs)
 478:Drivers/STM32WBxx_HAL_Driver/Inc/stm32wbxx_ll_bus.h **** {
 479:Drivers/STM32WBxx_HAL_Driver/Inc/stm32wbxx_ll_bus.h ****   __IO uint32_t tmpreg;
 480:Drivers/STM32WBxx_HAL_Driver/Inc/stm32wbxx_ll_bus.h ****   SET_BIT(RCC->AHB1SMENR, Periphs);
 481:Drivers/STM32WBxx_HAL_Driver/Inc/stm32wbxx_ll_bus.h ****   /* Delay after an RCC peripheral clock enabling */
 482:Drivers/STM32WBxx_HAL_Driver/Inc/stm32wbxx_ll_bus.h ****   tmpreg = READ_BIT(RCC->AHB1SMENR, Periphs);
 483:Drivers/STM32WBxx_HAL_Driver/Inc/stm32wbxx_ll_bus.h ****   (void)tmpreg;
 484:Drivers/STM32WBxx_HAL_Driver/Inc/stm32wbxx_ll_bus.h **** }
 485:Drivers/STM32WBxx_HAL_Driver/Inc/stm32wbxx_ll_bus.h **** 
 486:Drivers/STM32WBxx_HAL_Driver/Inc/stm32wbxx_ll_bus.h **** /**
ARM GAS  C:\Users\alanl\AppData\Local\Temp\ccY2aaIM.s 			page 10


 487:Drivers/STM32WBxx_HAL_Driver/Inc/stm32wbxx_ll_bus.h ****   * @brief  Disable AHB1 peripherals clock during Low Power (Sleep) mode.
 488:Drivers/STM32WBxx_HAL_Driver/Inc/stm32wbxx_ll_bus.h ****   * @rmtoll AHB1SMENR    DMA1SMEN      LL_AHB1_GRP1_DisableClockSleep\n
 489:Drivers/STM32WBxx_HAL_Driver/Inc/stm32wbxx_ll_bus.h ****   *         AHB1SMENR    DMA2SMEN      LL_AHB1_GRP1_DisableClockSleep\n
 490:Drivers/STM32WBxx_HAL_Driver/Inc/stm32wbxx_ll_bus.h ****   *         AHB1SMENR    DMAMUX1SMEN    LL_AHB1_GRP1_DisableClockSleep\n
 491:Drivers/STM32WBxx_HAL_Driver/Inc/stm32wbxx_ll_bus.h ****   *         AHB1SMENR    SRAM1SMEN     LL_AHB1_GRP1_DisableClockSleep\n
 492:Drivers/STM32WBxx_HAL_Driver/Inc/stm32wbxx_ll_bus.h ****   *         AHB1SMENR    CRCSMEN       LL_AHB1_GRP1_DisableClockSleep\n
 493:Drivers/STM32WBxx_HAL_Driver/Inc/stm32wbxx_ll_bus.h ****   *         AHB1SMENR    TSCSMEN       LL_AHB1_GRP1_DisableClockSleep
 494:Drivers/STM32WBxx_HAL_Driver/Inc/stm32wbxx_ll_bus.h ****   * @param  Periphs This parameter can be a combination of the following values:
 495:Drivers/STM32WBxx_HAL_Driver/Inc/stm32wbxx_ll_bus.h ****   *         @arg @ref LL_AHB1_GRP1_PERIPH_DMA1
 496:Drivers/STM32WBxx_HAL_Driver/Inc/stm32wbxx_ll_bus.h ****   *         @arg @ref LL_AHB1_GRP1_PERIPH_DMA2 (*)
 497:Drivers/STM32WBxx_HAL_Driver/Inc/stm32wbxx_ll_bus.h ****   *         @arg @ref LL_AHB1_GRP1_PERIPH_DMAMUX1
 498:Drivers/STM32WBxx_HAL_Driver/Inc/stm32wbxx_ll_bus.h ****   *         @arg @ref LL_AHB1_GRP1_PERIPH_SRAM1
 499:Drivers/STM32WBxx_HAL_Driver/Inc/stm32wbxx_ll_bus.h ****   *         @arg @ref LL_AHB1_GRP1_PERIPH_CRC
 500:Drivers/STM32WBxx_HAL_Driver/Inc/stm32wbxx_ll_bus.h ****   *         @arg @ref LL_AHB1_GRP1_PERIPH_TSC
 501:Drivers/STM32WBxx_HAL_Driver/Inc/stm32wbxx_ll_bus.h ****   * @note  (*) Not supported by all the devices
 502:Drivers/STM32WBxx_HAL_Driver/Inc/stm32wbxx_ll_bus.h ****   * @retval None
 503:Drivers/STM32WBxx_HAL_Driver/Inc/stm32wbxx_ll_bus.h ****   */
 504:Drivers/STM32WBxx_HAL_Driver/Inc/stm32wbxx_ll_bus.h **** __STATIC_INLINE void LL_AHB1_GRP1_DisableClockSleep(uint32_t Periphs)
 505:Drivers/STM32WBxx_HAL_Driver/Inc/stm32wbxx_ll_bus.h **** {
 506:Drivers/STM32WBxx_HAL_Driver/Inc/stm32wbxx_ll_bus.h ****   CLEAR_BIT(RCC->AHB1SMENR, Periphs);
 507:Drivers/STM32WBxx_HAL_Driver/Inc/stm32wbxx_ll_bus.h **** }
 508:Drivers/STM32WBxx_HAL_Driver/Inc/stm32wbxx_ll_bus.h **** 
 509:Drivers/STM32WBxx_HAL_Driver/Inc/stm32wbxx_ll_bus.h **** /**
 510:Drivers/STM32WBxx_HAL_Driver/Inc/stm32wbxx_ll_bus.h ****   * @}
 511:Drivers/STM32WBxx_HAL_Driver/Inc/stm32wbxx_ll_bus.h ****   */
 512:Drivers/STM32WBxx_HAL_Driver/Inc/stm32wbxx_ll_bus.h **** 
 513:Drivers/STM32WBxx_HAL_Driver/Inc/stm32wbxx_ll_bus.h **** /** @defgroup BUS_LL_EF_AHB2 AHB2
 514:Drivers/STM32WBxx_HAL_Driver/Inc/stm32wbxx_ll_bus.h ****   * @{
 515:Drivers/STM32WBxx_HAL_Driver/Inc/stm32wbxx_ll_bus.h ****   */
 516:Drivers/STM32WBxx_HAL_Driver/Inc/stm32wbxx_ll_bus.h **** 
 517:Drivers/STM32WBxx_HAL_Driver/Inc/stm32wbxx_ll_bus.h **** /**
 518:Drivers/STM32WBxx_HAL_Driver/Inc/stm32wbxx_ll_bus.h ****   * @brief  Enable AHB2 peripherals clock.
 519:Drivers/STM32WBxx_HAL_Driver/Inc/stm32wbxx_ll_bus.h ****   * @rmtoll AHB2ENR      GPIOAEN       LL_AHB2_GRP1_EnableClock\n
 520:Drivers/STM32WBxx_HAL_Driver/Inc/stm32wbxx_ll_bus.h ****   *         AHB2ENR      GPIOBEN       LL_AHB2_GRP1_EnableClock\n
 521:Drivers/STM32WBxx_HAL_Driver/Inc/stm32wbxx_ll_bus.h ****   *         AHB2ENR      GPIOCEN       LL_AHB2_GRP1_EnableClock\n
 522:Drivers/STM32WBxx_HAL_Driver/Inc/stm32wbxx_ll_bus.h ****   *         AHB2ENR      GPIODEN       LL_AHB2_GRP1_EnableClock\n
 523:Drivers/STM32WBxx_HAL_Driver/Inc/stm32wbxx_ll_bus.h ****   *         AHB2ENR      GPIOEEN       LL_AHB2_GRP1_EnableClock\n
 524:Drivers/STM32WBxx_HAL_Driver/Inc/stm32wbxx_ll_bus.h ****   *         AHB2ENR      GPIOHEN       LL_AHB2_GRP1_EnableClock\n
 525:Drivers/STM32WBxx_HAL_Driver/Inc/stm32wbxx_ll_bus.h ****   *         AHB2ENR      ADCEN         LL_AHB2_GRP1_EnableClock\n
 526:Drivers/STM32WBxx_HAL_Driver/Inc/stm32wbxx_ll_bus.h ****   *         AHB2ENR      AES1EN        LL_AHB2_GRP1_EnableClock
 527:Drivers/STM32WBxx_HAL_Driver/Inc/stm32wbxx_ll_bus.h ****   * @param  Periphs This parameter can be a combination of the following values:
 528:Drivers/STM32WBxx_HAL_Driver/Inc/stm32wbxx_ll_bus.h ****   *         @arg @ref LL_AHB2_GRP1_PERIPH_GPIOA
 529:Drivers/STM32WBxx_HAL_Driver/Inc/stm32wbxx_ll_bus.h ****   *         @arg @ref LL_AHB2_GRP1_PERIPH_GPIOB
 530:Drivers/STM32WBxx_HAL_Driver/Inc/stm32wbxx_ll_bus.h ****   *         @arg @ref LL_AHB2_GRP1_PERIPH_GPIOC
 531:Drivers/STM32WBxx_HAL_Driver/Inc/stm32wbxx_ll_bus.h ****   *         @arg @ref LL_AHB2_GRP1_PERIPH_GPIOD (*)
 532:Drivers/STM32WBxx_HAL_Driver/Inc/stm32wbxx_ll_bus.h ****   *         @arg @ref LL_AHB2_GRP1_PERIPH_GPIOE
 533:Drivers/STM32WBxx_HAL_Driver/Inc/stm32wbxx_ll_bus.h ****   *         @arg @ref LL_AHB2_GRP1_PERIPH_GPIOH
 534:Drivers/STM32WBxx_HAL_Driver/Inc/stm32wbxx_ll_bus.h ****   *         @arg @ref LL_AHB2_GRP1_PERIPH_ADC (*)
 535:Drivers/STM32WBxx_HAL_Driver/Inc/stm32wbxx_ll_bus.h ****   *         @arg @ref LL_AHB2_GRP1_PERIPH_AES1 (*)
 536:Drivers/STM32WBxx_HAL_Driver/Inc/stm32wbxx_ll_bus.h ****   * @note  (*) Not supported by all the devices
 537:Drivers/STM32WBxx_HAL_Driver/Inc/stm32wbxx_ll_bus.h ****   * @retval None
 538:Drivers/STM32WBxx_HAL_Driver/Inc/stm32wbxx_ll_bus.h ****   */
 539:Drivers/STM32WBxx_HAL_Driver/Inc/stm32wbxx_ll_bus.h **** __STATIC_INLINE void LL_AHB2_GRP1_EnableClock(uint32_t Periphs)
 540:Drivers/STM32WBxx_HAL_Driver/Inc/stm32wbxx_ll_bus.h **** {
  29              		.loc 2 540 1
  30              		.cfi_startproc
  31              		@ args = 0, pretend = 0, frame = 16
ARM GAS  C:\Users\alanl\AppData\Local\Temp\ccY2aaIM.s 			page 11


  32              		@ frame_needed = 1, uses_anonymous_args = 0
  33              		@ link register save eliminated.
  34 0000 80B4     		push	{r7}
  35              	.LCFI0:
  36              		.cfi_def_cfa_offset 4
  37              		.cfi_offset 7, -4
  38 0002 85B0     		sub	sp, sp, #20
  39              	.LCFI1:
  40              		.cfi_def_cfa_offset 24
  41 0004 00AF     		add	r7, sp, #0
  42              	.LCFI2:
  43              		.cfi_def_cfa_register 7
  44 0006 7860     		str	r0, [r7, #4]
 541:Drivers/STM32WBxx_HAL_Driver/Inc/stm32wbxx_ll_bus.h ****   __IO uint32_t tmpreg;
 542:Drivers/STM32WBxx_HAL_Driver/Inc/stm32wbxx_ll_bus.h ****   SET_BIT(RCC->AHB2ENR, Periphs);
  45              		.loc 2 542 3
  46 0008 4FF0B043 		mov	r3, #1476395008
  47 000c DA6C     		ldr	r2, [r3, #76]
  48 000e 4FF0B041 		mov	r1, #1476395008
  49 0012 7B68     		ldr	r3, [r7, #4]
  50 0014 1343     		orrs	r3, r3, r2
  51 0016 CB64     		str	r3, [r1, #76]
 543:Drivers/STM32WBxx_HAL_Driver/Inc/stm32wbxx_ll_bus.h ****   /* Delay after an RCC peripheral clock enabling */
 544:Drivers/STM32WBxx_HAL_Driver/Inc/stm32wbxx_ll_bus.h ****   tmpreg = READ_BIT(RCC->AHB2ENR, Periphs);
  52              		.loc 2 544 12
  53 0018 4FF0B043 		mov	r3, #1476395008
  54 001c DA6C     		ldr	r2, [r3, #76]
  55 001e 7B68     		ldr	r3, [r7, #4]
  56 0020 1340     		ands	r3, r3, r2
  57              		.loc 2 544 10
  58 0022 FB60     		str	r3, [r7, #12]
 545:Drivers/STM32WBxx_HAL_Driver/Inc/stm32wbxx_ll_bus.h ****   (void)tmpreg;
  59              		.loc 2 545 3
  60 0024 FB68     		ldr	r3, [r7, #12]
 546:Drivers/STM32WBxx_HAL_Driver/Inc/stm32wbxx_ll_bus.h **** }
  61              		.loc 2 546 1
  62 0026 00BF     		nop
  63 0028 1437     		adds	r7, r7, #20
  64              	.LCFI3:
  65              		.cfi_def_cfa_offset 4
  66 002a BD46     		mov	sp, r7
  67              	.LCFI4:
  68              		.cfi_def_cfa_register 13
  69              		@ sp needed
  70 002c 5DF8047B 		ldr	r7, [sp], #4
  71              	.LCFI5:
  72              		.cfi_restore 7
  73              		.cfi_def_cfa_offset 0
  74 0030 7047     		bx	lr
  75              		.cfi_endproc
  76              	.LFE716:
  78              		.global	GPIO_PORT
  79              		.section	.data.GPIO_PORT,"aw"
  80              		.align	2
  83              	GPIO_PORT:
  84 0000 00040048 		.word	1207960576
  85 0004 00040048 		.word	1207960576
ARM GAS  C:\Users\alanl\AppData\Local\Temp\ccY2aaIM.s 			page 12


  86 0008 00040048 		.word	1207960576
  87              		.global	GPIO_PIN
  88              		.section	.rodata.GPIO_PIN,"a"
  89              		.align	2
  92              	GPIO_PIN:
  93 0000 2000     		.short	32
  94 0002 0100     		.short	1
  95 0004 0200     		.short	2
  96              		.global	BUTTON_PORT
  97              		.section	.data.BUTTON_PORT,"aw"
  98              		.align	2
 101              	BUTTON_PORT:
 102 0000 00080048 		.word	1207961600
 103 0004 000C0048 		.word	1207962624
 104 0008 000C0048 		.word	1207962624
 105              		.global	BUTTON_PIN
 106              		.section	.rodata.BUTTON_PIN,"a"
 107              		.align	2
 110              	BUTTON_PIN:
 111 0000 1000     		.short	16
 112 0002 0100     		.short	1
 113 0004 0200     		.short	2
 114              		.global	BUTTON_IRQn
 115              		.section	.rodata.BUTTON_IRQn,"a"
 116              		.align	2
 119              	BUTTON_IRQn:
 120 0000 0A0607   		.ascii	"\012\006\007"
 121              		.section	.text.BSP_GetVersion,"ax",%progbits
 122              		.align	1
 123              		.global	BSP_GetVersion
 124              		.syntax unified
 125              		.thumb
 126              		.thumb_func
 128              	BSP_GetVersion:
 129              	.LFB950:
   1:Drivers/BSP/P-NUCLEO-WB55.Nucleo/stm32wbxx_nucleo.c **** /**
   2:Drivers/BSP/P-NUCLEO-WB55.Nucleo/stm32wbxx_nucleo.c ****   ******************************************************************************
   3:Drivers/BSP/P-NUCLEO-WB55.Nucleo/stm32wbxx_nucleo.c ****   * @file    stm32wbxx_nucleo.c
   4:Drivers/BSP/P-NUCLEO-WB55.Nucleo/stm32wbxx_nucleo.c ****   * @author  MCD Application Team
   5:Drivers/BSP/P-NUCLEO-WB55.Nucleo/stm32wbxx_nucleo.c ****   * @brief   This file provides set of firmware functions to manage:
   6:Drivers/BSP/P-NUCLEO-WB55.Nucleo/stm32wbxx_nucleo.c ****   *          - LEDs and push-button available on STM32WBXX-Nucleo Kit 
   7:Drivers/BSP/P-NUCLEO-WB55.Nucleo/stm32wbxx_nucleo.c ****   *            from STMicroelectronics
   8:Drivers/BSP/P-NUCLEO-WB55.Nucleo/stm32wbxx_nucleo.c ****   *          - LCD, joystick and microSD available on Adafruit 1.8" TFT LCD 
   9:Drivers/BSP/P-NUCLEO-WB55.Nucleo/stm32wbxx_nucleo.c ****   *            shield (reference ID 802)
  10:Drivers/BSP/P-NUCLEO-WB55.Nucleo/stm32wbxx_nucleo.c ****   ******************************************************************************
  11:Drivers/BSP/P-NUCLEO-WB55.Nucleo/stm32wbxx_nucleo.c ****   * @attention
  12:Drivers/BSP/P-NUCLEO-WB55.Nucleo/stm32wbxx_nucleo.c ****   *
  13:Drivers/BSP/P-NUCLEO-WB55.Nucleo/stm32wbxx_nucleo.c ****   * Copyright (c) 2019-2021 STMicroelectronics.
  14:Drivers/BSP/P-NUCLEO-WB55.Nucleo/stm32wbxx_nucleo.c ****   * All rights reserved.
  15:Drivers/BSP/P-NUCLEO-WB55.Nucleo/stm32wbxx_nucleo.c ****   *
  16:Drivers/BSP/P-NUCLEO-WB55.Nucleo/stm32wbxx_nucleo.c ****   * This software is licensed under terms that can be found in the LICENSE file
  17:Drivers/BSP/P-NUCLEO-WB55.Nucleo/stm32wbxx_nucleo.c ****   * in the root directory of this software component.
  18:Drivers/BSP/P-NUCLEO-WB55.Nucleo/stm32wbxx_nucleo.c ****   * If no LICENSE file comes with this software, it is provided AS-IS.
  19:Drivers/BSP/P-NUCLEO-WB55.Nucleo/stm32wbxx_nucleo.c ****   *
  20:Drivers/BSP/P-NUCLEO-WB55.Nucleo/stm32wbxx_nucleo.c ****   ******************************************************************************
  21:Drivers/BSP/P-NUCLEO-WB55.Nucleo/stm32wbxx_nucleo.c ****   */
  22:Drivers/BSP/P-NUCLEO-WB55.Nucleo/stm32wbxx_nucleo.c **** 
ARM GAS  C:\Users\alanl\AppData\Local\Temp\ccY2aaIM.s 			page 13


  23:Drivers/BSP/P-NUCLEO-WB55.Nucleo/stm32wbxx_nucleo.c **** /* Includes ------------------------------------------------------------------*/
  24:Drivers/BSP/P-NUCLEO-WB55.Nucleo/stm32wbxx_nucleo.c **** #include "stm32wbxx_nucleo.h"
  25:Drivers/BSP/P-NUCLEO-WB55.Nucleo/stm32wbxx_nucleo.c **** #include "stm32wbxx_nucleo_errno.h"
  26:Drivers/BSP/P-NUCLEO-WB55.Nucleo/stm32wbxx_nucleo.c **** 
  27:Drivers/BSP/P-NUCLEO-WB55.Nucleo/stm32wbxx_nucleo.c **** #if defined(__ICCARM__)
  28:Drivers/BSP/P-NUCLEO-WB55.Nucleo/stm32wbxx_nucleo.c **** #include <LowLevelIOInterface.h>
  29:Drivers/BSP/P-NUCLEO-WB55.Nucleo/stm32wbxx_nucleo.c **** #endif /* __ICCARM__ */
  30:Drivers/BSP/P-NUCLEO-WB55.Nucleo/stm32wbxx_nucleo.c **** 
  31:Drivers/BSP/P-NUCLEO-WB55.Nucleo/stm32wbxx_nucleo.c **** /** @addtogroup BSP
  32:Drivers/BSP/P-NUCLEO-WB55.Nucleo/stm32wbxx_nucleo.c ****   * @{
  33:Drivers/BSP/P-NUCLEO-WB55.Nucleo/stm32wbxx_nucleo.c ****   */
  34:Drivers/BSP/P-NUCLEO-WB55.Nucleo/stm32wbxx_nucleo.c **** 
  35:Drivers/BSP/P-NUCLEO-WB55.Nucleo/stm32wbxx_nucleo.c **** /** @defgroup STM32WBXX_NUCLEO STM32WBxx-Nucleo
  36:Drivers/BSP/P-NUCLEO-WB55.Nucleo/stm32wbxx_nucleo.c ****   * @brief This file provides set of firmware functions to manage Leds and push-button
  37:Drivers/BSP/P-NUCLEO-WB55.Nucleo/stm32wbxx_nucleo.c ****   *        available on STM32WBxx-Nucleo Kit from STMicroelectronics.
  38:Drivers/BSP/P-NUCLEO-WB55.Nucleo/stm32wbxx_nucleo.c ****   *        It provides also LCD, joystick and uSD functions to communicate with 
  39:Drivers/BSP/P-NUCLEO-WB55.Nucleo/stm32wbxx_nucleo.c ****   *        Adafruit 1.8" TFT LCD shield (reference ID 802)
  40:Drivers/BSP/P-NUCLEO-WB55.Nucleo/stm32wbxx_nucleo.c ****   * @{
  41:Drivers/BSP/P-NUCLEO-WB55.Nucleo/stm32wbxx_nucleo.c ****   */
  42:Drivers/BSP/P-NUCLEO-WB55.Nucleo/stm32wbxx_nucleo.c **** 
  43:Drivers/BSP/P-NUCLEO-WB55.Nucleo/stm32wbxx_nucleo.c **** /** @defgroup STM32WBXX_NUCLEO_Private_Defines Private Defines
  44:Drivers/BSP/P-NUCLEO-WB55.Nucleo/stm32wbxx_nucleo.c ****   * @{
  45:Drivers/BSP/P-NUCLEO-WB55.Nucleo/stm32wbxx_nucleo.c ****   */
  46:Drivers/BSP/P-NUCLEO-WB55.Nucleo/stm32wbxx_nucleo.c **** 
  47:Drivers/BSP/P-NUCLEO-WB55.Nucleo/stm32wbxx_nucleo.c **** 
  48:Drivers/BSP/P-NUCLEO-WB55.Nucleo/stm32wbxx_nucleo.c **** /** @defgroup STM32WBXX_NUCLEO_LOW_LEVEL_Exported_Variables LOW LEVEL Exported Variables
  49:Drivers/BSP/P-NUCLEO-WB55.Nucleo/stm32wbxx_nucleo.c ****   * @{
  50:Drivers/BSP/P-NUCLEO-WB55.Nucleo/stm32wbxx_nucleo.c ****   */
  51:Drivers/BSP/P-NUCLEO-WB55.Nucleo/stm32wbxx_nucleo.c **** #if (USE_BSP_COM_FEATURE > 0)
  52:Drivers/BSP/P-NUCLEO-WB55.Nucleo/stm32wbxx_nucleo.c **** UART_HandleTypeDef hcom_uart[COMn];
  53:Drivers/BSP/P-NUCLEO-WB55.Nucleo/stm32wbxx_nucleo.c **** #endif /* (USE_BSP_COM_FEATURE > 0) */
  54:Drivers/BSP/P-NUCLEO-WB55.Nucleo/stm32wbxx_nucleo.c **** /**
  55:Drivers/BSP/P-NUCLEO-WB55.Nucleo/stm32wbxx_nucleo.c ****   * @}
  56:Drivers/BSP/P-NUCLEO-WB55.Nucleo/stm32wbxx_nucleo.c ****   */
  57:Drivers/BSP/P-NUCLEO-WB55.Nucleo/stm32wbxx_nucleo.c **** 
  58:Drivers/BSP/P-NUCLEO-WB55.Nucleo/stm32wbxx_nucleo.c **** /** @defgroup STM32WBXX_NUCLEO_LOW_LEVEL_Private_Defines LOW LEVEL Private Defines
  59:Drivers/BSP/P-NUCLEO-WB55.Nucleo/stm32wbxx_nucleo.c ****   * @{
  60:Drivers/BSP/P-NUCLEO-WB55.Nucleo/stm32wbxx_nucleo.c ****   */
  61:Drivers/BSP/P-NUCLEO-WB55.Nucleo/stm32wbxx_nucleo.c **** #if (USE_COM_LOG == 1)
  62:Drivers/BSP/P-NUCLEO-WB55.Nucleo/stm32wbxx_nucleo.c **** /**
  63:Drivers/BSP/P-NUCLEO-WB55.Nucleo/stm32wbxx_nucleo.c ****   * @brief  Redirect console output to COM
  64:Drivers/BSP/P-NUCLEO-WB55.Nucleo/stm32wbxx_nucleo.c ****   */
  65:Drivers/BSP/P-NUCLEO-WB55.Nucleo/stm32wbxx_nucleo.c **** #if defined(__ICCARM__)
  66:Drivers/BSP/P-NUCLEO-WB55.Nucleo/stm32wbxx_nucleo.c **** /* New definition from EWARM V9, compatible with EWARM8 */
  67:Drivers/BSP/P-NUCLEO-WB55.Nucleo/stm32wbxx_nucleo.c **** int iar_fputc(int ch);
  68:Drivers/BSP/P-NUCLEO-WB55.Nucleo/stm32wbxx_nucleo.c **** #define PUTCHAR_PROTOTYPE int iar_fputc(int ch)
  69:Drivers/BSP/P-NUCLEO-WB55.Nucleo/stm32wbxx_nucleo.c **** #elif defined (__CC_ARM) || defined(__ARMCC_VERSION)
  70:Drivers/BSP/P-NUCLEO-WB55.Nucleo/stm32wbxx_nucleo.c **** /* ARM Compiler 5/6 */
  71:Drivers/BSP/P-NUCLEO-WB55.Nucleo/stm32wbxx_nucleo.c **** #define PUTCHAR_PROTOTYPE int fputc(int ch, FILE *f)
  72:Drivers/BSP/P-NUCLEO-WB55.Nucleo/stm32wbxx_nucleo.c **** #elif defined(__GNUC__)
  73:Drivers/BSP/P-NUCLEO-WB55.Nucleo/stm32wbxx_nucleo.c **** #define PUTCHAR_PROTOTYPE int __io_putchar(int ch)
  74:Drivers/BSP/P-NUCLEO-WB55.Nucleo/stm32wbxx_nucleo.c **** #endif /* __ICCARM__ */
  75:Drivers/BSP/P-NUCLEO-WB55.Nucleo/stm32wbxx_nucleo.c **** 
  76:Drivers/BSP/P-NUCLEO-WB55.Nucleo/stm32wbxx_nucleo.c **** #endif /* USE_COM_LOG */
  77:Drivers/BSP/P-NUCLEO-WB55.Nucleo/stm32wbxx_nucleo.c **** 
  78:Drivers/BSP/P-NUCLEO-WB55.Nucleo/stm32wbxx_nucleo.c **** /**
  79:Drivers/BSP/P-NUCLEO-WB55.Nucleo/stm32wbxx_nucleo.c ****   * @brief STM32WBxx NUCLEO BSP Driver
ARM GAS  C:\Users\alanl\AppData\Local\Temp\ccY2aaIM.s 			page 14


  80:Drivers/BSP/P-NUCLEO-WB55.Nucleo/stm32wbxx_nucleo.c ****   */
  81:Drivers/BSP/P-NUCLEO-WB55.Nucleo/stm32wbxx_nucleo.c **** #define __STM32WBxx_NUCLEO_BSP_VERSION_MAIN   (0x01U) /*!< [31:24] main version */
  82:Drivers/BSP/P-NUCLEO-WB55.Nucleo/stm32wbxx_nucleo.c **** #define __STM32WBxx_NUCLEO_BSP_VERSION_SUB1   (0x00U) /*!< [23:16] sub1 version */
  83:Drivers/BSP/P-NUCLEO-WB55.Nucleo/stm32wbxx_nucleo.c **** #define __STM32WBxx_NUCLEO_BSP_VERSION_SUB2   (0x08U) /*!< [15:8]  sub2 version */
  84:Drivers/BSP/P-NUCLEO-WB55.Nucleo/stm32wbxx_nucleo.c **** #define __STM32WBxx_NUCLEO_BSP_VERSION_RC     (0x00U) /*!< [7:0]  release candidate */ 
  85:Drivers/BSP/P-NUCLEO-WB55.Nucleo/stm32wbxx_nucleo.c **** #define __STM32WBxx_NUCLEO_BSP_VERSION        ((__STM32WBxx_NUCLEO_BSP_VERSION_MAIN << 24)\
  86:Drivers/BSP/P-NUCLEO-WB55.Nucleo/stm32wbxx_nucleo.c ****                                              |(__STM32WBxx_NUCLEO_BSP_VERSION_SUB1 << 16)\
  87:Drivers/BSP/P-NUCLEO-WB55.Nucleo/stm32wbxx_nucleo.c ****                                              |(__STM32WBxx_NUCLEO_BSP_VERSION_SUB2 << 8 )\
  88:Drivers/BSP/P-NUCLEO-WB55.Nucleo/stm32wbxx_nucleo.c ****                                              |(__STM32WBxx_NUCLEO_BSP_VERSION_RC))   
  89:Drivers/BSP/P-NUCLEO-WB55.Nucleo/stm32wbxx_nucleo.c **** 
  90:Drivers/BSP/P-NUCLEO-WB55.Nucleo/stm32wbxx_nucleo.c **** /**
  91:Drivers/BSP/P-NUCLEO-WB55.Nucleo/stm32wbxx_nucleo.c ****   * @brief LINK SD Card
  92:Drivers/BSP/P-NUCLEO-WB55.Nucleo/stm32wbxx_nucleo.c ****   */
  93:Drivers/BSP/P-NUCLEO-WB55.Nucleo/stm32wbxx_nucleo.c **** #define SD_DUMMY_BYTE            0xFF    
  94:Drivers/BSP/P-NUCLEO-WB55.Nucleo/stm32wbxx_nucleo.c **** #define SD_NO_RESPONSE_EXPECTED  0x80
  95:Drivers/BSP/P-NUCLEO-WB55.Nucleo/stm32wbxx_nucleo.c **** 
  96:Drivers/BSP/P-NUCLEO-WB55.Nucleo/stm32wbxx_nucleo.c **** /**
  97:Drivers/BSP/P-NUCLEO-WB55.Nucleo/stm32wbxx_nucleo.c ****   * @}
  98:Drivers/BSP/P-NUCLEO-WB55.Nucleo/stm32wbxx_nucleo.c ****   */ 
  99:Drivers/BSP/P-NUCLEO-WB55.Nucleo/stm32wbxx_nucleo.c **** 
 100:Drivers/BSP/P-NUCLEO-WB55.Nucleo/stm32wbxx_nucleo.c **** /** @defgroup STM32WBXX_NUCLEO_LOW_LEVEL_Private_Variables Private Variables
 101:Drivers/BSP/P-NUCLEO-WB55.Nucleo/stm32wbxx_nucleo.c ****   * @{
 102:Drivers/BSP/P-NUCLEO-WB55.Nucleo/stm32wbxx_nucleo.c ****   */ 
 103:Drivers/BSP/P-NUCLEO-WB55.Nucleo/stm32wbxx_nucleo.c **** GPIO_TypeDef* GPIO_PORT[LEDn] = {LED1_GPIO_PORT, LED2_GPIO_PORT, LED3_GPIO_PORT};
 104:Drivers/BSP/P-NUCLEO-WB55.Nucleo/stm32wbxx_nucleo.c **** const uint16_t GPIO_PIN[LEDn] = {LED1_PIN, LED2_PIN, LED3_PIN};
 105:Drivers/BSP/P-NUCLEO-WB55.Nucleo/stm32wbxx_nucleo.c **** 
 106:Drivers/BSP/P-NUCLEO-WB55.Nucleo/stm32wbxx_nucleo.c **** GPIO_TypeDef* BUTTON_PORT[BUTTONn] = {BUTTON_SW1_GPIO_PORT, BUTTON_SW2_GPIO_PORT, BUTTON_SW3_GPIO_P
 107:Drivers/BSP/P-NUCLEO-WB55.Nucleo/stm32wbxx_nucleo.c **** const uint16_t BUTTON_PIN[BUTTONn] = {BUTTON_SW1_PIN, BUTTON_SW2_PIN, BUTTON_SW3_PIN}; 
 108:Drivers/BSP/P-NUCLEO-WB55.Nucleo/stm32wbxx_nucleo.c **** const uint8_t BUTTON_IRQn[BUTTONn] = {BUTTON_SW1_EXTI_IRQn, BUTTON_SW2_EXTI_IRQn, BUTTON_SW3_EXTI_I
 109:Drivers/BSP/P-NUCLEO-WB55.Nucleo/stm32wbxx_nucleo.c **** 
 110:Drivers/BSP/P-NUCLEO-WB55.Nucleo/stm32wbxx_nucleo.c **** /**
 111:Drivers/BSP/P-NUCLEO-WB55.Nucleo/stm32wbxx_nucleo.c ****  * @brief BUS variables
 112:Drivers/BSP/P-NUCLEO-WB55.Nucleo/stm32wbxx_nucleo.c ****  */
 113:Drivers/BSP/P-NUCLEO-WB55.Nucleo/stm32wbxx_nucleo.c **** 
 114:Drivers/BSP/P-NUCLEO-WB55.Nucleo/stm32wbxx_nucleo.c **** #ifdef HAL_SPI_MODULE_ENABLED
 115:Drivers/BSP/P-NUCLEO-WB55.Nucleo/stm32wbxx_nucleo.c **** uint32_t hnucleo_SpixTimeout = NUCLEO_SPIx_TIMEOUT_MAX;        /*<! Value of Timeout when SPI commu
 116:Drivers/BSP/P-NUCLEO-WB55.Nucleo/stm32wbxx_nucleo.c **** static SPI_HandleTypeDef hnucleo_Spi;
 117:Drivers/BSP/P-NUCLEO-WB55.Nucleo/stm32wbxx_nucleo.c **** #endif /* HAL_SPI_MODULE_ENABLED */
 118:Drivers/BSP/P-NUCLEO-WB55.Nucleo/stm32wbxx_nucleo.c **** 
 119:Drivers/BSP/P-NUCLEO-WB55.Nucleo/stm32wbxx_nucleo.c **** #ifdef HAL_ADC_MODULE_ENABLED
 120:Drivers/BSP/P-NUCLEO-WB55.Nucleo/stm32wbxx_nucleo.c **** static ADC_HandleTypeDef hnucleo_Adc;
 121:Drivers/BSP/P-NUCLEO-WB55.Nucleo/stm32wbxx_nucleo.c **** /* ADC channel configuration structure declaration */
 122:Drivers/BSP/P-NUCLEO-WB55.Nucleo/stm32wbxx_nucleo.c **** static ADC_ChannelConfTypeDef hnucleo_AdcChannelConfig;
 123:Drivers/BSP/P-NUCLEO-WB55.Nucleo/stm32wbxx_nucleo.c **** #endif /* HAL_ADC_MODULE_ENABLED */
 124:Drivers/BSP/P-NUCLEO-WB55.Nucleo/stm32wbxx_nucleo.c **** 
 125:Drivers/BSP/P-NUCLEO-WB55.Nucleo/stm32wbxx_nucleo.c **** #if (USE_BSP_COM_FEATURE > 0)
 126:Drivers/BSP/P-NUCLEO-WB55.Nucleo/stm32wbxx_nucleo.c **** static USART_TypeDef*  COM_USART[COMn] = {COM1_UART};
 127:Drivers/BSP/P-NUCLEO-WB55.Nucleo/stm32wbxx_nucleo.c **** 
 128:Drivers/BSP/P-NUCLEO-WB55.Nucleo/stm32wbxx_nucleo.c **** #if (USE_COM_LOG > 0)
 129:Drivers/BSP/P-NUCLEO-WB55.Nucleo/stm32wbxx_nucleo.c **** static COM_TypeDef COM_ActiveLogPort = COM1;
 130:Drivers/BSP/P-NUCLEO-WB55.Nucleo/stm32wbxx_nucleo.c **** #endif /* USE_COM_LOG */
 131:Drivers/BSP/P-NUCLEO-WB55.Nucleo/stm32wbxx_nucleo.c **** 
 132:Drivers/BSP/P-NUCLEO-WB55.Nucleo/stm32wbxx_nucleo.c **** #if (USE_HAL_UART_REGISTER_CALLBACKS == 1)
 133:Drivers/BSP/P-NUCLEO-WB55.Nucleo/stm32wbxx_nucleo.c **** static uint32_t IsComMspCbValid[COMn] = {0};
 134:Drivers/BSP/P-NUCLEO-WB55.Nucleo/stm32wbxx_nucleo.c **** #endif /* USE_HAL_UART_REGISTER_CALLBACKS */
 135:Drivers/BSP/P-NUCLEO-WB55.Nucleo/stm32wbxx_nucleo.c **** #endif /* (USE_BSP_COM_FEATURE > 0) */
 136:Drivers/BSP/P-NUCLEO-WB55.Nucleo/stm32wbxx_nucleo.c **** /**
ARM GAS  C:\Users\alanl\AppData\Local\Temp\ccY2aaIM.s 			page 15


 137:Drivers/BSP/P-NUCLEO-WB55.Nucleo/stm32wbxx_nucleo.c ****   * @}
 138:Drivers/BSP/P-NUCLEO-WB55.Nucleo/stm32wbxx_nucleo.c ****   */ 
 139:Drivers/BSP/P-NUCLEO-WB55.Nucleo/stm32wbxx_nucleo.c **** 
 140:Drivers/BSP/P-NUCLEO-WB55.Nucleo/stm32wbxx_nucleo.c **** /** @defgroup STM32WBXX_NUCLEO_Private_Functions Private Functions
 141:Drivers/BSP/P-NUCLEO-WB55.Nucleo/stm32wbxx_nucleo.c ****   * @{
 142:Drivers/BSP/P-NUCLEO-WB55.Nucleo/stm32wbxx_nucleo.c ****   */ 
 143:Drivers/BSP/P-NUCLEO-WB55.Nucleo/stm32wbxx_nucleo.c **** #ifdef HAL_SPI_MODULE_ENABLED
 144:Drivers/BSP/P-NUCLEO-WB55.Nucleo/stm32wbxx_nucleo.c **** static void               SPIx_Init(void);
 145:Drivers/BSP/P-NUCLEO-WB55.Nucleo/stm32wbxx_nucleo.c **** static void               SPIx_Write(uint8_t Value);
 146:Drivers/BSP/P-NUCLEO-WB55.Nucleo/stm32wbxx_nucleo.c **** static void               SPIx_Error (void);
 147:Drivers/BSP/P-NUCLEO-WB55.Nucleo/stm32wbxx_nucleo.c **** static void               SPIx_MspInit(void);
 148:Drivers/BSP/P-NUCLEO-WB55.Nucleo/stm32wbxx_nucleo.c **** #endif /* HAL_SPI_MODULE_ENABLED */
 149:Drivers/BSP/P-NUCLEO-WB55.Nucleo/stm32wbxx_nucleo.c **** 
 150:Drivers/BSP/P-NUCLEO-WB55.Nucleo/stm32wbxx_nucleo.c **** #ifdef HAL_ADC_MODULE_ENABLED
 151:Drivers/BSP/P-NUCLEO-WB55.Nucleo/stm32wbxx_nucleo.c **** static HAL_StatusTypeDef  ADCx_Init(void);
 152:Drivers/BSP/P-NUCLEO-WB55.Nucleo/stm32wbxx_nucleo.c **** static void               ADCx_MspInit(ADC_HandleTypeDef *hadc);
 153:Drivers/BSP/P-NUCLEO-WB55.Nucleo/stm32wbxx_nucleo.c **** #endif /* HAL_ADC_MODULE_ENABLED */
 154:Drivers/BSP/P-NUCLEO-WB55.Nucleo/stm32wbxx_nucleo.c **** 
 155:Drivers/BSP/P-NUCLEO-WB55.Nucleo/stm32wbxx_nucleo.c **** #ifdef HAL_SPI_MODULE_ENABLED
 156:Drivers/BSP/P-NUCLEO-WB55.Nucleo/stm32wbxx_nucleo.c **** /* SD IO functions */
 157:Drivers/BSP/P-NUCLEO-WB55.Nucleo/stm32wbxx_nucleo.c **** void                      SD_IO_Init(void);
 158:Drivers/BSP/P-NUCLEO-WB55.Nucleo/stm32wbxx_nucleo.c **** void                      SD_IO_CSState(uint8_t state);
 159:Drivers/BSP/P-NUCLEO-WB55.Nucleo/stm32wbxx_nucleo.c **** void                      SD_IO_WriteReadData(const uint8_t *DataIn, uint8_t *DataOut, uint16_t Dat
 160:Drivers/BSP/P-NUCLEO-WB55.Nucleo/stm32wbxx_nucleo.c **** uint8_t                   SD_IO_WriteByte(uint8_t Data);
 161:Drivers/BSP/P-NUCLEO-WB55.Nucleo/stm32wbxx_nucleo.c **** 
 162:Drivers/BSP/P-NUCLEO-WB55.Nucleo/stm32wbxx_nucleo.c **** /* LCD IO functions */
 163:Drivers/BSP/P-NUCLEO-WB55.Nucleo/stm32wbxx_nucleo.c **** void                      LCD_IO_Init(void);
 164:Drivers/BSP/P-NUCLEO-WB55.Nucleo/stm32wbxx_nucleo.c **** void                      LCD_IO_WriteMultipleData(uint8_t *pData, uint32_t Size);
 165:Drivers/BSP/P-NUCLEO-WB55.Nucleo/stm32wbxx_nucleo.c **** void                      LCD_IO_WriteReg(uint8_t LCDReg);
 166:Drivers/BSP/P-NUCLEO-WB55.Nucleo/stm32wbxx_nucleo.c **** void                      LCD_Delay(uint32_t delay);
 167:Drivers/BSP/P-NUCLEO-WB55.Nucleo/stm32wbxx_nucleo.c **** #endif /* HAL_SPI_MODULE_ENABLED */
 168:Drivers/BSP/P-NUCLEO-WB55.Nucleo/stm32wbxx_nucleo.c **** 
 169:Drivers/BSP/P-NUCLEO-WB55.Nucleo/stm32wbxx_nucleo.c **** #if (USE_BSP_COM_FEATURE > 0)
 170:Drivers/BSP/P-NUCLEO-WB55.Nucleo/stm32wbxx_nucleo.c **** static void COM1_MspInit(UART_HandleTypeDef *huart);
 171:Drivers/BSP/P-NUCLEO-WB55.Nucleo/stm32wbxx_nucleo.c **** static void COM1_MspDeInit(UART_HandleTypeDef *huart);
 172:Drivers/BSP/P-NUCLEO-WB55.Nucleo/stm32wbxx_nucleo.c **** #endif /* (USE_BSP_COM_FEATURE > 0) */
 173:Drivers/BSP/P-NUCLEO-WB55.Nucleo/stm32wbxx_nucleo.c **** /**
 174:Drivers/BSP/P-NUCLEO-WB55.Nucleo/stm32wbxx_nucleo.c ****   * @}
 175:Drivers/BSP/P-NUCLEO-WB55.Nucleo/stm32wbxx_nucleo.c ****   */
 176:Drivers/BSP/P-NUCLEO-WB55.Nucleo/stm32wbxx_nucleo.c **** 
 177:Drivers/BSP/P-NUCLEO-WB55.Nucleo/stm32wbxx_nucleo.c **** /** @defgroup STM32WBXX_NUCLEO_Exported_Functions Exported Functions
 178:Drivers/BSP/P-NUCLEO-WB55.Nucleo/stm32wbxx_nucleo.c ****   * @{
 179:Drivers/BSP/P-NUCLEO-WB55.Nucleo/stm32wbxx_nucleo.c ****   */
 180:Drivers/BSP/P-NUCLEO-WB55.Nucleo/stm32wbxx_nucleo.c **** 
 181:Drivers/BSP/P-NUCLEO-WB55.Nucleo/stm32wbxx_nucleo.c **** /**
 182:Drivers/BSP/P-NUCLEO-WB55.Nucleo/stm32wbxx_nucleo.c ****   * @brief  This method returns the STM32WBxx NUCLEO BSP Driver revision
 183:Drivers/BSP/P-NUCLEO-WB55.Nucleo/stm32wbxx_nucleo.c ****   * @retval version: 0xXYZR (8bits for each decimal, R for RC)
 184:Drivers/BSP/P-NUCLEO-WB55.Nucleo/stm32wbxx_nucleo.c ****   */
 185:Drivers/BSP/P-NUCLEO-WB55.Nucleo/stm32wbxx_nucleo.c **** uint32_t BSP_GetVersion(void)
 186:Drivers/BSP/P-NUCLEO-WB55.Nucleo/stm32wbxx_nucleo.c **** {
 130              		.loc 1 186 1
 131              		.cfi_startproc
 132              		@ args = 0, pretend = 0, frame = 0
 133              		@ frame_needed = 1, uses_anonymous_args = 0
 134              		@ link register save eliminated.
 135 0000 80B4     		push	{r7}
 136              	.LCFI6:
ARM GAS  C:\Users\alanl\AppData\Local\Temp\ccY2aaIM.s 			page 16


 137              		.cfi_def_cfa_offset 4
 138              		.cfi_offset 7, -4
 139 0002 00AF     		add	r7, sp, #0
 140              	.LCFI7:
 141              		.cfi_def_cfa_register 7
 187:Drivers/BSP/P-NUCLEO-WB55.Nucleo/stm32wbxx_nucleo.c ****   return __STM32WBxx_NUCLEO_BSP_VERSION;
 142              		.loc 1 187 10
 143 0004 024B     		ldr	r3, .L4
 188:Drivers/BSP/P-NUCLEO-WB55.Nucleo/stm32wbxx_nucleo.c **** }
 144              		.loc 1 188 1
 145 0006 1846     		mov	r0, r3
 146 0008 BD46     		mov	sp, r7
 147              	.LCFI8:
 148              		.cfi_def_cfa_register 13
 149              		@ sp needed
 150 000a 5DF8047B 		ldr	r7, [sp], #4
 151              	.LCFI9:
 152              		.cfi_restore 7
 153              		.cfi_def_cfa_offset 0
 154 000e 7047     		bx	lr
 155              	.L5:
 156              		.align	2
 157              	.L4:
 158 0010 00080001 		.word	16779264
 159              		.cfi_endproc
 160              	.LFE950:
 162              		.section	.text.BSP_LED_Init,"ax",%progbits
 163              		.align	1
 164              		.global	BSP_LED_Init
 165              		.syntax unified
 166              		.thumb
 167              		.thumb_func
 169              	BSP_LED_Init:
 170              	.LFB951:
 189:Drivers/BSP/P-NUCLEO-WB55.Nucleo/stm32wbxx_nucleo.c **** 
 190:Drivers/BSP/P-NUCLEO-WB55.Nucleo/stm32wbxx_nucleo.c **** /** @defgroup STM32WBXX_NUCLEO_LED_Functions LED Functions
 191:Drivers/BSP/P-NUCLEO-WB55.Nucleo/stm32wbxx_nucleo.c ****   * @{
 192:Drivers/BSP/P-NUCLEO-WB55.Nucleo/stm32wbxx_nucleo.c ****   */
 193:Drivers/BSP/P-NUCLEO-WB55.Nucleo/stm32wbxx_nucleo.c **** 
 194:Drivers/BSP/P-NUCLEO-WB55.Nucleo/stm32wbxx_nucleo.c **** /**
 195:Drivers/BSP/P-NUCLEO-WB55.Nucleo/stm32wbxx_nucleo.c ****   * @brief  Configures LED GPIO.
 196:Drivers/BSP/P-NUCLEO-WB55.Nucleo/stm32wbxx_nucleo.c ****   * @param  Led: LED to be configured. 
 197:Drivers/BSP/P-NUCLEO-WB55.Nucleo/stm32wbxx_nucleo.c ****   *         This parameter can be one of the following values:
 198:Drivers/BSP/P-NUCLEO-WB55.Nucleo/stm32wbxx_nucleo.c ****   *            @arg LED1
 199:Drivers/BSP/P-NUCLEO-WB55.Nucleo/stm32wbxx_nucleo.c ****   *            @arg LED2
 200:Drivers/BSP/P-NUCLEO-WB55.Nucleo/stm32wbxx_nucleo.c ****   *            @arg LED3
 201:Drivers/BSP/P-NUCLEO-WB55.Nucleo/stm32wbxx_nucleo.c ****   * @retval None
 202:Drivers/BSP/P-NUCLEO-WB55.Nucleo/stm32wbxx_nucleo.c ****   */
 203:Drivers/BSP/P-NUCLEO-WB55.Nucleo/stm32wbxx_nucleo.c **** void BSP_LED_Init(Led_TypeDef Led)
 204:Drivers/BSP/P-NUCLEO-WB55.Nucleo/stm32wbxx_nucleo.c **** {
 171              		.loc 1 204 1
 172              		.cfi_startproc
 173              		@ args = 0, pretend = 0, frame = 32
 174              		@ frame_needed = 1, uses_anonymous_args = 0
 175 0000 80B5     		push	{r7, lr}
 176              	.LCFI10:
 177              		.cfi_def_cfa_offset 8
ARM GAS  C:\Users\alanl\AppData\Local\Temp\ccY2aaIM.s 			page 17


 178              		.cfi_offset 7, -8
 179              		.cfi_offset 14, -4
 180 0002 88B0     		sub	sp, sp, #32
 181              	.LCFI11:
 182              		.cfi_def_cfa_offset 40
 183 0004 00AF     		add	r7, sp, #0
 184              	.LCFI12:
 185              		.cfi_def_cfa_register 7
 186 0006 0346     		mov	r3, r0
 187 0008 FB71     		strb	r3, [r7, #7]
 205:Drivers/BSP/P-NUCLEO-WB55.Nucleo/stm32wbxx_nucleo.c ****   GPIO_InitTypeDef  gpioinitstruct = {0};
 188              		.loc 1 205 21
 189 000a 07F10C03 		add	r3, r7, #12
 190 000e 0022     		movs	r2, #0
 191 0010 1A60     		str	r2, [r3]
 192 0012 5A60     		str	r2, [r3, #4]
 193 0014 9A60     		str	r2, [r3, #8]
 194 0016 DA60     		str	r2, [r3, #12]
 195 0018 1A61     		str	r2, [r3, #16]
 206:Drivers/BSP/P-NUCLEO-WB55.Nucleo/stm32wbxx_nucleo.c ****   
 207:Drivers/BSP/P-NUCLEO-WB55.Nucleo/stm32wbxx_nucleo.c ****   /* Enable the GPIO_LED Clock */
 208:Drivers/BSP/P-NUCLEO-WB55.Nucleo/stm32wbxx_nucleo.c ****   LEDx_GPIO_CLK_ENABLE(Led);
 196              		.loc 1 208 3
 197 001a 0220     		movs	r0, #2
 198 001c FFF7FEFF 		bl	LL_AHB2_GRP1_EnableClock
 209:Drivers/BSP/P-NUCLEO-WB55.Nucleo/stm32wbxx_nucleo.c **** 
 210:Drivers/BSP/P-NUCLEO-WB55.Nucleo/stm32wbxx_nucleo.c ****   /* Configure the GPIO_LED pin */
 211:Drivers/BSP/P-NUCLEO-WB55.Nucleo/stm32wbxx_nucleo.c ****   gpioinitstruct.Pin = GPIO_PIN[Led];
 199              		.loc 1 211 32
 200 0020 FB79     		ldrb	r3, [r7, #7]	@ zero_extendqisi2
 201 0022 124A     		ldr	r2, .L7
 202 0024 32F81330 		ldrh	r3, [r2, r3, lsl #1]
 203              		.loc 1 211 22
 204 0028 FB60     		str	r3, [r7, #12]
 212:Drivers/BSP/P-NUCLEO-WB55.Nucleo/stm32wbxx_nucleo.c ****   gpioinitstruct.Mode = GPIO_MODE_OUTPUT_PP;
 205              		.loc 1 212 23
 206 002a 0123     		movs	r3, #1
 207 002c 3B61     		str	r3, [r7, #16]
 213:Drivers/BSP/P-NUCLEO-WB55.Nucleo/stm32wbxx_nucleo.c ****   gpioinitstruct.Pull = GPIO_NOPULL;
 208              		.loc 1 213 23
 209 002e 0023     		movs	r3, #0
 210 0030 7B61     		str	r3, [r7, #20]
 214:Drivers/BSP/P-NUCLEO-WB55.Nucleo/stm32wbxx_nucleo.c ****   gpioinitstruct.Speed = GPIO_SPEED_FREQ_HIGH;
 211              		.loc 1 214 24
 212 0032 0223     		movs	r3, #2
 213 0034 BB61     		str	r3, [r7, #24]
 215:Drivers/BSP/P-NUCLEO-WB55.Nucleo/stm32wbxx_nucleo.c ****   
 216:Drivers/BSP/P-NUCLEO-WB55.Nucleo/stm32wbxx_nucleo.c ****   HAL_GPIO_Init(GPIO_PORT[Led], &gpioinitstruct);
 214              		.loc 1 216 3
 215 0036 FB79     		ldrb	r3, [r7, #7]	@ zero_extendqisi2
 216 0038 0D4A     		ldr	r2, .L7+4
 217 003a 52F82330 		ldr	r3, [r2, r3, lsl #2]
 218 003e 07F10C02 		add	r2, r7, #12
 219 0042 1146     		mov	r1, r2
 220 0044 1846     		mov	r0, r3
 221 0046 FFF7FEFF 		bl	HAL_GPIO_Init
 217:Drivers/BSP/P-NUCLEO-WB55.Nucleo/stm32wbxx_nucleo.c ****   
ARM GAS  C:\Users\alanl\AppData\Local\Temp\ccY2aaIM.s 			page 18


 218:Drivers/BSP/P-NUCLEO-WB55.Nucleo/stm32wbxx_nucleo.c ****   HAL_GPIO_WritePin(GPIO_PORT[Led], GPIO_PIN[Led], GPIO_PIN_RESET);
 222              		.loc 1 218 3
 223 004a FB79     		ldrb	r3, [r7, #7]	@ zero_extendqisi2
 224 004c 084A     		ldr	r2, .L7+4
 225 004e 52F82300 		ldr	r0, [r2, r3, lsl #2]
 226 0052 FB79     		ldrb	r3, [r7, #7]	@ zero_extendqisi2
 227              		.loc 1 218 45
 228 0054 054A     		ldr	r2, .L7
 229 0056 32F81330 		ldrh	r3, [r2, r3, lsl #1]
 230              		.loc 1 218 3
 231 005a 0022     		movs	r2, #0
 232 005c 1946     		mov	r1, r3
 233 005e FFF7FEFF 		bl	HAL_GPIO_WritePin
 219:Drivers/BSP/P-NUCLEO-WB55.Nucleo/stm32wbxx_nucleo.c **** }
 234              		.loc 1 219 1
 235 0062 00BF     		nop
 236 0064 2037     		adds	r7, r7, #32
 237              	.LCFI13:
 238              		.cfi_def_cfa_offset 8
 239 0066 BD46     		mov	sp, r7
 240              	.LCFI14:
 241              		.cfi_def_cfa_register 13
 242              		@ sp needed
 243 0068 80BD     		pop	{r7, pc}
 244              	.L8:
 245 006a 00BF     		.align	2
 246              	.L7:
 247 006c 00000000 		.word	GPIO_PIN
 248 0070 00000000 		.word	GPIO_PORT
 249              		.cfi_endproc
 250              	.LFE951:
 252              		.section	.text.BSP_LED_DeInit,"ax",%progbits
 253              		.align	1
 254              		.global	BSP_LED_DeInit
 255              		.syntax unified
 256              		.thumb
 257              		.thumb_func
 259              	BSP_LED_DeInit:
 260              	.LFB952:
 220:Drivers/BSP/P-NUCLEO-WB55.Nucleo/stm32wbxx_nucleo.c **** 
 221:Drivers/BSP/P-NUCLEO-WB55.Nucleo/stm32wbxx_nucleo.c **** /**
 222:Drivers/BSP/P-NUCLEO-WB55.Nucleo/stm32wbxx_nucleo.c ****   * @brief  DeInit LEDs.
 223:Drivers/BSP/P-NUCLEO-WB55.Nucleo/stm32wbxx_nucleo.c ****   * @param  Led: LED to be de-init. 
 224:Drivers/BSP/P-NUCLEO-WB55.Nucleo/stm32wbxx_nucleo.c ****   *   This parameter can be one of the following values:
 225:Drivers/BSP/P-NUCLEO-WB55.Nucleo/stm32wbxx_nucleo.c ****   *     @arg  LED1
 226:Drivers/BSP/P-NUCLEO-WB55.Nucleo/stm32wbxx_nucleo.c ****   *     @arg  LED2
 227:Drivers/BSP/P-NUCLEO-WB55.Nucleo/stm32wbxx_nucleo.c ****   *     @arg  LED3
 228:Drivers/BSP/P-NUCLEO-WB55.Nucleo/stm32wbxx_nucleo.c ****   * @note Led DeInit does not disable the GPIO clock nor disable the Mfx 
 229:Drivers/BSP/P-NUCLEO-WB55.Nucleo/stm32wbxx_nucleo.c ****   * @retval None
 230:Drivers/BSP/P-NUCLEO-WB55.Nucleo/stm32wbxx_nucleo.c ****   */
 231:Drivers/BSP/P-NUCLEO-WB55.Nucleo/stm32wbxx_nucleo.c **** void BSP_LED_DeInit(Led_TypeDef Led)
 232:Drivers/BSP/P-NUCLEO-WB55.Nucleo/stm32wbxx_nucleo.c **** {
 261              		.loc 1 232 1
 262              		.cfi_startproc
 263              		@ args = 0, pretend = 0, frame = 32
 264              		@ frame_needed = 1, uses_anonymous_args = 0
 265 0000 80B5     		push	{r7, lr}
ARM GAS  C:\Users\alanl\AppData\Local\Temp\ccY2aaIM.s 			page 19


 266              	.LCFI15:
 267              		.cfi_def_cfa_offset 8
 268              		.cfi_offset 7, -8
 269              		.cfi_offset 14, -4
 270 0002 88B0     		sub	sp, sp, #32
 271              	.LCFI16:
 272              		.cfi_def_cfa_offset 40
 273 0004 00AF     		add	r7, sp, #0
 274              	.LCFI17:
 275              		.cfi_def_cfa_register 7
 276 0006 0346     		mov	r3, r0
 277 0008 FB71     		strb	r3, [r7, #7]
 233:Drivers/BSP/P-NUCLEO-WB55.Nucleo/stm32wbxx_nucleo.c ****   GPIO_InitTypeDef  gpio_init_structure;
 234:Drivers/BSP/P-NUCLEO-WB55.Nucleo/stm32wbxx_nucleo.c **** 
 235:Drivers/BSP/P-NUCLEO-WB55.Nucleo/stm32wbxx_nucleo.c ****   /* Turn off LED */
 236:Drivers/BSP/P-NUCLEO-WB55.Nucleo/stm32wbxx_nucleo.c ****   HAL_GPIO_WritePin(GPIO_PORT[Led], GPIO_PIN[Led], GPIO_PIN_RESET);
 278              		.loc 1 236 3
 279 000a FB79     		ldrb	r3, [r7, #7]	@ zero_extendqisi2
 280 000c 0E4A     		ldr	r2, .L10
 281 000e 52F82300 		ldr	r0, [r2, r3, lsl #2]
 282 0012 FB79     		ldrb	r3, [r7, #7]	@ zero_extendqisi2
 283              		.loc 1 236 45
 284 0014 0D4A     		ldr	r2, .L10+4
 285 0016 32F81330 		ldrh	r3, [r2, r3, lsl #1]
 286              		.loc 1 236 3
 287 001a 0022     		movs	r2, #0
 288 001c 1946     		mov	r1, r3
 289 001e FFF7FEFF 		bl	HAL_GPIO_WritePin
 237:Drivers/BSP/P-NUCLEO-WB55.Nucleo/stm32wbxx_nucleo.c ****   /* DeInit the GPIO_LED pin */
 238:Drivers/BSP/P-NUCLEO-WB55.Nucleo/stm32wbxx_nucleo.c ****   gpio_init_structure.Pin = GPIO_PIN[Led];
 290              		.loc 1 238 37
 291 0022 FB79     		ldrb	r3, [r7, #7]	@ zero_extendqisi2
 292 0024 094A     		ldr	r2, .L10+4
 293 0026 32F81330 		ldrh	r3, [r2, r3, lsl #1]
 294              		.loc 1 238 27
 295 002a FB60     		str	r3, [r7, #12]
 239:Drivers/BSP/P-NUCLEO-WB55.Nucleo/stm32wbxx_nucleo.c ****   HAL_GPIO_DeInit(GPIO_PORT[Led], gpio_init_structure.Pin);
 296              		.loc 1 239 3
 297 002c FB79     		ldrb	r3, [r7, #7]	@ zero_extendqisi2
 298 002e 064A     		ldr	r2, .L10
 299 0030 52F82330 		ldr	r3, [r2, r3, lsl #2]
 300 0034 FA68     		ldr	r2, [r7, #12]
 301 0036 1146     		mov	r1, r2
 302 0038 1846     		mov	r0, r3
 303 003a FFF7FEFF 		bl	HAL_GPIO_DeInit
 240:Drivers/BSP/P-NUCLEO-WB55.Nucleo/stm32wbxx_nucleo.c **** }
 304              		.loc 1 240 1
 305 003e 00BF     		nop
 306 0040 2037     		adds	r7, r7, #32
 307              	.LCFI18:
 308              		.cfi_def_cfa_offset 8
 309 0042 BD46     		mov	sp, r7
 310              	.LCFI19:
 311              		.cfi_def_cfa_register 13
 312              		@ sp needed
 313 0044 80BD     		pop	{r7, pc}
 314              	.L11:
ARM GAS  C:\Users\alanl\AppData\Local\Temp\ccY2aaIM.s 			page 20


 315 0046 00BF     		.align	2
 316              	.L10:
 317 0048 00000000 		.word	GPIO_PORT
 318 004c 00000000 		.word	GPIO_PIN
 319              		.cfi_endproc
 320              	.LFE952:
 322              		.section	.text.BSP_LED_On,"ax",%progbits
 323              		.align	1
 324              		.global	BSP_LED_On
 325              		.syntax unified
 326              		.thumb
 327              		.thumb_func
 329              	BSP_LED_On:
 330              	.LFB953:
 241:Drivers/BSP/P-NUCLEO-WB55.Nucleo/stm32wbxx_nucleo.c **** 
 242:Drivers/BSP/P-NUCLEO-WB55.Nucleo/stm32wbxx_nucleo.c **** /**
 243:Drivers/BSP/P-NUCLEO-WB55.Nucleo/stm32wbxx_nucleo.c ****   * @brief  Turns selected LED On.
 244:Drivers/BSP/P-NUCLEO-WB55.Nucleo/stm32wbxx_nucleo.c ****   * @param  Led: Specifies the Led to be set on. 
 245:Drivers/BSP/P-NUCLEO-WB55.Nucleo/stm32wbxx_nucleo.c ****   *   This parameter can be one of following parameters:
 246:Drivers/BSP/P-NUCLEO-WB55.Nucleo/stm32wbxx_nucleo.c ****   *     @arg LED1
 247:Drivers/BSP/P-NUCLEO-WB55.Nucleo/stm32wbxx_nucleo.c ****   *     @arg LED2
 248:Drivers/BSP/P-NUCLEO-WB55.Nucleo/stm32wbxx_nucleo.c ****   *     @arg LED3
 249:Drivers/BSP/P-NUCLEO-WB55.Nucleo/stm32wbxx_nucleo.c ****   * @retval None
 250:Drivers/BSP/P-NUCLEO-WB55.Nucleo/stm32wbxx_nucleo.c ****   */
 251:Drivers/BSP/P-NUCLEO-WB55.Nucleo/stm32wbxx_nucleo.c **** void BSP_LED_On(Led_TypeDef Led)
 252:Drivers/BSP/P-NUCLEO-WB55.Nucleo/stm32wbxx_nucleo.c **** {
 331              		.loc 1 252 1
 332              		.cfi_startproc
 333              		@ args = 0, pretend = 0, frame = 8
 334              		@ frame_needed = 1, uses_anonymous_args = 0
 335 0000 80B5     		push	{r7, lr}
 336              	.LCFI20:
 337              		.cfi_def_cfa_offset 8
 338              		.cfi_offset 7, -8
 339              		.cfi_offset 14, -4
 340 0002 82B0     		sub	sp, sp, #8
 341              	.LCFI21:
 342              		.cfi_def_cfa_offset 16
 343 0004 00AF     		add	r7, sp, #0
 344              	.LCFI22:
 345              		.cfi_def_cfa_register 7
 346 0006 0346     		mov	r3, r0
 347 0008 FB71     		strb	r3, [r7, #7]
 253:Drivers/BSP/P-NUCLEO-WB55.Nucleo/stm32wbxx_nucleo.c ****   HAL_GPIO_WritePin(GPIO_PORT[Led], GPIO_PIN[Led], GPIO_PIN_SET); 
 348              		.loc 1 253 3
 349 000a FB79     		ldrb	r3, [r7, #7]	@ zero_extendqisi2
 350 000c 074A     		ldr	r2, .L13
 351 000e 52F82300 		ldr	r0, [r2, r3, lsl #2]
 352 0012 FB79     		ldrb	r3, [r7, #7]	@ zero_extendqisi2
 353              		.loc 1 253 45
 354 0014 064A     		ldr	r2, .L13+4
 355 0016 32F81330 		ldrh	r3, [r2, r3, lsl #1]
 356              		.loc 1 253 3
 357 001a 0122     		movs	r2, #1
 358 001c 1946     		mov	r1, r3
 359 001e FFF7FEFF 		bl	HAL_GPIO_WritePin
 254:Drivers/BSP/P-NUCLEO-WB55.Nucleo/stm32wbxx_nucleo.c **** }
ARM GAS  C:\Users\alanl\AppData\Local\Temp\ccY2aaIM.s 			page 21


 360              		.loc 1 254 1
 361 0022 00BF     		nop
 362 0024 0837     		adds	r7, r7, #8
 363              	.LCFI23:
 364              		.cfi_def_cfa_offset 8
 365 0026 BD46     		mov	sp, r7
 366              	.LCFI24:
 367              		.cfi_def_cfa_register 13
 368              		@ sp needed
 369 0028 80BD     		pop	{r7, pc}
 370              	.L14:
 371 002a 00BF     		.align	2
 372              	.L13:
 373 002c 00000000 		.word	GPIO_PORT
 374 0030 00000000 		.word	GPIO_PIN
 375              		.cfi_endproc
 376              	.LFE953:
 378              		.section	.text.BSP_LED_Off,"ax",%progbits
 379              		.align	1
 380              		.global	BSP_LED_Off
 381              		.syntax unified
 382              		.thumb
 383              		.thumb_func
 385              	BSP_LED_Off:
 386              	.LFB954:
 255:Drivers/BSP/P-NUCLEO-WB55.Nucleo/stm32wbxx_nucleo.c **** 
 256:Drivers/BSP/P-NUCLEO-WB55.Nucleo/stm32wbxx_nucleo.c **** /**
 257:Drivers/BSP/P-NUCLEO-WB55.Nucleo/stm32wbxx_nucleo.c ****   * @brief  Turns selected LED Off.
 258:Drivers/BSP/P-NUCLEO-WB55.Nucleo/stm32wbxx_nucleo.c ****   * @param  Led: Specifies the Led to be set off. 
 259:Drivers/BSP/P-NUCLEO-WB55.Nucleo/stm32wbxx_nucleo.c ****   *   This parameter can be one of following parameters:
 260:Drivers/BSP/P-NUCLEO-WB55.Nucleo/stm32wbxx_nucleo.c ****   *     @arg LED1
 261:Drivers/BSP/P-NUCLEO-WB55.Nucleo/stm32wbxx_nucleo.c ****   *     @arg LED2
 262:Drivers/BSP/P-NUCLEO-WB55.Nucleo/stm32wbxx_nucleo.c ****   *     @arg LED3
 263:Drivers/BSP/P-NUCLEO-WB55.Nucleo/stm32wbxx_nucleo.c ****   * @retval None
 264:Drivers/BSP/P-NUCLEO-WB55.Nucleo/stm32wbxx_nucleo.c ****   */
 265:Drivers/BSP/P-NUCLEO-WB55.Nucleo/stm32wbxx_nucleo.c **** void BSP_LED_Off(Led_TypeDef Led)
 266:Drivers/BSP/P-NUCLEO-WB55.Nucleo/stm32wbxx_nucleo.c **** {
 387              		.loc 1 266 1
 388              		.cfi_startproc
 389              		@ args = 0, pretend = 0, frame = 8
 390              		@ frame_needed = 1, uses_anonymous_args = 0
 391 0000 80B5     		push	{r7, lr}
 392              	.LCFI25:
 393              		.cfi_def_cfa_offset 8
 394              		.cfi_offset 7, -8
 395              		.cfi_offset 14, -4
 396 0002 82B0     		sub	sp, sp, #8
 397              	.LCFI26:
 398              		.cfi_def_cfa_offset 16
 399 0004 00AF     		add	r7, sp, #0
 400              	.LCFI27:
 401              		.cfi_def_cfa_register 7
 402 0006 0346     		mov	r3, r0
 403 0008 FB71     		strb	r3, [r7, #7]
 267:Drivers/BSP/P-NUCLEO-WB55.Nucleo/stm32wbxx_nucleo.c ****   HAL_GPIO_WritePin(GPIO_PORT[Led], GPIO_PIN[Led], GPIO_PIN_RESET); 
 404              		.loc 1 267 3
 405 000a FB79     		ldrb	r3, [r7, #7]	@ zero_extendqisi2
ARM GAS  C:\Users\alanl\AppData\Local\Temp\ccY2aaIM.s 			page 22


 406 000c 074A     		ldr	r2, .L16
 407 000e 52F82300 		ldr	r0, [r2, r3, lsl #2]
 408 0012 FB79     		ldrb	r3, [r7, #7]	@ zero_extendqisi2
 409              		.loc 1 267 45
 410 0014 064A     		ldr	r2, .L16+4
 411 0016 32F81330 		ldrh	r3, [r2, r3, lsl #1]
 412              		.loc 1 267 3
 413 001a 0022     		movs	r2, #0
 414 001c 1946     		mov	r1, r3
 415 001e FFF7FEFF 		bl	HAL_GPIO_WritePin
 268:Drivers/BSP/P-NUCLEO-WB55.Nucleo/stm32wbxx_nucleo.c **** }
 416              		.loc 1 268 1
 417 0022 00BF     		nop
 418 0024 0837     		adds	r7, r7, #8
 419              	.LCFI28:
 420              		.cfi_def_cfa_offset 8
 421 0026 BD46     		mov	sp, r7
 422              	.LCFI29:
 423              		.cfi_def_cfa_register 13
 424              		@ sp needed
 425 0028 80BD     		pop	{r7, pc}
 426              	.L17:
 427 002a 00BF     		.align	2
 428              	.L16:
 429 002c 00000000 		.word	GPIO_PORT
 430 0030 00000000 		.word	GPIO_PIN
 431              		.cfi_endproc
 432              	.LFE954:
 434              		.section	.text.BSP_LED_Toggle,"ax",%progbits
 435              		.align	1
 436              		.global	BSP_LED_Toggle
 437              		.syntax unified
 438              		.thumb
 439              		.thumb_func
 441              	BSP_LED_Toggle:
 442              	.LFB955:
 269:Drivers/BSP/P-NUCLEO-WB55.Nucleo/stm32wbxx_nucleo.c **** 
 270:Drivers/BSP/P-NUCLEO-WB55.Nucleo/stm32wbxx_nucleo.c **** /**
 271:Drivers/BSP/P-NUCLEO-WB55.Nucleo/stm32wbxx_nucleo.c ****   * @brief  Toggles the selected LED.
 272:Drivers/BSP/P-NUCLEO-WB55.Nucleo/stm32wbxx_nucleo.c ****   * @param  Led: Specifies the Led to be toggled. 
 273:Drivers/BSP/P-NUCLEO-WB55.Nucleo/stm32wbxx_nucleo.c ****   *   This parameter can be one of following parameters:
 274:Drivers/BSP/P-NUCLEO-WB55.Nucleo/stm32wbxx_nucleo.c ****   *     @arg LED1
 275:Drivers/BSP/P-NUCLEO-WB55.Nucleo/stm32wbxx_nucleo.c ****   *     @arg LED2
 276:Drivers/BSP/P-NUCLEO-WB55.Nucleo/stm32wbxx_nucleo.c ****   *     @arg LED3
 277:Drivers/BSP/P-NUCLEO-WB55.Nucleo/stm32wbxx_nucleo.c ****   * @retval None
 278:Drivers/BSP/P-NUCLEO-WB55.Nucleo/stm32wbxx_nucleo.c ****   */
 279:Drivers/BSP/P-NUCLEO-WB55.Nucleo/stm32wbxx_nucleo.c **** void BSP_LED_Toggle(Led_TypeDef Led)
 280:Drivers/BSP/P-NUCLEO-WB55.Nucleo/stm32wbxx_nucleo.c **** {
 443              		.loc 1 280 1
 444              		.cfi_startproc
 445              		@ args = 0, pretend = 0, frame = 8
 446              		@ frame_needed = 1, uses_anonymous_args = 0
 447 0000 80B5     		push	{r7, lr}
 448              	.LCFI30:
 449              		.cfi_def_cfa_offset 8
 450              		.cfi_offset 7, -8
 451              		.cfi_offset 14, -4
ARM GAS  C:\Users\alanl\AppData\Local\Temp\ccY2aaIM.s 			page 23


 452 0002 82B0     		sub	sp, sp, #8
 453              	.LCFI31:
 454              		.cfi_def_cfa_offset 16
 455 0004 00AF     		add	r7, sp, #0
 456              	.LCFI32:
 457              		.cfi_def_cfa_register 7
 458 0006 0346     		mov	r3, r0
 459 0008 FB71     		strb	r3, [r7, #7]
 281:Drivers/BSP/P-NUCLEO-WB55.Nucleo/stm32wbxx_nucleo.c ****   HAL_GPIO_TogglePin(GPIO_PORT[Led], GPIO_PIN[Led]);
 460              		.loc 1 281 3
 461 000a FB79     		ldrb	r3, [r7, #7]	@ zero_extendqisi2
 462 000c 074A     		ldr	r2, .L19
 463 000e 52F82320 		ldr	r2, [r2, r3, lsl #2]
 464 0012 FB79     		ldrb	r3, [r7, #7]	@ zero_extendqisi2
 465              		.loc 1 281 46
 466 0014 0649     		ldr	r1, .L19+4
 467 0016 31F81330 		ldrh	r3, [r1, r3, lsl #1]
 468              		.loc 1 281 3
 469 001a 1946     		mov	r1, r3
 470 001c 1046     		mov	r0, r2
 471 001e FFF7FEFF 		bl	HAL_GPIO_TogglePin
 282:Drivers/BSP/P-NUCLEO-WB55.Nucleo/stm32wbxx_nucleo.c **** }
 472              		.loc 1 282 1
 473 0022 00BF     		nop
 474 0024 0837     		adds	r7, r7, #8
 475              	.LCFI33:
 476              		.cfi_def_cfa_offset 8
 477 0026 BD46     		mov	sp, r7
 478              	.LCFI34:
 479              		.cfi_def_cfa_register 13
 480              		@ sp needed
 481 0028 80BD     		pop	{r7, pc}
 482              	.L20:
 483 002a 00BF     		.align	2
 484              	.L19:
 485 002c 00000000 		.word	GPIO_PORT
 486 0030 00000000 		.word	GPIO_PIN
 487              		.cfi_endproc
 488              	.LFE955:
 490              		.section	.text.BSP_PB_Init,"ax",%progbits
 491              		.align	1
 492              		.global	BSP_PB_Init
 493              		.syntax unified
 494              		.thumb
 495              		.thumb_func
 497              	BSP_PB_Init:
 498              	.LFB956:
 283:Drivers/BSP/P-NUCLEO-WB55.Nucleo/stm32wbxx_nucleo.c **** 
 284:Drivers/BSP/P-NUCLEO-WB55.Nucleo/stm32wbxx_nucleo.c **** /**
 285:Drivers/BSP/P-NUCLEO-WB55.Nucleo/stm32wbxx_nucleo.c ****   * @}
 286:Drivers/BSP/P-NUCLEO-WB55.Nucleo/stm32wbxx_nucleo.c ****   */
 287:Drivers/BSP/P-NUCLEO-WB55.Nucleo/stm32wbxx_nucleo.c **** 
 288:Drivers/BSP/P-NUCLEO-WB55.Nucleo/stm32wbxx_nucleo.c **** /** @defgroup STM32WBXX_NUCLEO_BUTTON_Functions BUTTON Functions
 289:Drivers/BSP/P-NUCLEO-WB55.Nucleo/stm32wbxx_nucleo.c ****   * @{
 290:Drivers/BSP/P-NUCLEO-WB55.Nucleo/stm32wbxx_nucleo.c ****   */
 291:Drivers/BSP/P-NUCLEO-WB55.Nucleo/stm32wbxx_nucleo.c **** 
 292:Drivers/BSP/P-NUCLEO-WB55.Nucleo/stm32wbxx_nucleo.c **** /**
ARM GAS  C:\Users\alanl\AppData\Local\Temp\ccY2aaIM.s 			page 24


 293:Drivers/BSP/P-NUCLEO-WB55.Nucleo/stm32wbxx_nucleo.c ****   * @brief  Configures Button GPIO and EXTI Line.
 294:Drivers/BSP/P-NUCLEO-WB55.Nucleo/stm32wbxx_nucleo.c ****   * @param  Button: Specifies the Button to be configured.
 295:Drivers/BSP/P-NUCLEO-WB55.Nucleo/stm32wbxx_nucleo.c ****   *   This parameter can be one of following parameters:
 296:Drivers/BSP/P-NUCLEO-WB55.Nucleo/stm32wbxx_nucleo.c ****   *     @arg BUTTON_SW1
 297:Drivers/BSP/P-NUCLEO-WB55.Nucleo/stm32wbxx_nucleo.c ****   *     @arg BUTTON_SW2
 298:Drivers/BSP/P-NUCLEO-WB55.Nucleo/stm32wbxx_nucleo.c ****   *     @arg BUTTON_SW3
 299:Drivers/BSP/P-NUCLEO-WB55.Nucleo/stm32wbxx_nucleo.c ****   * @param  ButtonMode: Specifies Button mode.
 300:Drivers/BSP/P-NUCLEO-WB55.Nucleo/stm32wbxx_nucleo.c ****   *   This parameter can be one of following parameters:   
 301:Drivers/BSP/P-NUCLEO-WB55.Nucleo/stm32wbxx_nucleo.c ****   *     @arg BUTTON_MODE_GPIO: Button will be used as simple IO
 302:Drivers/BSP/P-NUCLEO-WB55.Nucleo/stm32wbxx_nucleo.c ****   *     @arg BUTTON_MODE_EXTI: Button will be connected to EXTI line with interrupt
 303:Drivers/BSP/P-NUCLEO-WB55.Nucleo/stm32wbxx_nucleo.c ****   *                            generation capability  
 304:Drivers/BSP/P-NUCLEO-WB55.Nucleo/stm32wbxx_nucleo.c ****   * @retval None
 305:Drivers/BSP/P-NUCLEO-WB55.Nucleo/stm32wbxx_nucleo.c ****   */
 306:Drivers/BSP/P-NUCLEO-WB55.Nucleo/stm32wbxx_nucleo.c **** void BSP_PB_Init(Button_TypeDef Button, ButtonMode_TypeDef ButtonMode)
 307:Drivers/BSP/P-NUCLEO-WB55.Nucleo/stm32wbxx_nucleo.c **** {
 499              		.loc 1 307 1
 500              		.cfi_startproc
 501              		@ args = 0, pretend = 0, frame = 32
 502              		@ frame_needed = 1, uses_anonymous_args = 0
 503 0000 80B5     		push	{r7, lr}
 504              	.LCFI35:
 505              		.cfi_def_cfa_offset 8
 506              		.cfi_offset 7, -8
 507              		.cfi_offset 14, -4
 508 0002 88B0     		sub	sp, sp, #32
 509              	.LCFI36:
 510              		.cfi_def_cfa_offset 40
 511 0004 00AF     		add	r7, sp, #0
 512              	.LCFI37:
 513              		.cfi_def_cfa_register 7
 514 0006 0346     		mov	r3, r0
 515 0008 0A46     		mov	r2, r1
 516 000a FB71     		strb	r3, [r7, #7]
 517 000c 1346     		mov	r3, r2
 518 000e BB71     		strb	r3, [r7, #6]
 308:Drivers/BSP/P-NUCLEO-WB55.Nucleo/stm32wbxx_nucleo.c ****   GPIO_InitTypeDef gpioinitstruct = {0};
 519              		.loc 1 308 20
 520 0010 07F10C03 		add	r3, r7, #12
 521 0014 0022     		movs	r2, #0
 522 0016 1A60     		str	r2, [r3]
 523 0018 5A60     		str	r2, [r3, #4]
 524 001a 9A60     		str	r2, [r3, #8]
 525 001c DA60     		str	r2, [r3, #12]
 526 001e 1A61     		str	r2, [r3, #16]
 309:Drivers/BSP/P-NUCLEO-WB55.Nucleo/stm32wbxx_nucleo.c ****   
 310:Drivers/BSP/P-NUCLEO-WB55.Nucleo/stm32wbxx_nucleo.c ****   /* Enable the BUTTON Clock */
 311:Drivers/BSP/P-NUCLEO-WB55.Nucleo/stm32wbxx_nucleo.c ****   BUTTONx_GPIO_CLK_ENABLE(Button);
 527              		.loc 1 311 3
 528 0020 FB79     		ldrb	r3, [r7, #7]	@ zero_extendqisi2
 529 0022 002B     		cmp	r3, #0
 530 0024 03D1     		bne	.L22
 531              		.loc 1 311 3 is_stmt 0 discriminator 1
 532 0026 0420     		movs	r0, #4
 533 0028 FFF7FEFF 		bl	LL_AHB2_GRP1_EnableClock
 534 002c 0CE0     		b	.L23
 535              	.L22:
 536              		.loc 1 311 3 discriminator 2
ARM GAS  C:\Users\alanl\AppData\Local\Temp\ccY2aaIM.s 			page 25


 537 002e FB79     		ldrb	r3, [r7, #7]	@ zero_extendqisi2
 538 0030 012B     		cmp	r3, #1
 539 0032 03D1     		bne	.L24
 540              		.loc 1 311 3 discriminator 3
 541 0034 0820     		movs	r0, #8
 542 0036 FFF7FEFF 		bl	LL_AHB2_GRP1_EnableClock
 543 003a 05E0     		b	.L23
 544              	.L24:
 545              		.loc 1 311 3 discriminator 4
 546 003c FB79     		ldrb	r3, [r7, #7]	@ zero_extendqisi2
 547 003e 022B     		cmp	r3, #2
 548 0040 02D1     		bne	.L23
 549              		.loc 1 311 3 discriminator 5
 550 0042 0820     		movs	r0, #8
 551 0044 FFF7FEFF 		bl	LL_AHB2_GRP1_EnableClock
 552              	.L23:
 312:Drivers/BSP/P-NUCLEO-WB55.Nucleo/stm32wbxx_nucleo.c ****   
 313:Drivers/BSP/P-NUCLEO-WB55.Nucleo/stm32wbxx_nucleo.c ****   if(ButtonMode == BUTTON_MODE_GPIO)
 553              		.loc 1 313 5 is_stmt 1
 554 0048 BB79     		ldrb	r3, [r7, #6]	@ zero_extendqisi2
 555 004a 002B     		cmp	r3, #0
 556 004c 17D1     		bne	.L25
 314:Drivers/BSP/P-NUCLEO-WB55.Nucleo/stm32wbxx_nucleo.c ****   {
 315:Drivers/BSP/P-NUCLEO-WB55.Nucleo/stm32wbxx_nucleo.c ****     /* Configure Button pin as input */
 316:Drivers/BSP/P-NUCLEO-WB55.Nucleo/stm32wbxx_nucleo.c ****     gpioinitstruct.Pin = BUTTON_PIN[Button];
 557              		.loc 1 316 36
 558 004e FB79     		ldrb	r3, [r7, #7]	@ zero_extendqisi2
 559 0050 204A     		ldr	r2, .L28
 560 0052 32F81330 		ldrh	r3, [r2, r3, lsl #1]
 561              		.loc 1 316 24
 562 0056 FB60     		str	r3, [r7, #12]
 317:Drivers/BSP/P-NUCLEO-WB55.Nucleo/stm32wbxx_nucleo.c ****     gpioinitstruct.Mode = GPIO_MODE_INPUT;
 563              		.loc 1 317 25
 564 0058 0023     		movs	r3, #0
 565 005a 3B61     		str	r3, [r7, #16]
 318:Drivers/BSP/P-NUCLEO-WB55.Nucleo/stm32wbxx_nucleo.c ****     gpioinitstruct.Pull = GPIO_PULLUP;
 566              		.loc 1 318 25
 567 005c 0123     		movs	r3, #1
 568 005e 7B61     		str	r3, [r7, #20]
 319:Drivers/BSP/P-NUCLEO-WB55.Nucleo/stm32wbxx_nucleo.c ****     gpioinitstruct.Speed = GPIO_SPEED_FREQ_HIGH;
 569              		.loc 1 319 26
 570 0060 0223     		movs	r3, #2
 571 0062 BB61     		str	r3, [r7, #24]
 320:Drivers/BSP/P-NUCLEO-WB55.Nucleo/stm32wbxx_nucleo.c ****     HAL_GPIO_Init(BUTTON_PORT[Button], &gpioinitstruct);
 572              		.loc 1 320 5
 573 0064 FB79     		ldrb	r3, [r7, #7]	@ zero_extendqisi2
 574 0066 1C4A     		ldr	r2, .L28+4
 575 0068 52F82330 		ldr	r3, [r2, r3, lsl #2]
 576 006c 07F10C02 		add	r2, r7, #12
 577 0070 1146     		mov	r1, r2
 578 0072 1846     		mov	r0, r3
 579 0074 FFF7FEFF 		bl	HAL_GPIO_Init
 321:Drivers/BSP/P-NUCLEO-WB55.Nucleo/stm32wbxx_nucleo.c ****     
 322:Drivers/BSP/P-NUCLEO-WB55.Nucleo/stm32wbxx_nucleo.c ****     /* Wait Button pin startup stability */
 323:Drivers/BSP/P-NUCLEO-WB55.Nucleo/stm32wbxx_nucleo.c ****     HAL_Delay(1);
 580              		.loc 1 323 5
 581 0078 0120     		movs	r0, #1
ARM GAS  C:\Users\alanl\AppData\Local\Temp\ccY2aaIM.s 			page 26


 582 007a FFF7FEFF 		bl	HAL_Delay
 583              	.L25:
 324:Drivers/BSP/P-NUCLEO-WB55.Nucleo/stm32wbxx_nucleo.c ****   }
 325:Drivers/BSP/P-NUCLEO-WB55.Nucleo/stm32wbxx_nucleo.c ****   
 326:Drivers/BSP/P-NUCLEO-WB55.Nucleo/stm32wbxx_nucleo.c ****   if(ButtonMode == BUTTON_MODE_EXTI)
 584              		.loc 1 326 5
 585 007e BB79     		ldrb	r3, [r7, #6]	@ zero_extendqisi2
 586 0080 012B     		cmp	r3, #1
 587 0082 23D1     		bne	.L27
 327:Drivers/BSP/P-NUCLEO-WB55.Nucleo/stm32wbxx_nucleo.c ****   {
 328:Drivers/BSP/P-NUCLEO-WB55.Nucleo/stm32wbxx_nucleo.c ****     /* Configure Button pin as input with External interrupt */
 329:Drivers/BSP/P-NUCLEO-WB55.Nucleo/stm32wbxx_nucleo.c ****     gpioinitstruct.Pin = BUTTON_PIN[Button];
 588              		.loc 1 329 36
 589 0084 FB79     		ldrb	r3, [r7, #7]	@ zero_extendqisi2
 590 0086 134A     		ldr	r2, .L28
 591 0088 32F81330 		ldrh	r3, [r2, r3, lsl #1]
 592              		.loc 1 329 24
 593 008c FB60     		str	r3, [r7, #12]
 330:Drivers/BSP/P-NUCLEO-WB55.Nucleo/stm32wbxx_nucleo.c ****     gpioinitstruct.Pull = GPIO_PULLUP;
 594              		.loc 1 330 25
 595 008e 0123     		movs	r3, #1
 596 0090 7B61     		str	r3, [r7, #20]
 331:Drivers/BSP/P-NUCLEO-WB55.Nucleo/stm32wbxx_nucleo.c ****     gpioinitstruct.Mode = GPIO_MODE_IT_FALLING; 
 597              		.loc 1 331 25
 598 0092 4FF40413 		mov	r3, #2162688
 599 0096 3B61     		str	r3, [r7, #16]
 332:Drivers/BSP/P-NUCLEO-WB55.Nucleo/stm32wbxx_nucleo.c ****     HAL_GPIO_Init(BUTTON_PORT[Button], &gpioinitstruct);
 600              		.loc 1 332 5
 601 0098 FB79     		ldrb	r3, [r7, #7]	@ zero_extendqisi2
 602 009a 0F4A     		ldr	r2, .L28+4
 603 009c 52F82330 		ldr	r3, [r2, r3, lsl #2]
 604 00a0 07F10C02 		add	r2, r7, #12
 605 00a4 1146     		mov	r1, r2
 606 00a6 1846     		mov	r0, r3
 607 00a8 FFF7FEFF 		bl	HAL_GPIO_Init
 333:Drivers/BSP/P-NUCLEO-WB55.Nucleo/stm32wbxx_nucleo.c ****     
 334:Drivers/BSP/P-NUCLEO-WB55.Nucleo/stm32wbxx_nucleo.c ****     /* Enable and set Button EXTI Interrupt to the lowest priority */
 335:Drivers/BSP/P-NUCLEO-WB55.Nucleo/stm32wbxx_nucleo.c ****     HAL_NVIC_SetPriority((IRQn_Type)(BUTTON_IRQn[Button]), 0x0F, 0x00);
 608              		.loc 1 335 49
 609 00ac FB79     		ldrb	r3, [r7, #7]	@ zero_extendqisi2
 610 00ae 0B4A     		ldr	r2, .L28+8
 611 00b0 D35C     		ldrb	r3, [r2, r3]	@ zero_extendqisi2
 612              		.loc 1 335 5
 613 00b2 5BB2     		sxtb	r3, r3
 614 00b4 0022     		movs	r2, #0
 615 00b6 0F21     		movs	r1, #15
 616 00b8 1846     		mov	r0, r3
 617 00ba FFF7FEFF 		bl	HAL_NVIC_SetPriority
 336:Drivers/BSP/P-NUCLEO-WB55.Nucleo/stm32wbxx_nucleo.c ****     HAL_NVIC_EnableIRQ((IRQn_Type)(BUTTON_IRQn[Button]));
 618              		.loc 1 336 47
 619 00be FB79     		ldrb	r3, [r7, #7]	@ zero_extendqisi2
 620 00c0 064A     		ldr	r2, .L28+8
 621 00c2 D35C     		ldrb	r3, [r2, r3]	@ zero_extendqisi2
 622              		.loc 1 336 5
 623 00c4 5BB2     		sxtb	r3, r3
 624 00c6 1846     		mov	r0, r3
 625 00c8 FFF7FEFF 		bl	HAL_NVIC_EnableIRQ
ARM GAS  C:\Users\alanl\AppData\Local\Temp\ccY2aaIM.s 			page 27


 626              	.L27:
 337:Drivers/BSP/P-NUCLEO-WB55.Nucleo/stm32wbxx_nucleo.c ****   }
 338:Drivers/BSP/P-NUCLEO-WB55.Nucleo/stm32wbxx_nucleo.c **** }
 627              		.loc 1 338 1
 628 00cc 00BF     		nop
 629 00ce 2037     		adds	r7, r7, #32
 630              	.LCFI38:
 631              		.cfi_def_cfa_offset 8
 632 00d0 BD46     		mov	sp, r7
 633              	.LCFI39:
 634              		.cfi_def_cfa_register 13
 635              		@ sp needed
 636 00d2 80BD     		pop	{r7, pc}
 637              	.L29:
 638              		.align	2
 639              	.L28:
 640 00d4 00000000 		.word	BUTTON_PIN
 641 00d8 00000000 		.word	BUTTON_PORT
 642 00dc 00000000 		.word	BUTTON_IRQn
 643              		.cfi_endproc
 644              	.LFE956:
 646              		.section	.text.BSP_PB_DeInit,"ax",%progbits
 647              		.align	1
 648              		.global	BSP_PB_DeInit
 649              		.syntax unified
 650              		.thumb
 651              		.thumb_func
 653              	BSP_PB_DeInit:
 654              	.LFB957:
 339:Drivers/BSP/P-NUCLEO-WB55.Nucleo/stm32wbxx_nucleo.c **** 
 340:Drivers/BSP/P-NUCLEO-WB55.Nucleo/stm32wbxx_nucleo.c **** /**
 341:Drivers/BSP/P-NUCLEO-WB55.Nucleo/stm32wbxx_nucleo.c ****   * @brief  Push Button DeInit.
 342:Drivers/BSP/P-NUCLEO-WB55.Nucleo/stm32wbxx_nucleo.c ****   * @param  Button: Button to be configured
 343:Drivers/BSP/P-NUCLEO-WB55.Nucleo/stm32wbxx_nucleo.c ****   *   This parameter can be one of following parameters:
 344:Drivers/BSP/P-NUCLEO-WB55.Nucleo/stm32wbxx_nucleo.c ****   *     @arg BUTTON_SW1
 345:Drivers/BSP/P-NUCLEO-WB55.Nucleo/stm32wbxx_nucleo.c ****   *     @arg BUTTON_SW2
 346:Drivers/BSP/P-NUCLEO-WB55.Nucleo/stm32wbxx_nucleo.c ****   *     @arg BUTTON_SW3
 347:Drivers/BSP/P-NUCLEO-WB55.Nucleo/stm32wbxx_nucleo.c ****   * @note PB DeInit does not disable the GPIO clock
 348:Drivers/BSP/P-NUCLEO-WB55.Nucleo/stm32wbxx_nucleo.c ****   * @retval None
 349:Drivers/BSP/P-NUCLEO-WB55.Nucleo/stm32wbxx_nucleo.c ****   */
 350:Drivers/BSP/P-NUCLEO-WB55.Nucleo/stm32wbxx_nucleo.c **** void BSP_PB_DeInit(Button_TypeDef Button)
 351:Drivers/BSP/P-NUCLEO-WB55.Nucleo/stm32wbxx_nucleo.c **** {
 655              		.loc 1 351 1
 656              		.cfi_startproc
 657              		@ args = 0, pretend = 0, frame = 32
 658              		@ frame_needed = 1, uses_anonymous_args = 0
 659 0000 80B5     		push	{r7, lr}
 660              	.LCFI40:
 661              		.cfi_def_cfa_offset 8
 662              		.cfi_offset 7, -8
 663              		.cfi_offset 14, -4
 664 0002 88B0     		sub	sp, sp, #32
 665              	.LCFI41:
 666              		.cfi_def_cfa_offset 40
 667 0004 00AF     		add	r7, sp, #0
 668              	.LCFI42:
 669              		.cfi_def_cfa_register 7
ARM GAS  C:\Users\alanl\AppData\Local\Temp\ccY2aaIM.s 			page 28


 670 0006 0346     		mov	r3, r0
 671 0008 FB71     		strb	r3, [r7, #7]
 352:Drivers/BSP/P-NUCLEO-WB55.Nucleo/stm32wbxx_nucleo.c ****     GPIO_InitTypeDef gpio_init_structure;
 353:Drivers/BSP/P-NUCLEO-WB55.Nucleo/stm32wbxx_nucleo.c **** 
 354:Drivers/BSP/P-NUCLEO-WB55.Nucleo/stm32wbxx_nucleo.c ****     gpio_init_structure.Pin = BUTTON_PIN[Button];
 672              		.loc 1 354 41
 673 000a FB79     		ldrb	r3, [r7, #7]	@ zero_extendqisi2
 674 000c 0B4A     		ldr	r2, .L31
 675 000e 32F81330 		ldrh	r3, [r2, r3, lsl #1]
 676              		.loc 1 354 29
 677 0012 FB60     		str	r3, [r7, #12]
 355:Drivers/BSP/P-NUCLEO-WB55.Nucleo/stm32wbxx_nucleo.c ****     HAL_NVIC_DisableIRQ((IRQn_Type)(BUTTON_IRQn[Button]));
 678              		.loc 1 355 48
 679 0014 FB79     		ldrb	r3, [r7, #7]	@ zero_extendqisi2
 680 0016 0A4A     		ldr	r2, .L31+4
 681 0018 D35C     		ldrb	r3, [r2, r3]	@ zero_extendqisi2
 682              		.loc 1 355 5
 683 001a 5BB2     		sxtb	r3, r3
 684 001c 1846     		mov	r0, r3
 685 001e FFF7FEFF 		bl	HAL_NVIC_DisableIRQ
 356:Drivers/BSP/P-NUCLEO-WB55.Nucleo/stm32wbxx_nucleo.c ****     HAL_GPIO_DeInit(BUTTON_PORT[Button], gpio_init_structure.Pin);
 686              		.loc 1 356 5
 687 0022 FB79     		ldrb	r3, [r7, #7]	@ zero_extendqisi2
 688 0024 074A     		ldr	r2, .L31+8
 689 0026 52F82330 		ldr	r3, [r2, r3, lsl #2]
 690 002a FA68     		ldr	r2, [r7, #12]
 691 002c 1146     		mov	r1, r2
 692 002e 1846     		mov	r0, r3
 693 0030 FFF7FEFF 		bl	HAL_GPIO_DeInit
 357:Drivers/BSP/P-NUCLEO-WB55.Nucleo/stm32wbxx_nucleo.c **** }
 694              		.loc 1 357 1
 695 0034 00BF     		nop
 696 0036 2037     		adds	r7, r7, #32
 697              	.LCFI43:
 698              		.cfi_def_cfa_offset 8
 699 0038 BD46     		mov	sp, r7
 700              	.LCFI44:
 701              		.cfi_def_cfa_register 13
 702              		@ sp needed
 703 003a 80BD     		pop	{r7, pc}
 704              	.L32:
 705              		.align	2
 706              	.L31:
 707 003c 00000000 		.word	BUTTON_PIN
 708 0040 00000000 		.word	BUTTON_IRQn
 709 0044 00000000 		.word	BUTTON_PORT
 710              		.cfi_endproc
 711              	.LFE957:
 713              		.section	.text.BSP_PB_GetState,"ax",%progbits
 714              		.align	1
 715              		.global	BSP_PB_GetState
 716              		.syntax unified
 717              		.thumb
 718              		.thumb_func
 720              	BSP_PB_GetState:
 721              	.LFB958:
 358:Drivers/BSP/P-NUCLEO-WB55.Nucleo/stm32wbxx_nucleo.c **** 
ARM GAS  C:\Users\alanl\AppData\Local\Temp\ccY2aaIM.s 			page 29


 359:Drivers/BSP/P-NUCLEO-WB55.Nucleo/stm32wbxx_nucleo.c **** /**
 360:Drivers/BSP/P-NUCLEO-WB55.Nucleo/stm32wbxx_nucleo.c ****   * @brief  Returns the selected Button state.
 361:Drivers/BSP/P-NUCLEO-WB55.Nucleo/stm32wbxx_nucleo.c ****   * @param  Button: Specifies the Button to be checked.
 362:Drivers/BSP/P-NUCLEO-WB55.Nucleo/stm32wbxx_nucleo.c ****   *   This parameter can be one of following parameters:
 363:Drivers/BSP/P-NUCLEO-WB55.Nucleo/stm32wbxx_nucleo.c ****   *     @arg BUTTON_SW1
 364:Drivers/BSP/P-NUCLEO-WB55.Nucleo/stm32wbxx_nucleo.c ****   *     @arg BUTTON_SW2
 365:Drivers/BSP/P-NUCLEO-WB55.Nucleo/stm32wbxx_nucleo.c ****   *     @arg BUTTON_SW3
 366:Drivers/BSP/P-NUCLEO-WB55.Nucleo/stm32wbxx_nucleo.c ****   * @retval The Button GPIO pin value.
 367:Drivers/BSP/P-NUCLEO-WB55.Nucleo/stm32wbxx_nucleo.c ****   */
 368:Drivers/BSP/P-NUCLEO-WB55.Nucleo/stm32wbxx_nucleo.c **** uint32_t BSP_PB_GetState(Button_TypeDef Button)
 369:Drivers/BSP/P-NUCLEO-WB55.Nucleo/stm32wbxx_nucleo.c **** {
 722              		.loc 1 369 1
 723              		.cfi_startproc
 724              		@ args = 0, pretend = 0, frame = 8
 725              		@ frame_needed = 1, uses_anonymous_args = 0
 726 0000 80B5     		push	{r7, lr}
 727              	.LCFI45:
 728              		.cfi_def_cfa_offset 8
 729              		.cfi_offset 7, -8
 730              		.cfi_offset 14, -4
 731 0002 82B0     		sub	sp, sp, #8
 732              	.LCFI46:
 733              		.cfi_def_cfa_offset 16
 734 0004 00AF     		add	r7, sp, #0
 735              	.LCFI47:
 736              		.cfi_def_cfa_register 7
 737 0006 0346     		mov	r3, r0
 738 0008 FB71     		strb	r3, [r7, #7]
 370:Drivers/BSP/P-NUCLEO-WB55.Nucleo/stm32wbxx_nucleo.c ****   return HAL_GPIO_ReadPin(BUTTON_PORT[Button], BUTTON_PIN[Button]);
 739              		.loc 1 370 10
 740 000a FB79     		ldrb	r3, [r7, #7]	@ zero_extendqisi2
 741              		.loc 1 370 38
 742 000c 074A     		ldr	r2, .L35
 743 000e 52F82320 		ldr	r2, [r2, r3, lsl #2]
 744              		.loc 1 370 10
 745 0012 FB79     		ldrb	r3, [r7, #7]	@ zero_extendqisi2
 746              		.loc 1 370 58
 747 0014 0649     		ldr	r1, .L35+4
 748 0016 31F81330 		ldrh	r3, [r1, r3, lsl #1]
 749              		.loc 1 370 10
 750 001a 1946     		mov	r1, r3
 751 001c 1046     		mov	r0, r2
 752 001e FFF7FEFF 		bl	HAL_GPIO_ReadPin
 753 0022 0346     		mov	r3, r0
 371:Drivers/BSP/P-NUCLEO-WB55.Nucleo/stm32wbxx_nucleo.c **** }
 754              		.loc 1 371 1
 755 0024 1846     		mov	r0, r3
 756 0026 0837     		adds	r7, r7, #8
 757              	.LCFI48:
 758              		.cfi_def_cfa_offset 8
 759 0028 BD46     		mov	sp, r7
 760              	.LCFI49:
 761              		.cfi_def_cfa_register 13
 762              		@ sp needed
 763 002a 80BD     		pop	{r7, pc}
 764              	.L36:
 765              		.align	2
ARM GAS  C:\Users\alanl\AppData\Local\Temp\ccY2aaIM.s 			page 30


 766              	.L35:
 767 002c 00000000 		.word	BUTTON_PORT
 768 0030 00000000 		.word	BUTTON_PIN
 769              		.cfi_endproc
 770              	.LFE958:
 772              		.text
 773              	.Letext0:
 774              		.file 3 "Drivers/CMSIS/Device/ST/STM32WBxx/Include/stm32wb55xx.h"
 775              		.file 4 "C:/Program Files (x86)/Arm GNU Toolchain arm-none-eabi/14.3 rel1/arm-none-eabi/include/ma
 776              		.file 5 "C:/Program Files (x86)/Arm GNU Toolchain arm-none-eabi/14.3 rel1/arm-none-eabi/include/sy
 777              		.file 6 "Drivers/STM32WBxx_HAL_Driver/Inc/stm32wbxx_hal_gpio.h"
 778              		.file 7 "Drivers/BSP/P-NUCLEO-WB55.Nucleo/stm32wbxx_nucleo.h"
 779              		.file 8 "Drivers/STM32WBxx_HAL_Driver/Inc/stm32wbxx_hal_cortex.h"
 780              		.file 9 "Drivers/STM32WBxx_HAL_Driver/Inc/stm32wbxx_hal.h"
ARM GAS  C:\Users\alanl\AppData\Local\Temp\ccY2aaIM.s 			page 31

