ARM GAS  C:\Users\alanl\AppData\Local\Temp\ccySaGgX.s 			page 1


   1              		.cpu cortex-m4
   2              		.arch armv7e-m
   3              		.fpu fpv4-sp-d16
   4              		.eabi_attribute 27, 1
   5              		.eabi_attribute 28, 1
   6              		.eabi_attribute 20, 1
   7              		.eabi_attribute 21, 1
   8              		.eabi_attribute 23, 3
   9              		.eabi_attribute 24, 1
  10              		.eabi_attribute 25, 1
  11              		.eabi_attribute 26, 1
  12              		.eabi_attribute 30, 6
  13              		.eabi_attribute 34, 1
  14              		.eabi_attribute 18, 4
  15              		.file	"timers.c"
  16              		.text
  17              	.Ltext0:
  18              		.cfi_sections	.debug_frame
  19              		.file 1 "Middlewares/Third_Party/FreeRTOS/Source/timers.c"
  20              		.section	.bss.xActiveTimerList1,"aw",%nobits
  21              		.align	2
  24              	xActiveTimerList1:
  25 0000 00000000 		.space	20
  25      00000000 
  25      00000000 
  25      00000000 
  25      00000000 
  26              		.section	.bss.xActiveTimerList2,"aw",%nobits
  27              		.align	2
  30              	xActiveTimerList2:
  31 0000 00000000 		.space	20
  31      00000000 
  31      00000000 
  31      00000000 
  31      00000000 
  32              		.section	.bss.pxCurrentTimerList,"aw",%nobits
  33              		.align	2
  36              	pxCurrentTimerList:
  37 0000 00000000 		.space	4
  38              		.section	.bss.pxOverflowTimerList,"aw",%nobits
  39              		.align	2
  42              	pxOverflowTimerList:
  43 0000 00000000 		.space	4
  44              		.section	.bss.xTimerQueue,"aw",%nobits
  45              		.align	2
  48              	xTimerQueue:
  49 0000 00000000 		.space	4
  50              		.section	.bss.xTimerTaskHandle,"aw",%nobits
  51              		.align	2
  54              	xTimerTaskHandle:
  55 0000 00000000 		.space	4
  56              		.section	.rodata
  57              		.align	2
  58              	.LC0:
  59 0000 546D7220 		.ascii	"Tmr Svc\000"
  59      53766300 
  60              		.section	.text.xTimerCreateTimerTask,"ax",%progbits
ARM GAS  C:\Users\alanl\AppData\Local\Temp\ccySaGgX.s 			page 2


  61              		.align	1
  62              		.global	xTimerCreateTimerTask
  63              		.syntax unified
  64              		.thumb
  65              		.thumb_func
  67              	xTimerCreateTimerTask:
  68              	.LFB4:
   1:Middlewares/Third_Party/FreeRTOS/Source/timers.c **** /*
   2:Middlewares/Third_Party/FreeRTOS/Source/timers.c ****  * FreeRTOS Kernel V10.6.2
   3:Middlewares/Third_Party/FreeRTOS/Source/timers.c ****  * Copyright (C) 2021 Amazon.com, Inc. or its affiliates.  All Rights Reserved.
   4:Middlewares/Third_Party/FreeRTOS/Source/timers.c ****  *
   5:Middlewares/Third_Party/FreeRTOS/Source/timers.c ****  * SPDX-License-Identifier: MIT
   6:Middlewares/Third_Party/FreeRTOS/Source/timers.c ****  *
   7:Middlewares/Third_Party/FreeRTOS/Source/timers.c ****  * Permission is hereby granted, free of charge, to any person obtaining a copy of
   8:Middlewares/Third_Party/FreeRTOS/Source/timers.c ****  * this software and associated documentation files (the "Software"), to deal in
   9:Middlewares/Third_Party/FreeRTOS/Source/timers.c ****  * the Software without restriction, including without limitation the rights to
  10:Middlewares/Third_Party/FreeRTOS/Source/timers.c ****  * use, copy, modify, merge, publish, distribute, sublicense, and/or sell copies of
  11:Middlewares/Third_Party/FreeRTOS/Source/timers.c ****  * the Software, and to permit persons to whom the Software is furnished to do so,
  12:Middlewares/Third_Party/FreeRTOS/Source/timers.c ****  * subject to the following conditions:
  13:Middlewares/Third_Party/FreeRTOS/Source/timers.c ****  *
  14:Middlewares/Third_Party/FreeRTOS/Source/timers.c ****  * The above copyright notice and this permission notice shall be included in all
  15:Middlewares/Third_Party/FreeRTOS/Source/timers.c ****  * copies or substantial portions of the Software.
  16:Middlewares/Third_Party/FreeRTOS/Source/timers.c ****  *
  17:Middlewares/Third_Party/FreeRTOS/Source/timers.c ****  * THE SOFTWARE IS PROVIDED "AS IS", WITHOUT WARRANTY OF ANY KIND, EXPRESS OR
  18:Middlewares/Third_Party/FreeRTOS/Source/timers.c ****  * IMPLIED, INCLUDING BUT NOT LIMITED TO THE WARRANTIES OF MERCHANTABILITY, FITNESS
  19:Middlewares/Third_Party/FreeRTOS/Source/timers.c ****  * FOR A PARTICULAR PURPOSE AND NONINFRINGEMENT. IN NO EVENT SHALL THE AUTHORS OR
  20:Middlewares/Third_Party/FreeRTOS/Source/timers.c ****  * COPYRIGHT HOLDERS BE LIABLE FOR ANY CLAIM, DAMAGES OR OTHER LIABILITY, WHETHER
  21:Middlewares/Third_Party/FreeRTOS/Source/timers.c ****  * IN AN ACTION OF CONTRACT, TORT OR OTHERWISE, ARISING FROM, OUT OF OR IN
  22:Middlewares/Third_Party/FreeRTOS/Source/timers.c ****  * CONNECTION WITH THE SOFTWARE OR THE USE OR OTHER DEALINGS IN THE SOFTWARE.
  23:Middlewares/Third_Party/FreeRTOS/Source/timers.c ****  *
  24:Middlewares/Third_Party/FreeRTOS/Source/timers.c ****  * https://www.FreeRTOS.org
  25:Middlewares/Third_Party/FreeRTOS/Source/timers.c ****  * https://github.com/FreeRTOS
  26:Middlewares/Third_Party/FreeRTOS/Source/timers.c ****  *
  27:Middlewares/Third_Party/FreeRTOS/Source/timers.c ****  */
  28:Middlewares/Third_Party/FreeRTOS/Source/timers.c **** 
  29:Middlewares/Third_Party/FreeRTOS/Source/timers.c **** /* Standard includes. */
  30:Middlewares/Third_Party/FreeRTOS/Source/timers.c **** #include <stdlib.h>
  31:Middlewares/Third_Party/FreeRTOS/Source/timers.c **** 
  32:Middlewares/Third_Party/FreeRTOS/Source/timers.c **** /* Defining MPU_WRAPPERS_INCLUDED_FROM_API_FILE prevents task.h from redefining
  33:Middlewares/Third_Party/FreeRTOS/Source/timers.c ****  * all the API functions to use the MPU wrappers.  That should only be done when
  34:Middlewares/Third_Party/FreeRTOS/Source/timers.c ****  * task.h is included from an application file. */
  35:Middlewares/Third_Party/FreeRTOS/Source/timers.c **** #define MPU_WRAPPERS_INCLUDED_FROM_API_FILE
  36:Middlewares/Third_Party/FreeRTOS/Source/timers.c **** 
  37:Middlewares/Third_Party/FreeRTOS/Source/timers.c **** #include "FreeRTOS.h"
  38:Middlewares/Third_Party/FreeRTOS/Source/timers.c **** #include "task.h"
  39:Middlewares/Third_Party/FreeRTOS/Source/timers.c **** #include "queue.h"
  40:Middlewares/Third_Party/FreeRTOS/Source/timers.c **** #include "timers.h"
  41:Middlewares/Third_Party/FreeRTOS/Source/timers.c **** 
  42:Middlewares/Third_Party/FreeRTOS/Source/timers.c **** #if ( INCLUDE_xTimerPendFunctionCall == 1 ) && ( configUSE_TIMERS == 0 )
  43:Middlewares/Third_Party/FreeRTOS/Source/timers.c ****     #error configUSE_TIMERS must be set to 1 to make the xTimerPendFunctionCall() function availabl
  44:Middlewares/Third_Party/FreeRTOS/Source/timers.c **** #endif
  45:Middlewares/Third_Party/FreeRTOS/Source/timers.c **** 
  46:Middlewares/Third_Party/FreeRTOS/Source/timers.c **** /* Lint e9021, e961 and e750 are suppressed as a MISRA exception justified
  47:Middlewares/Third_Party/FreeRTOS/Source/timers.c ****  * because the MPU ports require MPU_WRAPPERS_INCLUDED_FROM_API_FILE to be defined
  48:Middlewares/Third_Party/FreeRTOS/Source/timers.c ****  * for the header files above, but not in this file, in order to generate the
  49:Middlewares/Third_Party/FreeRTOS/Source/timers.c ****  * correct privileged Vs unprivileged linkage and placement. */
  50:Middlewares/Third_Party/FreeRTOS/Source/timers.c **** #undef MPU_WRAPPERS_INCLUDED_FROM_API_FILE /*lint !e9021 !e961 !e750. */
ARM GAS  C:\Users\alanl\AppData\Local\Temp\ccySaGgX.s 			page 3


  51:Middlewares/Third_Party/FreeRTOS/Source/timers.c **** 
  52:Middlewares/Third_Party/FreeRTOS/Source/timers.c **** 
  53:Middlewares/Third_Party/FreeRTOS/Source/timers.c **** /* This entire source file will be skipped if the application is not configured
  54:Middlewares/Third_Party/FreeRTOS/Source/timers.c ****  * to include software timer functionality.  This #if is closed at the very bottom
  55:Middlewares/Third_Party/FreeRTOS/Source/timers.c ****  * of this file.  If you want to include software timer functionality then ensure
  56:Middlewares/Third_Party/FreeRTOS/Source/timers.c ****  * configUSE_TIMERS is set to 1 in FreeRTOSConfig.h. */
  57:Middlewares/Third_Party/FreeRTOS/Source/timers.c **** #if ( configUSE_TIMERS == 1 )
  58:Middlewares/Third_Party/FreeRTOS/Source/timers.c **** 
  59:Middlewares/Third_Party/FreeRTOS/Source/timers.c **** /* Misc definitions. */
  60:Middlewares/Third_Party/FreeRTOS/Source/timers.c ****     #define tmrNO_DELAY                    ( ( TickType_t ) 0U )
  61:Middlewares/Third_Party/FreeRTOS/Source/timers.c ****     #define tmrMAX_TIME_BEFORE_OVERFLOW    ( ( TickType_t ) -1 )
  62:Middlewares/Third_Party/FreeRTOS/Source/timers.c **** 
  63:Middlewares/Third_Party/FreeRTOS/Source/timers.c **** /* The name assigned to the timer service task.  This can be overridden by
  64:Middlewares/Third_Party/FreeRTOS/Source/timers.c ****  * defining trmTIMER_SERVICE_TASK_NAME in FreeRTOSConfig.h. */
  65:Middlewares/Third_Party/FreeRTOS/Source/timers.c ****     #ifndef configTIMER_SERVICE_TASK_NAME
  66:Middlewares/Third_Party/FreeRTOS/Source/timers.c ****         #define configTIMER_SERVICE_TASK_NAME    "Tmr Svc"
  67:Middlewares/Third_Party/FreeRTOS/Source/timers.c ****     #endif
  68:Middlewares/Third_Party/FreeRTOS/Source/timers.c **** 
  69:Middlewares/Third_Party/FreeRTOS/Source/timers.c **** /* Bit definitions used in the ucStatus member of a timer structure. */
  70:Middlewares/Third_Party/FreeRTOS/Source/timers.c ****     #define tmrSTATUS_IS_ACTIVE                  ( ( uint8_t ) 0x01 )
  71:Middlewares/Third_Party/FreeRTOS/Source/timers.c ****     #define tmrSTATUS_IS_STATICALLY_ALLOCATED    ( ( uint8_t ) 0x02 )
  72:Middlewares/Third_Party/FreeRTOS/Source/timers.c ****     #define tmrSTATUS_IS_AUTORELOAD              ( ( uint8_t ) 0x04 )
  73:Middlewares/Third_Party/FreeRTOS/Source/timers.c **** 
  74:Middlewares/Third_Party/FreeRTOS/Source/timers.c **** /* The definition of the timers themselves. */
  75:Middlewares/Third_Party/FreeRTOS/Source/timers.c ****     typedef struct tmrTimerControl                  /* The old naming convention is used to prevent
  76:Middlewares/Third_Party/FreeRTOS/Source/timers.c ****     {
  77:Middlewares/Third_Party/FreeRTOS/Source/timers.c ****         const char * pcTimerName;                   /**< Text name.  This is not used by the kernel
  78:Middlewares/Third_Party/FreeRTOS/Source/timers.c ****         ListItem_t xTimerListItem;                  /**< Standard linked list item as used by all k
  79:Middlewares/Third_Party/FreeRTOS/Source/timers.c ****         TickType_t xTimerPeriodInTicks;             /**< How quickly and often the timer expires. *
  80:Middlewares/Third_Party/FreeRTOS/Source/timers.c ****         void * pvTimerID;                           /**< An ID to identify the timer.  This allows 
  81:Middlewares/Third_Party/FreeRTOS/Source/timers.c ****         TimerCallbackFunction_t pxCallbackFunction; /**< The function that will be called when the 
  82:Middlewares/Third_Party/FreeRTOS/Source/timers.c ****         #if ( configUSE_TRACE_FACILITY == 1 )
  83:Middlewares/Third_Party/FreeRTOS/Source/timers.c ****             UBaseType_t uxTimerNumber;              /**< An ID assigned by trace tools such as Free
  84:Middlewares/Third_Party/FreeRTOS/Source/timers.c ****         #endif
  85:Middlewares/Third_Party/FreeRTOS/Source/timers.c ****         uint8_t ucStatus;                           /**< Holds bits to say if the timer was statica
  86:Middlewares/Third_Party/FreeRTOS/Source/timers.c ****     } xTIMER;
  87:Middlewares/Third_Party/FreeRTOS/Source/timers.c **** 
  88:Middlewares/Third_Party/FreeRTOS/Source/timers.c **** /* The old xTIMER name is maintained above then typedefed to the new Timer_t
  89:Middlewares/Third_Party/FreeRTOS/Source/timers.c ****  * name below to enable the use of older kernel aware debuggers. */
  90:Middlewares/Third_Party/FreeRTOS/Source/timers.c ****     typedef xTIMER Timer_t;
  91:Middlewares/Third_Party/FreeRTOS/Source/timers.c **** 
  92:Middlewares/Third_Party/FreeRTOS/Source/timers.c **** /* The definition of messages that can be sent and received on the timer queue.
  93:Middlewares/Third_Party/FreeRTOS/Source/timers.c ****  * Two types of message can be queued - messages that manipulate a software timer,
  94:Middlewares/Third_Party/FreeRTOS/Source/timers.c ****  * and messages that request the execution of a non-timer related callback.  The
  95:Middlewares/Third_Party/FreeRTOS/Source/timers.c ****  * two message types are defined in two separate structures, xTimerParametersType
  96:Middlewares/Third_Party/FreeRTOS/Source/timers.c ****  * and xCallbackParametersType respectively. */
  97:Middlewares/Third_Party/FreeRTOS/Source/timers.c ****     typedef struct tmrTimerParameters
  98:Middlewares/Third_Party/FreeRTOS/Source/timers.c ****     {
  99:Middlewares/Third_Party/FreeRTOS/Source/timers.c ****         TickType_t xMessageValue; /**< An optional value used by a subset of commands, for example,
 100:Middlewares/Third_Party/FreeRTOS/Source/timers.c ****         Timer_t * pxTimer;        /**< The timer to which the command will be applied. */
 101:Middlewares/Third_Party/FreeRTOS/Source/timers.c ****     } TimerParameter_t;
 102:Middlewares/Third_Party/FreeRTOS/Source/timers.c **** 
 103:Middlewares/Third_Party/FreeRTOS/Source/timers.c **** 
 104:Middlewares/Third_Party/FreeRTOS/Source/timers.c ****     typedef struct tmrCallbackParameters
 105:Middlewares/Third_Party/FreeRTOS/Source/timers.c ****     {
 106:Middlewares/Third_Party/FreeRTOS/Source/timers.c ****         PendedFunction_t pxCallbackFunction; /* << The callback function to execute. */
 107:Middlewares/Third_Party/FreeRTOS/Source/timers.c ****         void * pvParameter1;                 /* << The value that will be used as the callback func
ARM GAS  C:\Users\alanl\AppData\Local\Temp\ccySaGgX.s 			page 4


 108:Middlewares/Third_Party/FreeRTOS/Source/timers.c ****         uint32_t ulParameter2;               /* << The value that will be used as the callback func
 109:Middlewares/Third_Party/FreeRTOS/Source/timers.c ****     } CallbackParameters_t;
 110:Middlewares/Third_Party/FreeRTOS/Source/timers.c **** 
 111:Middlewares/Third_Party/FreeRTOS/Source/timers.c **** /* The structure that contains the two message types, along with an identifier
 112:Middlewares/Third_Party/FreeRTOS/Source/timers.c ****  * that is used to determine which message type is valid. */
 113:Middlewares/Third_Party/FreeRTOS/Source/timers.c ****     typedef struct tmrTimerQueueMessage
 114:Middlewares/Third_Party/FreeRTOS/Source/timers.c ****     {
 115:Middlewares/Third_Party/FreeRTOS/Source/timers.c ****         BaseType_t xMessageID; /**< The command being sent to the timer service task. */
 116:Middlewares/Third_Party/FreeRTOS/Source/timers.c ****         union
 117:Middlewares/Third_Party/FreeRTOS/Source/timers.c ****         {
 118:Middlewares/Third_Party/FreeRTOS/Source/timers.c ****             TimerParameter_t xTimerParameters;
 119:Middlewares/Third_Party/FreeRTOS/Source/timers.c **** 
 120:Middlewares/Third_Party/FreeRTOS/Source/timers.c ****             /* Don't include xCallbackParameters if it is not going to be used as
 121:Middlewares/Third_Party/FreeRTOS/Source/timers.c ****              * it makes the structure (and therefore the timer queue) larger. */
 122:Middlewares/Third_Party/FreeRTOS/Source/timers.c ****             #if ( INCLUDE_xTimerPendFunctionCall == 1 )
 123:Middlewares/Third_Party/FreeRTOS/Source/timers.c ****                 CallbackParameters_t xCallbackParameters;
 124:Middlewares/Third_Party/FreeRTOS/Source/timers.c ****             #endif /* INCLUDE_xTimerPendFunctionCall */
 125:Middlewares/Third_Party/FreeRTOS/Source/timers.c ****         } u;
 126:Middlewares/Third_Party/FreeRTOS/Source/timers.c ****     } DaemonTaskMessage_t;
 127:Middlewares/Third_Party/FreeRTOS/Source/timers.c **** 
 128:Middlewares/Third_Party/FreeRTOS/Source/timers.c **** /*lint -save -e956 A manual analysis and inspection has been used to determine
 129:Middlewares/Third_Party/FreeRTOS/Source/timers.c ****  * which static variables must be declared volatile. */
 130:Middlewares/Third_Party/FreeRTOS/Source/timers.c **** 
 131:Middlewares/Third_Party/FreeRTOS/Source/timers.c **** /* The list in which active timers are stored.  Timers are referenced in expire
 132:Middlewares/Third_Party/FreeRTOS/Source/timers.c ****  * time order, with the nearest expiry time at the front of the list.  Only the
 133:Middlewares/Third_Party/FreeRTOS/Source/timers.c ****  * timer service task is allowed to access these lists.
 134:Middlewares/Third_Party/FreeRTOS/Source/timers.c ****  * xActiveTimerList1 and xActiveTimerList2 could be at function scope but that
 135:Middlewares/Third_Party/FreeRTOS/Source/timers.c ****  * breaks some kernel aware debuggers, and debuggers that reply on removing the
 136:Middlewares/Third_Party/FreeRTOS/Source/timers.c ****  * static qualifier. */
 137:Middlewares/Third_Party/FreeRTOS/Source/timers.c ****     PRIVILEGED_DATA static List_t xActiveTimerList1;
 138:Middlewares/Third_Party/FreeRTOS/Source/timers.c ****     PRIVILEGED_DATA static List_t xActiveTimerList2;
 139:Middlewares/Third_Party/FreeRTOS/Source/timers.c ****     PRIVILEGED_DATA static List_t * pxCurrentTimerList;
 140:Middlewares/Third_Party/FreeRTOS/Source/timers.c ****     PRIVILEGED_DATA static List_t * pxOverflowTimerList;
 141:Middlewares/Third_Party/FreeRTOS/Source/timers.c **** 
 142:Middlewares/Third_Party/FreeRTOS/Source/timers.c **** /* A queue that is used to send commands to the timer service task. */
 143:Middlewares/Third_Party/FreeRTOS/Source/timers.c ****     PRIVILEGED_DATA static QueueHandle_t xTimerQueue = NULL;
 144:Middlewares/Third_Party/FreeRTOS/Source/timers.c ****     PRIVILEGED_DATA static TaskHandle_t xTimerTaskHandle = NULL;
 145:Middlewares/Third_Party/FreeRTOS/Source/timers.c **** 
 146:Middlewares/Third_Party/FreeRTOS/Source/timers.c **** /*lint -restore */
 147:Middlewares/Third_Party/FreeRTOS/Source/timers.c **** 
 148:Middlewares/Third_Party/FreeRTOS/Source/timers.c **** /*-----------------------------------------------------------*/
 149:Middlewares/Third_Party/FreeRTOS/Source/timers.c **** 
 150:Middlewares/Third_Party/FreeRTOS/Source/timers.c **** /*
 151:Middlewares/Third_Party/FreeRTOS/Source/timers.c ****  * Initialise the infrastructure used by the timer service task if it has not
 152:Middlewares/Third_Party/FreeRTOS/Source/timers.c ****  * been initialised already.
 153:Middlewares/Third_Party/FreeRTOS/Source/timers.c ****  */
 154:Middlewares/Third_Party/FreeRTOS/Source/timers.c ****     static void prvCheckForValidListAndQueue( void ) PRIVILEGED_FUNCTION;
 155:Middlewares/Third_Party/FreeRTOS/Source/timers.c **** 
 156:Middlewares/Third_Party/FreeRTOS/Source/timers.c **** /*
 157:Middlewares/Third_Party/FreeRTOS/Source/timers.c ****  * The timer service task (daemon).  Timer functionality is controlled by this
 158:Middlewares/Third_Party/FreeRTOS/Source/timers.c ****  * task.  Other tasks communicate with the timer service task using the
 159:Middlewares/Third_Party/FreeRTOS/Source/timers.c ****  * xTimerQueue queue.
 160:Middlewares/Third_Party/FreeRTOS/Source/timers.c ****  */
 161:Middlewares/Third_Party/FreeRTOS/Source/timers.c ****     static portTASK_FUNCTION_PROTO( prvTimerTask, pvParameters ) PRIVILEGED_FUNCTION;
 162:Middlewares/Third_Party/FreeRTOS/Source/timers.c **** 
 163:Middlewares/Third_Party/FreeRTOS/Source/timers.c **** /*
 164:Middlewares/Third_Party/FreeRTOS/Source/timers.c ****  * Called by the timer service task to interpret and process a command it
ARM GAS  C:\Users\alanl\AppData\Local\Temp\ccySaGgX.s 			page 5


 165:Middlewares/Third_Party/FreeRTOS/Source/timers.c ****  * received on the timer queue.
 166:Middlewares/Third_Party/FreeRTOS/Source/timers.c ****  */
 167:Middlewares/Third_Party/FreeRTOS/Source/timers.c ****     static void prvProcessReceivedCommands( void ) PRIVILEGED_FUNCTION;
 168:Middlewares/Third_Party/FreeRTOS/Source/timers.c **** 
 169:Middlewares/Third_Party/FreeRTOS/Source/timers.c **** /*
 170:Middlewares/Third_Party/FreeRTOS/Source/timers.c ****  * Insert the timer into either xActiveTimerList1, or xActiveTimerList2,
 171:Middlewares/Third_Party/FreeRTOS/Source/timers.c ****  * depending on if the expire time causes a timer counter overflow.
 172:Middlewares/Third_Party/FreeRTOS/Source/timers.c ****  */
 173:Middlewares/Third_Party/FreeRTOS/Source/timers.c ****     static BaseType_t prvInsertTimerInActiveList( Timer_t * const pxTimer,
 174:Middlewares/Third_Party/FreeRTOS/Source/timers.c ****                                                   const TickType_t xNextExpiryTime,
 175:Middlewares/Third_Party/FreeRTOS/Source/timers.c ****                                                   const TickType_t xTimeNow,
 176:Middlewares/Third_Party/FreeRTOS/Source/timers.c ****                                                   const TickType_t xCommandTime ) PRIVILEGED_FUNCTI
 177:Middlewares/Third_Party/FreeRTOS/Source/timers.c **** 
 178:Middlewares/Third_Party/FreeRTOS/Source/timers.c **** /*
 179:Middlewares/Third_Party/FreeRTOS/Source/timers.c ****  * Reload the specified auto-reload timer.  If the reloading is backlogged,
 180:Middlewares/Third_Party/FreeRTOS/Source/timers.c ****  * clear the backlog, calling the callback for each additional reload.  When
 181:Middlewares/Third_Party/FreeRTOS/Source/timers.c ****  * this function returns, the next expiry time is after xTimeNow.
 182:Middlewares/Third_Party/FreeRTOS/Source/timers.c ****  */
 183:Middlewares/Third_Party/FreeRTOS/Source/timers.c ****     static void prvReloadTimer( Timer_t * const pxTimer,
 184:Middlewares/Third_Party/FreeRTOS/Source/timers.c ****                                 TickType_t xExpiredTime,
 185:Middlewares/Third_Party/FreeRTOS/Source/timers.c ****                                 const TickType_t xTimeNow ) PRIVILEGED_FUNCTION;
 186:Middlewares/Third_Party/FreeRTOS/Source/timers.c **** 
 187:Middlewares/Third_Party/FreeRTOS/Source/timers.c **** /*
 188:Middlewares/Third_Party/FreeRTOS/Source/timers.c ****  * An active timer has reached its expire time.  Reload the timer if it is an
 189:Middlewares/Third_Party/FreeRTOS/Source/timers.c ****  * auto-reload timer, then call its callback.
 190:Middlewares/Third_Party/FreeRTOS/Source/timers.c ****  */
 191:Middlewares/Third_Party/FreeRTOS/Source/timers.c ****     static void prvProcessExpiredTimer( const TickType_t xNextExpireTime,
 192:Middlewares/Third_Party/FreeRTOS/Source/timers.c ****                                         const TickType_t xTimeNow ) PRIVILEGED_FUNCTION;
 193:Middlewares/Third_Party/FreeRTOS/Source/timers.c **** 
 194:Middlewares/Third_Party/FreeRTOS/Source/timers.c **** /*
 195:Middlewares/Third_Party/FreeRTOS/Source/timers.c ****  * The tick count has overflowed.  Switch the timer lists after ensuring the
 196:Middlewares/Third_Party/FreeRTOS/Source/timers.c ****  * current timer list does not still reference some timers.
 197:Middlewares/Third_Party/FreeRTOS/Source/timers.c ****  */
 198:Middlewares/Third_Party/FreeRTOS/Source/timers.c ****     static void prvSwitchTimerLists( void ) PRIVILEGED_FUNCTION;
 199:Middlewares/Third_Party/FreeRTOS/Source/timers.c **** 
 200:Middlewares/Third_Party/FreeRTOS/Source/timers.c **** /*
 201:Middlewares/Third_Party/FreeRTOS/Source/timers.c ****  * Obtain the current tick count, setting *pxTimerListsWereSwitched to pdTRUE
 202:Middlewares/Third_Party/FreeRTOS/Source/timers.c ****  * if a tick count overflow occurred since prvSampleTimeNow() was last called.
 203:Middlewares/Third_Party/FreeRTOS/Source/timers.c ****  */
 204:Middlewares/Third_Party/FreeRTOS/Source/timers.c ****     static TickType_t prvSampleTimeNow( BaseType_t * const pxTimerListsWereSwitched ) PRIVILEGED_FU
 205:Middlewares/Third_Party/FreeRTOS/Source/timers.c **** 
 206:Middlewares/Third_Party/FreeRTOS/Source/timers.c **** /*
 207:Middlewares/Third_Party/FreeRTOS/Source/timers.c ****  * If the timer list contains any active timers then return the expire time of
 208:Middlewares/Third_Party/FreeRTOS/Source/timers.c ****  * the timer that will expire first and set *pxListWasEmpty to false.  If the
 209:Middlewares/Third_Party/FreeRTOS/Source/timers.c ****  * timer list does not contain any timers then return 0 and set *pxListWasEmpty
 210:Middlewares/Third_Party/FreeRTOS/Source/timers.c ****  * to pdTRUE.
 211:Middlewares/Third_Party/FreeRTOS/Source/timers.c ****  */
 212:Middlewares/Third_Party/FreeRTOS/Source/timers.c ****     static TickType_t prvGetNextExpireTime( BaseType_t * const pxListWasEmpty ) PRIVILEGED_FUNCTION
 213:Middlewares/Third_Party/FreeRTOS/Source/timers.c **** 
 214:Middlewares/Third_Party/FreeRTOS/Source/timers.c **** /*
 215:Middlewares/Third_Party/FreeRTOS/Source/timers.c ****  * If a timer has expired, process it.  Otherwise, block the timer service task
 216:Middlewares/Third_Party/FreeRTOS/Source/timers.c ****  * until either a timer does expire or a command is received.
 217:Middlewares/Third_Party/FreeRTOS/Source/timers.c ****  */
 218:Middlewares/Third_Party/FreeRTOS/Source/timers.c ****     static void prvProcessTimerOrBlockTask( const TickType_t xNextExpireTime,
 219:Middlewares/Third_Party/FreeRTOS/Source/timers.c ****                                             BaseType_t xListWasEmpty ) PRIVILEGED_FUNCTION;
 220:Middlewares/Third_Party/FreeRTOS/Source/timers.c **** 
 221:Middlewares/Third_Party/FreeRTOS/Source/timers.c **** /*
ARM GAS  C:\Users\alanl\AppData\Local\Temp\ccySaGgX.s 			page 6


 222:Middlewares/Third_Party/FreeRTOS/Source/timers.c ****  * Called after a Timer_t structure has been allocated either statically or
 223:Middlewares/Third_Party/FreeRTOS/Source/timers.c ****  * dynamically to fill in the structure's members.
 224:Middlewares/Third_Party/FreeRTOS/Source/timers.c ****  */
 225:Middlewares/Third_Party/FreeRTOS/Source/timers.c ****     static void prvInitialiseNewTimer( const char * const pcTimerName, /*lint !e971 Unqualified cha
 226:Middlewares/Third_Party/FreeRTOS/Source/timers.c ****                                        const TickType_t xTimerPeriodInTicks,
 227:Middlewares/Third_Party/FreeRTOS/Source/timers.c ****                                        const BaseType_t xAutoReload,
 228:Middlewares/Third_Party/FreeRTOS/Source/timers.c ****                                        void * const pvTimerID,
 229:Middlewares/Third_Party/FreeRTOS/Source/timers.c ****                                        TimerCallbackFunction_t pxCallbackFunction,
 230:Middlewares/Third_Party/FreeRTOS/Source/timers.c ****                                        Timer_t * pxNewTimer ) PRIVILEGED_FUNCTION;
 231:Middlewares/Third_Party/FreeRTOS/Source/timers.c **** /*-----------------------------------------------------------*/
 232:Middlewares/Third_Party/FreeRTOS/Source/timers.c **** 
 233:Middlewares/Third_Party/FreeRTOS/Source/timers.c ****     BaseType_t xTimerCreateTimerTask( void )
 234:Middlewares/Third_Party/FreeRTOS/Source/timers.c ****     {
  69              		.loc 1 234 5
  70              		.cfi_startproc
  71              		@ args = 0, pretend = 0, frame = 24
  72              		@ frame_needed = 1, uses_anonymous_args = 0
  73 0000 80B5     		push	{r7, lr}
  74              	.LCFI0:
  75              		.cfi_def_cfa_offset 8
  76              		.cfi_offset 7, -8
  77              		.cfi_offset 14, -4
  78 0002 8AB0     		sub	sp, sp, #40
  79              	.LCFI1:
  80              		.cfi_def_cfa_offset 48
  81 0004 04AF     		add	r7, sp, #16
  82              	.LCFI2:
  83              		.cfi_def_cfa 7, 32
 235:Middlewares/Third_Party/FreeRTOS/Source/timers.c ****         BaseType_t xReturn = pdFAIL;
  84              		.loc 1 235 20
  85 0006 0023     		movs	r3, #0
  86 0008 7B61     		str	r3, [r7, #20]
 236:Middlewares/Third_Party/FreeRTOS/Source/timers.c **** 
 237:Middlewares/Third_Party/FreeRTOS/Source/timers.c ****         /* This function is called when the scheduler is started if
 238:Middlewares/Third_Party/FreeRTOS/Source/timers.c ****          * configUSE_TIMERS is set to 1.  Check that the infrastructure used by the
 239:Middlewares/Third_Party/FreeRTOS/Source/timers.c ****          * timer service task has been created/initialised.  If timers have already
 240:Middlewares/Third_Party/FreeRTOS/Source/timers.c ****          * been created then the initialisation will already have been performed. */
 241:Middlewares/Third_Party/FreeRTOS/Source/timers.c ****         prvCheckForValidListAndQueue();
  87              		.loc 1 241 9
  88 000a FFF7FEFF 		bl	prvCheckForValidListAndQueue
 242:Middlewares/Third_Party/FreeRTOS/Source/timers.c **** 
 243:Middlewares/Third_Party/FreeRTOS/Source/timers.c ****         if( xTimerQueue != NULL )
  89              		.loc 1 243 25
  90 000e 1D4B     		ldr	r3, .L7
  91 0010 1B68     		ldr	r3, [r3]
  92              		.loc 1 243 11
  93 0012 002B     		cmp	r3, #0
  94 0014 21D0     		beq	.L2
  95              	.LBB41:
 244:Middlewares/Third_Party/FreeRTOS/Source/timers.c ****         {
 245:Middlewares/Third_Party/FreeRTOS/Source/timers.c ****             #if ( configSUPPORT_STATIC_ALLOCATION == 1 )
 246:Middlewares/Third_Party/FreeRTOS/Source/timers.c ****             {
 247:Middlewares/Third_Party/FreeRTOS/Source/timers.c ****                 StaticTask_t * pxTimerTaskTCBBuffer = NULL;
  96              		.loc 1 247 32
  97 0016 0023     		movs	r3, #0
  98 0018 FB60     		str	r3, [r7, #12]
 248:Middlewares/Third_Party/FreeRTOS/Source/timers.c ****                 StackType_t * pxTimerTaskStackBuffer = NULL;
ARM GAS  C:\Users\alanl\AppData\Local\Temp\ccySaGgX.s 			page 7


  99              		.loc 1 248 31
 100 001a 0023     		movs	r3, #0
 101 001c BB60     		str	r3, [r7, #8]
 249:Middlewares/Third_Party/FreeRTOS/Source/timers.c ****                 uint32_t ulTimerTaskStackSize;
 250:Middlewares/Third_Party/FreeRTOS/Source/timers.c **** 
 251:Middlewares/Third_Party/FreeRTOS/Source/timers.c ****                 vApplicationGetTimerTaskMemory( &pxTimerTaskTCBBuffer, &pxTimerTaskStackBuffer, &ul
 102              		.loc 1 251 17
 103 001e 3A1D     		adds	r2, r7, #4
 104 0020 07F10801 		add	r1, r7, #8
 105 0024 07F10C03 		add	r3, r7, #12
 106 0028 1846     		mov	r0, r3
 107 002a FFF7FEFF 		bl	vApplicationGetTimerTaskMemory
 252:Middlewares/Third_Party/FreeRTOS/Source/timers.c ****                 xTimerTaskHandle = xTaskCreateStatic( prvTimerTask,
 108              		.loc 1 252 36
 109 002e 7968     		ldr	r1, [r7, #4]
 110 0030 BB68     		ldr	r3, [r7, #8]
 111 0032 FA68     		ldr	r2, [r7, #12]
 112 0034 0292     		str	r2, [sp, #8]
 113 0036 0193     		str	r3, [sp, #4]
 114 0038 0223     		movs	r3, #2
 115 003a 0093     		str	r3, [sp]
 116 003c 0023     		movs	r3, #0
 117 003e 0A46     		mov	r2, r1
 118 0040 1149     		ldr	r1, .L7+4
 119 0042 1248     		ldr	r0, .L7+8
 120 0044 FFF7FEFF 		bl	xTaskCreateStatic
 121 0048 0346     		mov	r3, r0
 122              		.loc 1 252 34 discriminator 1
 123 004a 114A     		ldr	r2, .L7+12
 124 004c 1360     		str	r3, [r2]
 253:Middlewares/Third_Party/FreeRTOS/Source/timers.c ****                                                       configTIMER_SERVICE_TASK_NAME,
 254:Middlewares/Third_Party/FreeRTOS/Source/timers.c ****                                                       ulTimerTaskStackSize,
 255:Middlewares/Third_Party/FreeRTOS/Source/timers.c ****                                                       NULL,
 256:Middlewares/Third_Party/FreeRTOS/Source/timers.c ****                                                       ( ( UBaseType_t ) configTIMER_TASK_PRIORITY )
 257:Middlewares/Third_Party/FreeRTOS/Source/timers.c ****                                                       pxTimerTaskStackBuffer,
 258:Middlewares/Third_Party/FreeRTOS/Source/timers.c ****                                                       pxTimerTaskTCBBuffer );
 259:Middlewares/Third_Party/FreeRTOS/Source/timers.c **** 
 260:Middlewares/Third_Party/FreeRTOS/Source/timers.c ****                 if( xTimerTaskHandle != NULL )
 125              		.loc 1 260 38
 126 004e 104B     		ldr	r3, .L7+12
 127 0050 1B68     		ldr	r3, [r3]
 128              		.loc 1 260 19
 129 0052 002B     		cmp	r3, #0
 130 0054 01D0     		beq	.L2
 261:Middlewares/Third_Party/FreeRTOS/Source/timers.c ****                 {
 262:Middlewares/Third_Party/FreeRTOS/Source/timers.c ****                     xReturn = pdPASS;
 131              		.loc 1 262 29
 132 0056 0123     		movs	r3, #1
 133 0058 7B61     		str	r3, [r7, #20]
 134              	.L2:
 135              	.LBE41:
 263:Middlewares/Third_Party/FreeRTOS/Source/timers.c ****                 }
 264:Middlewares/Third_Party/FreeRTOS/Source/timers.c ****             }
 265:Middlewares/Third_Party/FreeRTOS/Source/timers.c ****             #else /* if ( configSUPPORT_STATIC_ALLOCATION == 1 ) */
 266:Middlewares/Third_Party/FreeRTOS/Source/timers.c ****             {
 267:Middlewares/Third_Party/FreeRTOS/Source/timers.c ****                 xReturn = xTaskCreate( prvTimerTask,
 268:Middlewares/Third_Party/FreeRTOS/Source/timers.c ****                                        configTIMER_SERVICE_TASK_NAME,
ARM GAS  C:\Users\alanl\AppData\Local\Temp\ccySaGgX.s 			page 8


 269:Middlewares/Third_Party/FreeRTOS/Source/timers.c ****                                        configTIMER_TASK_STACK_DEPTH,
 270:Middlewares/Third_Party/FreeRTOS/Source/timers.c ****                                        NULL,
 271:Middlewares/Third_Party/FreeRTOS/Source/timers.c ****                                        ( ( UBaseType_t ) configTIMER_TASK_PRIORITY ) | portPRIVILEG
 272:Middlewares/Third_Party/FreeRTOS/Source/timers.c ****                                        &xTimerTaskHandle );
 273:Middlewares/Third_Party/FreeRTOS/Source/timers.c ****             }
 274:Middlewares/Third_Party/FreeRTOS/Source/timers.c ****             #endif /* configSUPPORT_STATIC_ALLOCATION */
 275:Middlewares/Third_Party/FreeRTOS/Source/timers.c ****         }
 276:Middlewares/Third_Party/FreeRTOS/Source/timers.c ****         else
 277:Middlewares/Third_Party/FreeRTOS/Source/timers.c ****         {
 278:Middlewares/Third_Party/FreeRTOS/Source/timers.c ****             mtCOVERAGE_TEST_MARKER();
 279:Middlewares/Third_Party/FreeRTOS/Source/timers.c ****         }
 280:Middlewares/Third_Party/FreeRTOS/Source/timers.c **** 
 281:Middlewares/Third_Party/FreeRTOS/Source/timers.c ****         configASSERT( xReturn );
 136              		.loc 1 281 9
 137 005a 7B69     		ldr	r3, [r7, #20]
 138 005c 002B     		cmp	r3, #0
 139 005e 0BD1     		bne	.L4
 140              	.LBB42:
 141              	.LBB43:
 142              		.file 2 "Middlewares/Third_Party/FreeRTOS/Source/portable/GCC/ARM_CM4F/portmacro.h"
   1:Middlewares/Third_Party/FreeRTOS/Source/portable/GCC/ARM_CM4F/portmacro.h **** /*
   2:Middlewares/Third_Party/FreeRTOS/Source/portable/GCC/ARM_CM4F/portmacro.h ****  * FreeRTOS Kernel V10.6.2
   3:Middlewares/Third_Party/FreeRTOS/Source/portable/GCC/ARM_CM4F/portmacro.h ****  * Copyright (C) 2021 Amazon.com, Inc. or its affiliates.  All Rights Reserved.
   4:Middlewares/Third_Party/FreeRTOS/Source/portable/GCC/ARM_CM4F/portmacro.h ****  *
   5:Middlewares/Third_Party/FreeRTOS/Source/portable/GCC/ARM_CM4F/portmacro.h ****  * SPDX-License-Identifier: MIT
   6:Middlewares/Third_Party/FreeRTOS/Source/portable/GCC/ARM_CM4F/portmacro.h ****  *
   7:Middlewares/Third_Party/FreeRTOS/Source/portable/GCC/ARM_CM4F/portmacro.h ****  * Permission is hereby granted, free of charge, to any person obtaining a copy of
   8:Middlewares/Third_Party/FreeRTOS/Source/portable/GCC/ARM_CM4F/portmacro.h ****  * this software and associated documentation files (the "Software"), to deal in
   9:Middlewares/Third_Party/FreeRTOS/Source/portable/GCC/ARM_CM4F/portmacro.h ****  * the Software without restriction, including without limitation the rights to
  10:Middlewares/Third_Party/FreeRTOS/Source/portable/GCC/ARM_CM4F/portmacro.h ****  * use, copy, modify, merge, publish, distribute, sublicense, and/or sell copies of
  11:Middlewares/Third_Party/FreeRTOS/Source/portable/GCC/ARM_CM4F/portmacro.h ****  * the Software, and to permit persons to whom the Software is furnished to do so,
  12:Middlewares/Third_Party/FreeRTOS/Source/portable/GCC/ARM_CM4F/portmacro.h ****  * subject to the following conditions:
  13:Middlewares/Third_Party/FreeRTOS/Source/portable/GCC/ARM_CM4F/portmacro.h ****  *
  14:Middlewares/Third_Party/FreeRTOS/Source/portable/GCC/ARM_CM4F/portmacro.h ****  * The above copyright notice and this permission notice shall be included in all
  15:Middlewares/Third_Party/FreeRTOS/Source/portable/GCC/ARM_CM4F/portmacro.h ****  * copies or substantial portions of the Software.
  16:Middlewares/Third_Party/FreeRTOS/Source/portable/GCC/ARM_CM4F/portmacro.h ****  *
  17:Middlewares/Third_Party/FreeRTOS/Source/portable/GCC/ARM_CM4F/portmacro.h ****  * THE SOFTWARE IS PROVIDED "AS IS", WITHOUT WARRANTY OF ANY KIND, EXPRESS OR
  18:Middlewares/Third_Party/FreeRTOS/Source/portable/GCC/ARM_CM4F/portmacro.h ****  * IMPLIED, INCLUDING BUT NOT LIMITED TO THE WARRANTIES OF MERCHANTABILITY, FITNESS
  19:Middlewares/Third_Party/FreeRTOS/Source/portable/GCC/ARM_CM4F/portmacro.h ****  * FOR A PARTICULAR PURPOSE AND NONINFRINGEMENT. IN NO EVENT SHALL THE AUTHORS OR
  20:Middlewares/Third_Party/FreeRTOS/Source/portable/GCC/ARM_CM4F/portmacro.h ****  * COPYRIGHT HOLDERS BE LIABLE FOR ANY CLAIM, DAMAGES OR OTHER LIABILITY, WHETHER
  21:Middlewares/Third_Party/FreeRTOS/Source/portable/GCC/ARM_CM4F/portmacro.h ****  * IN AN ACTION OF CONTRACT, TORT OR OTHERWISE, ARISING FROM, OUT OF OR IN
  22:Middlewares/Third_Party/FreeRTOS/Source/portable/GCC/ARM_CM4F/portmacro.h ****  * CONNECTION WITH THE SOFTWARE OR THE USE OR OTHER DEALINGS IN THE SOFTWARE.
  23:Middlewares/Third_Party/FreeRTOS/Source/portable/GCC/ARM_CM4F/portmacro.h ****  *
  24:Middlewares/Third_Party/FreeRTOS/Source/portable/GCC/ARM_CM4F/portmacro.h ****  * https://www.FreeRTOS.org
  25:Middlewares/Third_Party/FreeRTOS/Source/portable/GCC/ARM_CM4F/portmacro.h ****  * https://github.com/FreeRTOS
  26:Middlewares/Third_Party/FreeRTOS/Source/portable/GCC/ARM_CM4F/portmacro.h ****  *
  27:Middlewares/Third_Party/FreeRTOS/Source/portable/GCC/ARM_CM4F/portmacro.h ****  */
  28:Middlewares/Third_Party/FreeRTOS/Source/portable/GCC/ARM_CM4F/portmacro.h **** 
  29:Middlewares/Third_Party/FreeRTOS/Source/portable/GCC/ARM_CM4F/portmacro.h **** 
  30:Middlewares/Third_Party/FreeRTOS/Source/portable/GCC/ARM_CM4F/portmacro.h **** #ifndef PORTMACRO_H
  31:Middlewares/Third_Party/FreeRTOS/Source/portable/GCC/ARM_CM4F/portmacro.h ****     #define PORTMACRO_H
  32:Middlewares/Third_Party/FreeRTOS/Source/portable/GCC/ARM_CM4F/portmacro.h **** 
  33:Middlewares/Third_Party/FreeRTOS/Source/portable/GCC/ARM_CM4F/portmacro.h **** /* *INDENT-OFF* */
  34:Middlewares/Third_Party/FreeRTOS/Source/portable/GCC/ARM_CM4F/portmacro.h **** #ifdef __cplusplus
  35:Middlewares/Third_Party/FreeRTOS/Source/portable/GCC/ARM_CM4F/portmacro.h ****     extern "C" {
  36:Middlewares/Third_Party/FreeRTOS/Source/portable/GCC/ARM_CM4F/portmacro.h **** #endif
  37:Middlewares/Third_Party/FreeRTOS/Source/portable/GCC/ARM_CM4F/portmacro.h **** /* *INDENT-ON* */
ARM GAS  C:\Users\alanl\AppData\Local\Temp\ccySaGgX.s 			page 9


  38:Middlewares/Third_Party/FreeRTOS/Source/portable/GCC/ARM_CM4F/portmacro.h **** 
  39:Middlewares/Third_Party/FreeRTOS/Source/portable/GCC/ARM_CM4F/portmacro.h **** /*-----------------------------------------------------------
  40:Middlewares/Third_Party/FreeRTOS/Source/portable/GCC/ARM_CM4F/portmacro.h ****  * Port specific definitions.
  41:Middlewares/Third_Party/FreeRTOS/Source/portable/GCC/ARM_CM4F/portmacro.h ****  *
  42:Middlewares/Third_Party/FreeRTOS/Source/portable/GCC/ARM_CM4F/portmacro.h ****  * The settings in this file configure FreeRTOS correctly for the
  43:Middlewares/Third_Party/FreeRTOS/Source/portable/GCC/ARM_CM4F/portmacro.h ****  * given hardware and compiler.
  44:Middlewares/Third_Party/FreeRTOS/Source/portable/GCC/ARM_CM4F/portmacro.h ****  *
  45:Middlewares/Third_Party/FreeRTOS/Source/portable/GCC/ARM_CM4F/portmacro.h ****  * These settings should not be altered.
  46:Middlewares/Third_Party/FreeRTOS/Source/portable/GCC/ARM_CM4F/portmacro.h ****  *-----------------------------------------------------------
  47:Middlewares/Third_Party/FreeRTOS/Source/portable/GCC/ARM_CM4F/portmacro.h ****  */
  48:Middlewares/Third_Party/FreeRTOS/Source/portable/GCC/ARM_CM4F/portmacro.h **** 
  49:Middlewares/Third_Party/FreeRTOS/Source/portable/GCC/ARM_CM4F/portmacro.h **** /* Type definitions. */
  50:Middlewares/Third_Party/FreeRTOS/Source/portable/GCC/ARM_CM4F/portmacro.h ****     #define portCHAR          char
  51:Middlewares/Third_Party/FreeRTOS/Source/portable/GCC/ARM_CM4F/portmacro.h ****     #define portFLOAT         float
  52:Middlewares/Third_Party/FreeRTOS/Source/portable/GCC/ARM_CM4F/portmacro.h ****     #define portDOUBLE        double
  53:Middlewares/Third_Party/FreeRTOS/Source/portable/GCC/ARM_CM4F/portmacro.h ****     #define portLONG          long
  54:Middlewares/Third_Party/FreeRTOS/Source/portable/GCC/ARM_CM4F/portmacro.h ****     #define portSHORT         short
  55:Middlewares/Third_Party/FreeRTOS/Source/portable/GCC/ARM_CM4F/portmacro.h ****     #define portSTACK_TYPE    uint32_t
  56:Middlewares/Third_Party/FreeRTOS/Source/portable/GCC/ARM_CM4F/portmacro.h ****     #define portBASE_TYPE     long
  57:Middlewares/Third_Party/FreeRTOS/Source/portable/GCC/ARM_CM4F/portmacro.h **** 
  58:Middlewares/Third_Party/FreeRTOS/Source/portable/GCC/ARM_CM4F/portmacro.h ****     typedef portSTACK_TYPE   StackType_t;
  59:Middlewares/Third_Party/FreeRTOS/Source/portable/GCC/ARM_CM4F/portmacro.h ****     typedef long             BaseType_t;
  60:Middlewares/Third_Party/FreeRTOS/Source/portable/GCC/ARM_CM4F/portmacro.h ****     typedef unsigned long    UBaseType_t;
  61:Middlewares/Third_Party/FreeRTOS/Source/portable/GCC/ARM_CM4F/portmacro.h **** 
  62:Middlewares/Third_Party/FreeRTOS/Source/portable/GCC/ARM_CM4F/portmacro.h ****     #if ( configTICK_TYPE_WIDTH_IN_BITS == TICK_TYPE_WIDTH_16_BITS )
  63:Middlewares/Third_Party/FreeRTOS/Source/portable/GCC/ARM_CM4F/portmacro.h ****         typedef uint16_t     TickType_t;
  64:Middlewares/Third_Party/FreeRTOS/Source/portable/GCC/ARM_CM4F/portmacro.h ****         #define portMAX_DELAY              ( TickType_t ) 0xffff
  65:Middlewares/Third_Party/FreeRTOS/Source/portable/GCC/ARM_CM4F/portmacro.h ****     #elif ( configTICK_TYPE_WIDTH_IN_BITS == TICK_TYPE_WIDTH_32_BITS )
  66:Middlewares/Third_Party/FreeRTOS/Source/portable/GCC/ARM_CM4F/portmacro.h ****         typedef uint32_t     TickType_t;
  67:Middlewares/Third_Party/FreeRTOS/Source/portable/GCC/ARM_CM4F/portmacro.h ****         #define portMAX_DELAY              ( TickType_t ) 0xffffffffUL
  68:Middlewares/Third_Party/FreeRTOS/Source/portable/GCC/ARM_CM4F/portmacro.h **** 
  69:Middlewares/Third_Party/FreeRTOS/Source/portable/GCC/ARM_CM4F/portmacro.h **** /* 32-bit tick type on a 32-bit architecture, so reads of the tick count do
  70:Middlewares/Third_Party/FreeRTOS/Source/portable/GCC/ARM_CM4F/portmacro.h ****  * not need to be guarded with a critical section. */
  71:Middlewares/Third_Party/FreeRTOS/Source/portable/GCC/ARM_CM4F/portmacro.h ****         #define portTICK_TYPE_IS_ATOMIC    1
  72:Middlewares/Third_Party/FreeRTOS/Source/portable/GCC/ARM_CM4F/portmacro.h ****     #elif ( configTICK_TYPE_WIDTH_IN_BITS == TICK_TYPE_WIDTH_64_BITS )
  73:Middlewares/Third_Party/FreeRTOS/Source/portable/GCC/ARM_CM4F/portmacro.h ****         typedef uint64_t     TickType_t;
  74:Middlewares/Third_Party/FreeRTOS/Source/portable/GCC/ARM_CM4F/portmacro.h ****         #define portMAX_DELAY              ( TickType_t ) 0xffffffffffffffffULL
  75:Middlewares/Third_Party/FreeRTOS/Source/portable/GCC/ARM_CM4F/portmacro.h ****     #else
  76:Middlewares/Third_Party/FreeRTOS/Source/portable/GCC/ARM_CM4F/portmacro.h ****         #error configTICK_TYPE_WIDTH_IN_BITS set to unsupported tick type width.
  77:Middlewares/Third_Party/FreeRTOS/Source/portable/GCC/ARM_CM4F/portmacro.h ****     #endif
  78:Middlewares/Third_Party/FreeRTOS/Source/portable/GCC/ARM_CM4F/portmacro.h **** /*-----------------------------------------------------------*/
  79:Middlewares/Third_Party/FreeRTOS/Source/portable/GCC/ARM_CM4F/portmacro.h **** 
  80:Middlewares/Third_Party/FreeRTOS/Source/portable/GCC/ARM_CM4F/portmacro.h **** /* Architecture specifics. */
  81:Middlewares/Third_Party/FreeRTOS/Source/portable/GCC/ARM_CM4F/portmacro.h ****     #define portSTACK_GROWTH      ( -1 )
  82:Middlewares/Third_Party/FreeRTOS/Source/portable/GCC/ARM_CM4F/portmacro.h ****     #define portTICK_PERIOD_MS    ( ( TickType_t ) 1000 / configTICK_RATE_HZ )
  83:Middlewares/Third_Party/FreeRTOS/Source/portable/GCC/ARM_CM4F/portmacro.h ****     #define portBYTE_ALIGNMENT    8
  84:Middlewares/Third_Party/FreeRTOS/Source/portable/GCC/ARM_CM4F/portmacro.h ****     #define portDONT_DISCARD      __attribute__( ( used ) )
  85:Middlewares/Third_Party/FreeRTOS/Source/portable/GCC/ARM_CM4F/portmacro.h **** /*-----------------------------------------------------------*/
  86:Middlewares/Third_Party/FreeRTOS/Source/portable/GCC/ARM_CM4F/portmacro.h **** 
  87:Middlewares/Third_Party/FreeRTOS/Source/portable/GCC/ARM_CM4F/portmacro.h **** /* Scheduler utilities. */
  88:Middlewares/Third_Party/FreeRTOS/Source/portable/GCC/ARM_CM4F/portmacro.h ****     #define portYIELD()                                 \
  89:Middlewares/Third_Party/FreeRTOS/Source/portable/GCC/ARM_CM4F/portmacro.h ****     {                                                   \
  90:Middlewares/Third_Party/FreeRTOS/Source/portable/GCC/ARM_CM4F/portmacro.h ****         /* Set a PendSV to request a context switch. */ \
  91:Middlewares/Third_Party/FreeRTOS/Source/portable/GCC/ARM_CM4F/portmacro.h ****         portNVIC_INT_CTRL_REG = portNVIC_PENDSVSET_BIT; \
  92:Middlewares/Third_Party/FreeRTOS/Source/portable/GCC/ARM_CM4F/portmacro.h ****                                                         \
  93:Middlewares/Third_Party/FreeRTOS/Source/portable/GCC/ARM_CM4F/portmacro.h ****         /* Barriers are normally not required but do ensure the code is completely \
  94:Middlewares/Third_Party/FreeRTOS/Source/portable/GCC/ARM_CM4F/portmacro.h ****          * within the specified behaviour for the architecture. */ \
ARM GAS  C:\Users\alanl\AppData\Local\Temp\ccySaGgX.s 			page 10


  95:Middlewares/Third_Party/FreeRTOS/Source/portable/GCC/ARM_CM4F/portmacro.h ****         __asm volatile ( "dsb" ::: "memory" );                     \
  96:Middlewares/Third_Party/FreeRTOS/Source/portable/GCC/ARM_CM4F/portmacro.h ****         __asm volatile ( "isb" );                                  \
  97:Middlewares/Third_Party/FreeRTOS/Source/portable/GCC/ARM_CM4F/portmacro.h ****     }
  98:Middlewares/Third_Party/FreeRTOS/Source/portable/GCC/ARM_CM4F/portmacro.h **** 
  99:Middlewares/Third_Party/FreeRTOS/Source/portable/GCC/ARM_CM4F/portmacro.h ****     #define portNVIC_INT_CTRL_REG     ( *( ( volatile uint32_t * ) 0xe000ed04 ) )
 100:Middlewares/Third_Party/FreeRTOS/Source/portable/GCC/ARM_CM4F/portmacro.h ****     #define portNVIC_PENDSVSET_BIT    ( 1UL << 28UL )
 101:Middlewares/Third_Party/FreeRTOS/Source/portable/GCC/ARM_CM4F/portmacro.h ****     #define portEND_SWITCHING_ISR( xSwitchRequired )    do { if( xSwitchRequired != pdFALSE ) portY
 102:Middlewares/Third_Party/FreeRTOS/Source/portable/GCC/ARM_CM4F/portmacro.h ****     #define portYIELD_FROM_ISR( x )                     portEND_SWITCHING_ISR( x )
 103:Middlewares/Third_Party/FreeRTOS/Source/portable/GCC/ARM_CM4F/portmacro.h **** /*-----------------------------------------------------------*/
 104:Middlewares/Third_Party/FreeRTOS/Source/portable/GCC/ARM_CM4F/portmacro.h **** 
 105:Middlewares/Third_Party/FreeRTOS/Source/portable/GCC/ARM_CM4F/portmacro.h **** /* Critical section management. */
 106:Middlewares/Third_Party/FreeRTOS/Source/portable/GCC/ARM_CM4F/portmacro.h ****     extern void vPortEnterCritical( void );
 107:Middlewares/Third_Party/FreeRTOS/Source/portable/GCC/ARM_CM4F/portmacro.h ****     extern void vPortExitCritical( void );
 108:Middlewares/Third_Party/FreeRTOS/Source/portable/GCC/ARM_CM4F/portmacro.h ****     #define portSET_INTERRUPT_MASK_FROM_ISR()         ulPortRaiseBASEPRI()
 109:Middlewares/Third_Party/FreeRTOS/Source/portable/GCC/ARM_CM4F/portmacro.h ****     #define portCLEAR_INTERRUPT_MASK_FROM_ISR( x )    vPortSetBASEPRI( x )
 110:Middlewares/Third_Party/FreeRTOS/Source/portable/GCC/ARM_CM4F/portmacro.h ****     #define portDISABLE_INTERRUPTS()                  vPortRaiseBASEPRI()
 111:Middlewares/Third_Party/FreeRTOS/Source/portable/GCC/ARM_CM4F/portmacro.h ****     #define portENABLE_INTERRUPTS()                   vPortSetBASEPRI( 0 )
 112:Middlewares/Third_Party/FreeRTOS/Source/portable/GCC/ARM_CM4F/portmacro.h ****     #define portENTER_CRITICAL()                      vPortEnterCritical()
 113:Middlewares/Third_Party/FreeRTOS/Source/portable/GCC/ARM_CM4F/portmacro.h ****     #define portEXIT_CRITICAL()                       vPortExitCritical()
 114:Middlewares/Third_Party/FreeRTOS/Source/portable/GCC/ARM_CM4F/portmacro.h **** 
 115:Middlewares/Third_Party/FreeRTOS/Source/portable/GCC/ARM_CM4F/portmacro.h **** /*-----------------------------------------------------------*/
 116:Middlewares/Third_Party/FreeRTOS/Source/portable/GCC/ARM_CM4F/portmacro.h **** 
 117:Middlewares/Third_Party/FreeRTOS/Source/portable/GCC/ARM_CM4F/portmacro.h **** /* Task function macros as described on the FreeRTOS.org WEB site.  These are
 118:Middlewares/Third_Party/FreeRTOS/Source/portable/GCC/ARM_CM4F/portmacro.h ****  * not necessary for to use this port.  They are defined so the common demo files
 119:Middlewares/Third_Party/FreeRTOS/Source/portable/GCC/ARM_CM4F/portmacro.h ****  * (which build with all the ports) will build. */
 120:Middlewares/Third_Party/FreeRTOS/Source/portable/GCC/ARM_CM4F/portmacro.h ****     #define portTASK_FUNCTION_PROTO( vFunction, pvParameters )    void vFunction( void * pvParamete
 121:Middlewares/Third_Party/FreeRTOS/Source/portable/GCC/ARM_CM4F/portmacro.h ****     #define portTASK_FUNCTION( vFunction, pvParameters )          void vFunction( void * pvParamete
 122:Middlewares/Third_Party/FreeRTOS/Source/portable/GCC/ARM_CM4F/portmacro.h **** /*-----------------------------------------------------------*/
 123:Middlewares/Third_Party/FreeRTOS/Source/portable/GCC/ARM_CM4F/portmacro.h **** 
 124:Middlewares/Third_Party/FreeRTOS/Source/portable/GCC/ARM_CM4F/portmacro.h **** /* Tickless idle/low power functionality. */
 125:Middlewares/Third_Party/FreeRTOS/Source/portable/GCC/ARM_CM4F/portmacro.h ****     #ifndef portSUPPRESS_TICKS_AND_SLEEP
 126:Middlewares/Third_Party/FreeRTOS/Source/portable/GCC/ARM_CM4F/portmacro.h ****         extern void vPortSuppressTicksAndSleep( TickType_t xExpectedIdleTime );
 127:Middlewares/Third_Party/FreeRTOS/Source/portable/GCC/ARM_CM4F/portmacro.h ****         #define portSUPPRESS_TICKS_AND_SLEEP( xExpectedIdleTime )    vPortSuppressTicksAndSleep( xE
 128:Middlewares/Third_Party/FreeRTOS/Source/portable/GCC/ARM_CM4F/portmacro.h ****     #endif
 129:Middlewares/Third_Party/FreeRTOS/Source/portable/GCC/ARM_CM4F/portmacro.h **** /*-----------------------------------------------------------*/
 130:Middlewares/Third_Party/FreeRTOS/Source/portable/GCC/ARM_CM4F/portmacro.h **** 
 131:Middlewares/Third_Party/FreeRTOS/Source/portable/GCC/ARM_CM4F/portmacro.h **** /* Architecture specific optimisations. */
 132:Middlewares/Third_Party/FreeRTOS/Source/portable/GCC/ARM_CM4F/portmacro.h ****     #ifndef configUSE_PORT_OPTIMISED_TASK_SELECTION
 133:Middlewares/Third_Party/FreeRTOS/Source/portable/GCC/ARM_CM4F/portmacro.h ****         #define configUSE_PORT_OPTIMISED_TASK_SELECTION    1
 134:Middlewares/Third_Party/FreeRTOS/Source/portable/GCC/ARM_CM4F/portmacro.h ****     #endif
 135:Middlewares/Third_Party/FreeRTOS/Source/portable/GCC/ARM_CM4F/portmacro.h **** 
 136:Middlewares/Third_Party/FreeRTOS/Source/portable/GCC/ARM_CM4F/portmacro.h ****     #if configUSE_PORT_OPTIMISED_TASK_SELECTION == 1
 137:Middlewares/Third_Party/FreeRTOS/Source/portable/GCC/ARM_CM4F/portmacro.h **** 
 138:Middlewares/Third_Party/FreeRTOS/Source/portable/GCC/ARM_CM4F/portmacro.h **** /* Generic helper function. */
 139:Middlewares/Third_Party/FreeRTOS/Source/portable/GCC/ARM_CM4F/portmacro.h ****         __attribute__( ( always_inline ) ) static inline uint8_t ucPortCountLeadingZeros( uint32_t 
 140:Middlewares/Third_Party/FreeRTOS/Source/portable/GCC/ARM_CM4F/portmacro.h ****         {
 141:Middlewares/Third_Party/FreeRTOS/Source/portable/GCC/ARM_CM4F/portmacro.h ****             uint8_t ucReturn;
 142:Middlewares/Third_Party/FreeRTOS/Source/portable/GCC/ARM_CM4F/portmacro.h **** 
 143:Middlewares/Third_Party/FreeRTOS/Source/portable/GCC/ARM_CM4F/portmacro.h ****             __asm volatile ( "clz %0, %1" : "=r" ( ucReturn ) : "r" ( ulBitmap ) : "memory" );
 144:Middlewares/Third_Party/FreeRTOS/Source/portable/GCC/ARM_CM4F/portmacro.h **** 
 145:Middlewares/Third_Party/FreeRTOS/Source/portable/GCC/ARM_CM4F/portmacro.h ****             return ucReturn;
 146:Middlewares/Third_Party/FreeRTOS/Source/portable/GCC/ARM_CM4F/portmacro.h ****         }
 147:Middlewares/Third_Party/FreeRTOS/Source/portable/GCC/ARM_CM4F/portmacro.h **** 
 148:Middlewares/Third_Party/FreeRTOS/Source/portable/GCC/ARM_CM4F/portmacro.h **** /* Check the configuration. */
 149:Middlewares/Third_Party/FreeRTOS/Source/portable/GCC/ARM_CM4F/portmacro.h ****         #if ( configMAX_PRIORITIES > 32 )
 150:Middlewares/Third_Party/FreeRTOS/Source/portable/GCC/ARM_CM4F/portmacro.h ****             #error configUSE_PORT_OPTIMISED_TASK_SELECTION can only be set to 1 when configMAX_PRIO
 151:Middlewares/Third_Party/FreeRTOS/Source/portable/GCC/ARM_CM4F/portmacro.h ****         #endif
ARM GAS  C:\Users\alanl\AppData\Local\Temp\ccySaGgX.s 			page 11


 152:Middlewares/Third_Party/FreeRTOS/Source/portable/GCC/ARM_CM4F/portmacro.h **** 
 153:Middlewares/Third_Party/FreeRTOS/Source/portable/GCC/ARM_CM4F/portmacro.h **** /* Store/clear the ready priorities in a bit map. */
 154:Middlewares/Third_Party/FreeRTOS/Source/portable/GCC/ARM_CM4F/portmacro.h ****         #define portRECORD_READY_PRIORITY( uxPriority, uxReadyPriorities )    ( uxReadyPriorities )
 155:Middlewares/Third_Party/FreeRTOS/Source/portable/GCC/ARM_CM4F/portmacro.h ****         #define portRESET_READY_PRIORITY( uxPriority, uxReadyPriorities )     ( uxReadyPriorities )
 156:Middlewares/Third_Party/FreeRTOS/Source/portable/GCC/ARM_CM4F/portmacro.h **** 
 157:Middlewares/Third_Party/FreeRTOS/Source/portable/GCC/ARM_CM4F/portmacro.h **** /*-----------------------------------------------------------*/
 158:Middlewares/Third_Party/FreeRTOS/Source/portable/GCC/ARM_CM4F/portmacro.h **** 
 159:Middlewares/Third_Party/FreeRTOS/Source/portable/GCC/ARM_CM4F/portmacro.h ****         #define portGET_HIGHEST_PRIORITY( uxTopPriority, uxReadyPriorities )    uxTopPriority = ( 3
 160:Middlewares/Third_Party/FreeRTOS/Source/portable/GCC/ARM_CM4F/portmacro.h **** 
 161:Middlewares/Third_Party/FreeRTOS/Source/portable/GCC/ARM_CM4F/portmacro.h ****     #endif /* configUSE_PORT_OPTIMISED_TASK_SELECTION */
 162:Middlewares/Third_Party/FreeRTOS/Source/portable/GCC/ARM_CM4F/portmacro.h **** 
 163:Middlewares/Third_Party/FreeRTOS/Source/portable/GCC/ARM_CM4F/portmacro.h **** /*-----------------------------------------------------------*/
 164:Middlewares/Third_Party/FreeRTOS/Source/portable/GCC/ARM_CM4F/portmacro.h **** 
 165:Middlewares/Third_Party/FreeRTOS/Source/portable/GCC/ARM_CM4F/portmacro.h ****     #ifdef configASSERT
 166:Middlewares/Third_Party/FreeRTOS/Source/portable/GCC/ARM_CM4F/portmacro.h ****         void vPortValidateInterruptPriority( void );
 167:Middlewares/Third_Party/FreeRTOS/Source/portable/GCC/ARM_CM4F/portmacro.h ****         #define portASSERT_IF_INTERRUPT_PRIORITY_INVALID()    vPortValidateInterruptPriority()
 168:Middlewares/Third_Party/FreeRTOS/Source/portable/GCC/ARM_CM4F/portmacro.h ****     #endif
 169:Middlewares/Third_Party/FreeRTOS/Source/portable/GCC/ARM_CM4F/portmacro.h **** 
 170:Middlewares/Third_Party/FreeRTOS/Source/portable/GCC/ARM_CM4F/portmacro.h **** /* portNOP() is not required by this port. */
 171:Middlewares/Third_Party/FreeRTOS/Source/portable/GCC/ARM_CM4F/portmacro.h ****     #define portNOP()
 172:Middlewares/Third_Party/FreeRTOS/Source/portable/GCC/ARM_CM4F/portmacro.h **** 
 173:Middlewares/Third_Party/FreeRTOS/Source/portable/GCC/ARM_CM4F/portmacro.h ****     #define portINLINE              __inline
 174:Middlewares/Third_Party/FreeRTOS/Source/portable/GCC/ARM_CM4F/portmacro.h **** 
 175:Middlewares/Third_Party/FreeRTOS/Source/portable/GCC/ARM_CM4F/portmacro.h ****     #ifndef portFORCE_INLINE
 176:Middlewares/Third_Party/FreeRTOS/Source/portable/GCC/ARM_CM4F/portmacro.h ****         #define portFORCE_INLINE    inline __attribute__( ( always_inline ) )
 177:Middlewares/Third_Party/FreeRTOS/Source/portable/GCC/ARM_CM4F/portmacro.h ****     #endif
 178:Middlewares/Third_Party/FreeRTOS/Source/portable/GCC/ARM_CM4F/portmacro.h **** 
 179:Middlewares/Third_Party/FreeRTOS/Source/portable/GCC/ARM_CM4F/portmacro.h ****     portFORCE_INLINE static BaseType_t xPortIsInsideInterrupt( void )
 180:Middlewares/Third_Party/FreeRTOS/Source/portable/GCC/ARM_CM4F/portmacro.h ****     {
 181:Middlewares/Third_Party/FreeRTOS/Source/portable/GCC/ARM_CM4F/portmacro.h ****         uint32_t ulCurrentInterrupt;
 182:Middlewares/Third_Party/FreeRTOS/Source/portable/GCC/ARM_CM4F/portmacro.h ****         BaseType_t xReturn;
 183:Middlewares/Third_Party/FreeRTOS/Source/portable/GCC/ARM_CM4F/portmacro.h **** 
 184:Middlewares/Third_Party/FreeRTOS/Source/portable/GCC/ARM_CM4F/portmacro.h ****         /* Obtain the number of the currently executing interrupt. */
 185:Middlewares/Third_Party/FreeRTOS/Source/portable/GCC/ARM_CM4F/portmacro.h ****         __asm volatile ( "mrs %0, ipsr" : "=r" ( ulCurrentInterrupt )::"memory" );
 186:Middlewares/Third_Party/FreeRTOS/Source/portable/GCC/ARM_CM4F/portmacro.h **** 
 187:Middlewares/Third_Party/FreeRTOS/Source/portable/GCC/ARM_CM4F/portmacro.h ****         if( ulCurrentInterrupt == 0 )
 188:Middlewares/Third_Party/FreeRTOS/Source/portable/GCC/ARM_CM4F/portmacro.h ****         {
 189:Middlewares/Third_Party/FreeRTOS/Source/portable/GCC/ARM_CM4F/portmacro.h ****             xReturn = pdFALSE;
 190:Middlewares/Third_Party/FreeRTOS/Source/portable/GCC/ARM_CM4F/portmacro.h ****         }
 191:Middlewares/Third_Party/FreeRTOS/Source/portable/GCC/ARM_CM4F/portmacro.h ****         else
 192:Middlewares/Third_Party/FreeRTOS/Source/portable/GCC/ARM_CM4F/portmacro.h ****         {
 193:Middlewares/Third_Party/FreeRTOS/Source/portable/GCC/ARM_CM4F/portmacro.h ****             xReturn = pdTRUE;
 194:Middlewares/Third_Party/FreeRTOS/Source/portable/GCC/ARM_CM4F/portmacro.h ****         }
 195:Middlewares/Third_Party/FreeRTOS/Source/portable/GCC/ARM_CM4F/portmacro.h **** 
 196:Middlewares/Third_Party/FreeRTOS/Source/portable/GCC/ARM_CM4F/portmacro.h ****         return xReturn;
 197:Middlewares/Third_Party/FreeRTOS/Source/portable/GCC/ARM_CM4F/portmacro.h ****     }
 198:Middlewares/Third_Party/FreeRTOS/Source/portable/GCC/ARM_CM4F/portmacro.h **** 
 199:Middlewares/Third_Party/FreeRTOS/Source/portable/GCC/ARM_CM4F/portmacro.h **** /*-----------------------------------------------------------*/
 200:Middlewares/Third_Party/FreeRTOS/Source/portable/GCC/ARM_CM4F/portmacro.h **** 
 201:Middlewares/Third_Party/FreeRTOS/Source/portable/GCC/ARM_CM4F/portmacro.h ****     portFORCE_INLINE static void vPortRaiseBASEPRI( void )
 202:Middlewares/Third_Party/FreeRTOS/Source/portable/GCC/ARM_CM4F/portmacro.h ****     {
 203:Middlewares/Third_Party/FreeRTOS/Source/portable/GCC/ARM_CM4F/portmacro.h ****         uint32_t ulNewBASEPRI;
 204:Middlewares/Third_Party/FreeRTOS/Source/portable/GCC/ARM_CM4F/portmacro.h **** 
 205:Middlewares/Third_Party/FreeRTOS/Source/portable/GCC/ARM_CM4F/portmacro.h ****         __asm volatile
 143              		.loc 2 205 9
 144              		.syntax unified
 145              	@ 205 "Middlewares/Third_Party/FreeRTOS/Source/portable/GCC/ARM_CM4F/portmacro.h" 1
ARM GAS  C:\Users\alanl\AppData\Local\Temp\ccySaGgX.s 			page 12


 146 0060 4FF05003 		   mov r3, #80                                              
 147 0064 83F31188 	   msr basepri, r3                                         
 148 0068 BFF36F8F 	   isb                                                     
 149 006c BFF34F8F 	   dsb                                                     
 150              	
 151              	@ 0 "" 2
 152              		.thumb
 153              		.syntax unified
 154 0070 3B61     		str	r3, [r7, #16]
 206:Middlewares/Third_Party/FreeRTOS/Source/portable/GCC/ARM_CM4F/portmacro.h ****         (
 207:Middlewares/Third_Party/FreeRTOS/Source/portable/GCC/ARM_CM4F/portmacro.h ****             "   mov %0, %1                                              \n"\
 208:Middlewares/Third_Party/FreeRTOS/Source/portable/GCC/ARM_CM4F/portmacro.h ****             "   msr basepri, %0                                         \n"\
 209:Middlewares/Third_Party/FreeRTOS/Source/portable/GCC/ARM_CM4F/portmacro.h ****             "   isb                                                     \n"\
 210:Middlewares/Third_Party/FreeRTOS/Source/portable/GCC/ARM_CM4F/portmacro.h ****             "   dsb                                                     \n"\
 211:Middlewares/Third_Party/FreeRTOS/Source/portable/GCC/ARM_CM4F/portmacro.h ****             : "=r" ( ulNewBASEPRI ) : "i" ( configMAX_SYSCALL_INTERRUPT_PRIORITY ) : "memory"
 212:Middlewares/Third_Party/FreeRTOS/Source/portable/GCC/ARM_CM4F/portmacro.h ****         );
 213:Middlewares/Third_Party/FreeRTOS/Source/portable/GCC/ARM_CM4F/portmacro.h ****     }
 155              		.loc 2 213 5
 156 0072 00BF     		nop
 157              	.L5:
 158              	.LBE43:
 159              	.LBE42:
 160              		.loc 1 281 9
 161 0074 00BF     		nop
 162 0076 FDE7     		b	.L5
 163              	.L4:
 282:Middlewares/Third_Party/FreeRTOS/Source/timers.c ****         return xReturn;
 164              		.loc 1 282 16
 165 0078 7B69     		ldr	r3, [r7, #20]
 283:Middlewares/Third_Party/FreeRTOS/Source/timers.c ****     }
 166              		.loc 1 283 5
 167 007a 1846     		mov	r0, r3
 168 007c 1837     		adds	r7, r7, #24
 169              	.LCFI3:
 170              		.cfi_def_cfa_offset 8
 171 007e BD46     		mov	sp, r7
 172              	.LCFI4:
 173              		.cfi_def_cfa_register 13
 174              		@ sp needed
 175 0080 80BD     		pop	{r7, pc}
 176              	.L8:
 177 0082 00BF     		.align	2
 178              	.L7:
 179 0084 00000000 		.word	xTimerQueue
 180 0088 00000000 		.word	.LC0
 181 008c 00000000 		.word	prvTimerTask
 182 0090 00000000 		.word	xTimerTaskHandle
 183              		.cfi_endproc
 184              	.LFE4:
 186              		.section	.text.xTimerCreate,"ax",%progbits
 187              		.align	1
 188              		.global	xTimerCreate
 189              		.syntax unified
 190              		.thumb
 191              		.thumb_func
 193              	xTimerCreate:
 194              	.LFB5:
ARM GAS  C:\Users\alanl\AppData\Local\Temp\ccySaGgX.s 			page 13


 284:Middlewares/Third_Party/FreeRTOS/Source/timers.c **** /*-----------------------------------------------------------*/
 285:Middlewares/Third_Party/FreeRTOS/Source/timers.c **** 
 286:Middlewares/Third_Party/FreeRTOS/Source/timers.c ****     #if ( configSUPPORT_DYNAMIC_ALLOCATION == 1 )
 287:Middlewares/Third_Party/FreeRTOS/Source/timers.c **** 
 288:Middlewares/Third_Party/FreeRTOS/Source/timers.c ****         TimerHandle_t xTimerCreate( const char * const pcTimerName, /*lint !e971 Unqualified char t
 289:Middlewares/Third_Party/FreeRTOS/Source/timers.c ****                                     const TickType_t xTimerPeriodInTicks,
 290:Middlewares/Third_Party/FreeRTOS/Source/timers.c ****                                     const BaseType_t xAutoReload,
 291:Middlewares/Third_Party/FreeRTOS/Source/timers.c ****                                     void * const pvTimerID,
 292:Middlewares/Third_Party/FreeRTOS/Source/timers.c ****                                     TimerCallbackFunction_t pxCallbackFunction )
 293:Middlewares/Third_Party/FreeRTOS/Source/timers.c ****         {
 195              		.loc 1 293 9
 196              		.cfi_startproc
 197              		@ args = 4, pretend = 0, frame = 24
 198              		@ frame_needed = 1, uses_anonymous_args = 0
 199 0000 80B5     		push	{r7, lr}
 200              	.LCFI5:
 201              		.cfi_def_cfa_offset 8
 202              		.cfi_offset 7, -8
 203              		.cfi_offset 14, -4
 204 0002 88B0     		sub	sp, sp, #32
 205              	.LCFI6:
 206              		.cfi_def_cfa_offset 40
 207 0004 02AF     		add	r7, sp, #8
 208              	.LCFI7:
 209              		.cfi_def_cfa 7, 32
 210 0006 F860     		str	r0, [r7, #12]
 211 0008 B960     		str	r1, [r7, #8]
 212 000a 7A60     		str	r2, [r7, #4]
 213 000c 3B60     		str	r3, [r7]
 294:Middlewares/Third_Party/FreeRTOS/Source/timers.c ****             Timer_t * pxNewTimer;
 295:Middlewares/Third_Party/FreeRTOS/Source/timers.c **** 
 296:Middlewares/Third_Party/FreeRTOS/Source/timers.c ****             pxNewTimer = ( Timer_t * ) pvPortMalloc( sizeof( Timer_t ) ); /*lint !e9087 !e9079 All 
 214              		.loc 1 296 40
 215 000e 2C20     		movs	r0, #44
 216 0010 FFF7FEFF 		bl	pvPortMalloc
 217 0014 7861     		str	r0, [r7, #20]
 297:Middlewares/Third_Party/FreeRTOS/Source/timers.c **** 
 298:Middlewares/Third_Party/FreeRTOS/Source/timers.c ****             if( pxNewTimer != NULL )
 218              		.loc 1 298 15
 219 0016 7B69     		ldr	r3, [r7, #20]
 220 0018 002B     		cmp	r3, #0
 221 001a 0DD0     		beq	.L10
 299:Middlewares/Third_Party/FreeRTOS/Source/timers.c ****             {
 300:Middlewares/Third_Party/FreeRTOS/Source/timers.c ****                 /* Status is thus far zero as the timer is not created statically
 301:Middlewares/Third_Party/FreeRTOS/Source/timers.c ****                  * and has not been started.  The auto-reload bit may get set in
 302:Middlewares/Third_Party/FreeRTOS/Source/timers.c ****                  * prvInitialiseNewTimer. */
 303:Middlewares/Third_Party/FreeRTOS/Source/timers.c ****                 pxNewTimer->ucStatus = 0x00;
 222              		.loc 1 303 38
 223 001c 7B69     		ldr	r3, [r7, #20]
 224 001e 0022     		movs	r2, #0
 225 0020 83F82820 		strb	r2, [r3, #40]
 304:Middlewares/Third_Party/FreeRTOS/Source/timers.c ****                 prvInitialiseNewTimer( pcTimerName, xTimerPeriodInTicks, xAutoReload, pvTimerID, px
 226              		.loc 1 304 17
 227 0024 7B69     		ldr	r3, [r7, #20]
 228 0026 0193     		str	r3, [sp, #4]
 229 0028 3B6A     		ldr	r3, [r7, #32]
 230 002a 0093     		str	r3, [sp]
ARM GAS  C:\Users\alanl\AppData\Local\Temp\ccySaGgX.s 			page 14


 231 002c 3B68     		ldr	r3, [r7]
 232 002e 7A68     		ldr	r2, [r7, #4]
 233 0030 B968     		ldr	r1, [r7, #8]
 234 0032 F868     		ldr	r0, [r7, #12]
 235 0034 FFF7FEFF 		bl	prvInitialiseNewTimer
 236              	.L10:
 305:Middlewares/Third_Party/FreeRTOS/Source/timers.c ****             }
 306:Middlewares/Third_Party/FreeRTOS/Source/timers.c **** 
 307:Middlewares/Third_Party/FreeRTOS/Source/timers.c ****             return pxNewTimer;
 237              		.loc 1 307 20
 238 0038 7B69     		ldr	r3, [r7, #20]
 308:Middlewares/Third_Party/FreeRTOS/Source/timers.c ****         }
 239              		.loc 1 308 9
 240 003a 1846     		mov	r0, r3
 241 003c 1837     		adds	r7, r7, #24
 242              	.LCFI8:
 243              		.cfi_def_cfa_offset 8
 244 003e BD46     		mov	sp, r7
 245              	.LCFI9:
 246              		.cfi_def_cfa_register 13
 247              		@ sp needed
 248 0040 80BD     		pop	{r7, pc}
 249              		.cfi_endproc
 250              	.LFE5:
 252              		.section	.text.xTimerCreateStatic,"ax",%progbits
 253              		.align	1
 254              		.global	xTimerCreateStatic
 255              		.syntax unified
 256              		.thumb
 257              		.thumb_func
 259              	xTimerCreateStatic:
 260              	.LFB6:
 309:Middlewares/Third_Party/FreeRTOS/Source/timers.c **** 
 310:Middlewares/Third_Party/FreeRTOS/Source/timers.c ****     #endif /* configSUPPORT_DYNAMIC_ALLOCATION */
 311:Middlewares/Third_Party/FreeRTOS/Source/timers.c **** /*-----------------------------------------------------------*/
 312:Middlewares/Third_Party/FreeRTOS/Source/timers.c **** 
 313:Middlewares/Third_Party/FreeRTOS/Source/timers.c ****     #if ( configSUPPORT_STATIC_ALLOCATION == 1 )
 314:Middlewares/Third_Party/FreeRTOS/Source/timers.c **** 
 315:Middlewares/Third_Party/FreeRTOS/Source/timers.c ****         TimerHandle_t xTimerCreateStatic( const char * const pcTimerName, /*lint !e971 Unqualified 
 316:Middlewares/Third_Party/FreeRTOS/Source/timers.c ****                                           const TickType_t xTimerPeriodInTicks,
 317:Middlewares/Third_Party/FreeRTOS/Source/timers.c ****                                           const BaseType_t xAutoReload,
 318:Middlewares/Third_Party/FreeRTOS/Source/timers.c ****                                           void * const pvTimerID,
 319:Middlewares/Third_Party/FreeRTOS/Source/timers.c ****                                           TimerCallbackFunction_t pxCallbackFunction,
 320:Middlewares/Third_Party/FreeRTOS/Source/timers.c ****                                           StaticTimer_t * pxTimerBuffer )
 321:Middlewares/Third_Party/FreeRTOS/Source/timers.c ****         {
 261              		.loc 1 321 9
 262              		.cfi_startproc
 263              		@ args = 8, pretend = 0, frame = 32
 264              		@ frame_needed = 1, uses_anonymous_args = 0
 265 0000 80B5     		push	{r7, lr}
 266              	.LCFI10:
 267              		.cfi_def_cfa_offset 8
 268              		.cfi_offset 7, -8
 269              		.cfi_offset 14, -4
 270 0002 8AB0     		sub	sp, sp, #40
 271              	.LCFI11:
 272              		.cfi_def_cfa_offset 48
ARM GAS  C:\Users\alanl\AppData\Local\Temp\ccySaGgX.s 			page 15


 273 0004 02AF     		add	r7, sp, #8
 274              	.LCFI12:
 275              		.cfi_def_cfa 7, 40
 276 0006 F860     		str	r0, [r7, #12]
 277 0008 B960     		str	r1, [r7, #8]
 278 000a 7A60     		str	r2, [r7, #4]
 279 000c 3B60     		str	r3, [r7]
 280              	.LBB44:
 322:Middlewares/Third_Party/FreeRTOS/Source/timers.c ****             Timer_t * pxNewTimer;
 323:Middlewares/Third_Party/FreeRTOS/Source/timers.c **** 
 324:Middlewares/Third_Party/FreeRTOS/Source/timers.c ****             #if ( configASSERT_DEFINED == 1 )
 325:Middlewares/Third_Party/FreeRTOS/Source/timers.c ****             {
 326:Middlewares/Third_Party/FreeRTOS/Source/timers.c ****                 /* Sanity check that the size of the structure used to declare a
 327:Middlewares/Third_Party/FreeRTOS/Source/timers.c ****                  * variable of type StaticTimer_t equals the size of the real timer
 328:Middlewares/Third_Party/FreeRTOS/Source/timers.c ****                  * structure. */
 329:Middlewares/Third_Party/FreeRTOS/Source/timers.c ****                 volatile size_t xSize = sizeof( StaticTimer_t );
 281              		.loc 1 329 33
 282 000e 2C23     		movs	r3, #44
 283 0010 3B61     		str	r3, [r7, #16]
 330:Middlewares/Third_Party/FreeRTOS/Source/timers.c ****                 configASSERT( xSize == sizeof( Timer_t ) );
 284              		.loc 1 330 17
 285 0012 3B69     		ldr	r3, [r7, #16]
 286 0014 2C2B     		cmp	r3, #44
 287 0016 0BD0     		beq	.L13
 288              	.LBB45:
 289              	.LBB46:
 205:Middlewares/Third_Party/FreeRTOS/Source/portable/GCC/ARM_CM4F/portmacro.h ****         (
 290              		.loc 2 205 9
 291              		.syntax unified
 292              	@ 205 "Middlewares/Third_Party/FreeRTOS/Source/portable/GCC/ARM_CM4F/portmacro.h" 1
 293 0018 4FF05003 		   mov r3, #80                                              
 294 001c 83F31188 	   msr basepri, r3                                         
 295 0020 BFF36F8F 	   isb                                                     
 296 0024 BFF34F8F 	   dsb                                                     
 297              	
 298              	@ 0 "" 2
 299              		.thumb
 300              		.syntax unified
 301 0028 BB61     		str	r3, [r7, #24]
 302              		.loc 2 213 5
 303 002a 00BF     		nop
 304              	.L14:
 305              	.LBE46:
 306              	.LBE45:
 307              		.loc 1 330 17
 308 002c 00BF     		nop
 309 002e FDE7     		b	.L14
 310              	.L13:
 331:Middlewares/Third_Party/FreeRTOS/Source/timers.c ****                 ( void ) xSize; /* Keeps lint quiet when configASSERT() is not defined. */
 311              		.loc 1 331 17
 312 0030 3B69     		ldr	r3, [r7, #16]
 313              	.LBE44:
 332:Middlewares/Third_Party/FreeRTOS/Source/timers.c ****             }
 333:Middlewares/Third_Party/FreeRTOS/Source/timers.c ****             #endif /* configASSERT_DEFINED */
 334:Middlewares/Third_Party/FreeRTOS/Source/timers.c **** 
 335:Middlewares/Third_Party/FreeRTOS/Source/timers.c ****             /* A pointer to a StaticTimer_t structure MUST be provided, use it. */
 336:Middlewares/Third_Party/FreeRTOS/Source/timers.c ****             configASSERT( pxTimerBuffer );
ARM GAS  C:\Users\alanl\AppData\Local\Temp\ccySaGgX.s 			page 16


 314              		.loc 1 336 13
 315 0032 FB6A     		ldr	r3, [r7, #44]
 316 0034 002B     		cmp	r3, #0
 317 0036 0BD1     		bne	.L15
 318              	.LBB47:
 319              	.LBB48:
 205:Middlewares/Third_Party/FreeRTOS/Source/portable/GCC/ARM_CM4F/portmacro.h ****         (
 320              		.loc 2 205 9
 321              		.syntax unified
 322              	@ 205 "Middlewares/Third_Party/FreeRTOS/Source/portable/GCC/ARM_CM4F/portmacro.h" 1
 323 0038 4FF05003 		   mov r3, #80                                              
 324 003c 83F31188 	   msr basepri, r3                                         
 325 0040 BFF36F8F 	   isb                                                     
 326 0044 BFF34F8F 	   dsb                                                     
 327              	
 328              	@ 0 "" 2
 329              		.thumb
 330              		.syntax unified
 331 0048 7B61     		str	r3, [r7, #20]
 332              		.loc 2 213 5
 333 004a 00BF     		nop
 334              	.L16:
 335              	.LBE48:
 336              	.LBE47:
 337              		.loc 1 336 13
 338 004c 00BF     		nop
 339 004e FDE7     		b	.L16
 340              	.L15:
 337:Middlewares/Third_Party/FreeRTOS/Source/timers.c ****             pxNewTimer = ( Timer_t * ) pxTimerBuffer; /*lint !e740 !e9087 StaticTimer_t is a pointe
 341              		.loc 1 337 24
 342 0050 FB6A     		ldr	r3, [r7, #44]
 343 0052 FB61     		str	r3, [r7, #28]
 338:Middlewares/Third_Party/FreeRTOS/Source/timers.c **** 
 339:Middlewares/Third_Party/FreeRTOS/Source/timers.c ****             if( pxNewTimer != NULL )
 344              		.loc 1 339 15
 345 0054 FB69     		ldr	r3, [r7, #28]
 346 0056 002B     		cmp	r3, #0
 347 0058 0DD0     		beq	.L17
 340:Middlewares/Third_Party/FreeRTOS/Source/timers.c ****             {
 341:Middlewares/Third_Party/FreeRTOS/Source/timers.c ****                 /* Timers can be created statically or dynamically so note this
 342:Middlewares/Third_Party/FreeRTOS/Source/timers.c ****                  * timer was created statically in case it is later deleted.  The
 343:Middlewares/Third_Party/FreeRTOS/Source/timers.c ****                  * auto-reload bit may get set in prvInitialiseNewTimer(). */
 344:Middlewares/Third_Party/FreeRTOS/Source/timers.c ****                 pxNewTimer->ucStatus = tmrSTATUS_IS_STATICALLY_ALLOCATED;
 348              		.loc 1 344 38
 349 005a FB69     		ldr	r3, [r7, #28]
 350 005c 0222     		movs	r2, #2
 351 005e 83F82820 		strb	r2, [r3, #40]
 345:Middlewares/Third_Party/FreeRTOS/Source/timers.c **** 
 346:Middlewares/Third_Party/FreeRTOS/Source/timers.c ****                 prvInitialiseNewTimer( pcTimerName, xTimerPeriodInTicks, xAutoReload, pvTimerID, px
 352              		.loc 1 346 17
 353 0062 FB69     		ldr	r3, [r7, #28]
 354 0064 0193     		str	r3, [sp, #4]
 355 0066 BB6A     		ldr	r3, [r7, #40]
 356 0068 0093     		str	r3, [sp]
 357 006a 3B68     		ldr	r3, [r7]
 358 006c 7A68     		ldr	r2, [r7, #4]
 359 006e B968     		ldr	r1, [r7, #8]
ARM GAS  C:\Users\alanl\AppData\Local\Temp\ccySaGgX.s 			page 17


 360 0070 F868     		ldr	r0, [r7, #12]
 361 0072 FFF7FEFF 		bl	prvInitialiseNewTimer
 362              	.L17:
 347:Middlewares/Third_Party/FreeRTOS/Source/timers.c ****             }
 348:Middlewares/Third_Party/FreeRTOS/Source/timers.c **** 
 349:Middlewares/Third_Party/FreeRTOS/Source/timers.c ****             return pxNewTimer;
 363              		.loc 1 349 20
 364 0076 FB69     		ldr	r3, [r7, #28]
 350:Middlewares/Third_Party/FreeRTOS/Source/timers.c ****         }
 365              		.loc 1 350 9
 366 0078 1846     		mov	r0, r3
 367 007a 2037     		adds	r7, r7, #32
 368              	.LCFI13:
 369              		.cfi_def_cfa_offset 8
 370 007c BD46     		mov	sp, r7
 371              	.LCFI14:
 372              		.cfi_def_cfa_register 13
 373              		@ sp needed
 374 007e 80BD     		pop	{r7, pc}
 375              		.cfi_endproc
 376              	.LFE6:
 378              		.section	.text.prvInitialiseNewTimer,"ax",%progbits
 379              		.align	1
 380              		.syntax unified
 381              		.thumb
 382              		.thumb_func
 384              	prvInitialiseNewTimer:
 385              	.LFB7:
 351:Middlewares/Third_Party/FreeRTOS/Source/timers.c **** 
 352:Middlewares/Third_Party/FreeRTOS/Source/timers.c ****     #endif /* configSUPPORT_STATIC_ALLOCATION */
 353:Middlewares/Third_Party/FreeRTOS/Source/timers.c **** /*-----------------------------------------------------------*/
 354:Middlewares/Third_Party/FreeRTOS/Source/timers.c **** 
 355:Middlewares/Third_Party/FreeRTOS/Source/timers.c ****     static void prvInitialiseNewTimer( const char * const pcTimerName, /*lint !e971 Unqualified cha
 356:Middlewares/Third_Party/FreeRTOS/Source/timers.c ****                                        const TickType_t xTimerPeriodInTicks,
 357:Middlewares/Third_Party/FreeRTOS/Source/timers.c ****                                        const BaseType_t xAutoReload,
 358:Middlewares/Third_Party/FreeRTOS/Source/timers.c ****                                        void * const pvTimerID,
 359:Middlewares/Third_Party/FreeRTOS/Source/timers.c ****                                        TimerCallbackFunction_t pxCallbackFunction,
 360:Middlewares/Third_Party/FreeRTOS/Source/timers.c ****                                        Timer_t * pxNewTimer )
 361:Middlewares/Third_Party/FreeRTOS/Source/timers.c ****     {
 386              		.loc 1 361 5
 387              		.cfi_startproc
 388              		@ args = 8, pretend = 0, frame = 24
 389              		@ frame_needed = 1, uses_anonymous_args = 0
 390 0000 80B5     		push	{r7, lr}
 391              	.LCFI15:
 392              		.cfi_def_cfa_offset 8
 393              		.cfi_offset 7, -8
 394              		.cfi_offset 14, -4
 395 0002 86B0     		sub	sp, sp, #24
 396              	.LCFI16:
 397              		.cfi_def_cfa_offset 32
 398 0004 00AF     		add	r7, sp, #0
 399              	.LCFI17:
 400              		.cfi_def_cfa_register 7
 401 0006 F860     		str	r0, [r7, #12]
 402 0008 B960     		str	r1, [r7, #8]
 403 000a 7A60     		str	r2, [r7, #4]
ARM GAS  C:\Users\alanl\AppData\Local\Temp\ccySaGgX.s 			page 18


 404 000c 3B60     		str	r3, [r7]
 362:Middlewares/Third_Party/FreeRTOS/Source/timers.c ****         /* 0 is not a valid value for xTimerPeriodInTicks. */
 363:Middlewares/Third_Party/FreeRTOS/Source/timers.c ****         configASSERT( ( xTimerPeriodInTicks > 0 ) );
 405              		.loc 1 363 9
 406 000e BB68     		ldr	r3, [r7, #8]
 407 0010 002B     		cmp	r3, #0
 408 0012 0BD1     		bne	.L20
 409              	.LBB49:
 410              	.LBB50:
 205:Middlewares/Third_Party/FreeRTOS/Source/portable/GCC/ARM_CM4F/portmacro.h ****         (
 411              		.loc 2 205 9
 412              		.syntax unified
 413              	@ 205 "Middlewares/Third_Party/FreeRTOS/Source/portable/GCC/ARM_CM4F/portmacro.h" 1
 414 0014 4FF05003 		   mov r3, #80                                              
 415 0018 83F31188 	   msr basepri, r3                                         
 416 001c BFF36F8F 	   isb                                                     
 417 0020 BFF34F8F 	   dsb                                                     
 418              	
 419              	@ 0 "" 2
 420              		.thumb
 421              		.syntax unified
 422 0024 7B61     		str	r3, [r7, #20]
 423              		.loc 2 213 5
 424 0026 00BF     		nop
 425              	.L21:
 426              	.LBE50:
 427              	.LBE49:
 428              		.loc 1 363 9
 429 0028 00BF     		nop
 430 002a FDE7     		b	.L21
 431              	.L20:
 364:Middlewares/Third_Party/FreeRTOS/Source/timers.c **** 
 365:Middlewares/Third_Party/FreeRTOS/Source/timers.c ****         /* Ensure the infrastructure used by the timer service task has been
 366:Middlewares/Third_Party/FreeRTOS/Source/timers.c ****          * created/initialised. */
 367:Middlewares/Third_Party/FreeRTOS/Source/timers.c ****         prvCheckForValidListAndQueue();
 432              		.loc 1 367 9
 433 002c FFF7FEFF 		bl	prvCheckForValidListAndQueue
 368:Middlewares/Third_Party/FreeRTOS/Source/timers.c **** 
 369:Middlewares/Third_Party/FreeRTOS/Source/timers.c ****         /* Initialise the timer structure members using the function
 370:Middlewares/Third_Party/FreeRTOS/Source/timers.c ****          * parameters. */
 371:Middlewares/Third_Party/FreeRTOS/Source/timers.c ****         pxNewTimer->pcTimerName = pcTimerName;
 434              		.loc 1 371 33
 435 0030 7B6A     		ldr	r3, [r7, #36]
 436 0032 FA68     		ldr	r2, [r7, #12]
 437 0034 1A60     		str	r2, [r3]
 372:Middlewares/Third_Party/FreeRTOS/Source/timers.c ****         pxNewTimer->xTimerPeriodInTicks = xTimerPeriodInTicks;
 438              		.loc 1 372 41
 439 0036 7B6A     		ldr	r3, [r7, #36]
 440 0038 BA68     		ldr	r2, [r7, #8]
 441 003a 9A61     		str	r2, [r3, #24]
 373:Middlewares/Third_Party/FreeRTOS/Source/timers.c ****         pxNewTimer->pvTimerID = pvTimerID;
 442              		.loc 1 373 31
 443 003c 7B6A     		ldr	r3, [r7, #36]
 444 003e 3A68     		ldr	r2, [r7]
 445 0040 DA61     		str	r2, [r3, #28]
 374:Middlewares/Third_Party/FreeRTOS/Source/timers.c ****         pxNewTimer->pxCallbackFunction = pxCallbackFunction;
 446              		.loc 1 374 40
ARM GAS  C:\Users\alanl\AppData\Local\Temp\ccySaGgX.s 			page 19


 447 0042 7B6A     		ldr	r3, [r7, #36]
 448 0044 3A6A     		ldr	r2, [r7, #32]
 449 0046 1A62     		str	r2, [r3, #32]
 375:Middlewares/Third_Party/FreeRTOS/Source/timers.c ****         vListInitialiseItem( &( pxNewTimer->xTimerListItem ) );
 450              		.loc 1 375 9
 451 0048 7B6A     		ldr	r3, [r7, #36]
 452 004a 0433     		adds	r3, r3, #4
 453 004c 1846     		mov	r0, r3
 454 004e FFF7FEFF 		bl	vListInitialiseItem
 376:Middlewares/Third_Party/FreeRTOS/Source/timers.c **** 
 377:Middlewares/Third_Party/FreeRTOS/Source/timers.c ****         if( xAutoReload != pdFALSE )
 455              		.loc 1 377 11
 456 0052 7B68     		ldr	r3, [r7, #4]
 457 0054 002B     		cmp	r3, #0
 458 0056 08D0     		beq	.L23
 378:Middlewares/Third_Party/FreeRTOS/Source/timers.c ****         {
 379:Middlewares/Third_Party/FreeRTOS/Source/timers.c ****             pxNewTimer->ucStatus |= tmrSTATUS_IS_AUTORELOAD;
 459              		.loc 1 379 23
 460 0058 7B6A     		ldr	r3, [r7, #36]
 461 005a 93F82830 		ldrb	r3, [r3, #40]	@ zero_extendqisi2
 462              		.loc 1 379 34
 463 005e 43F00403 		orr	r3, r3, #4
 464 0062 DAB2     		uxtb	r2, r3
 465 0064 7B6A     		ldr	r3, [r7, #36]
 466 0066 83F82820 		strb	r2, [r3, #40]
 467              	.L23:
 380:Middlewares/Third_Party/FreeRTOS/Source/timers.c ****         }
 381:Middlewares/Third_Party/FreeRTOS/Source/timers.c **** 
 382:Middlewares/Third_Party/FreeRTOS/Source/timers.c ****         traceTIMER_CREATE( pxNewTimer );
 383:Middlewares/Third_Party/FreeRTOS/Source/timers.c ****     }
 468              		.loc 1 383 5
 469 006a 00BF     		nop
 470 006c 1837     		adds	r7, r7, #24
 471              	.LCFI18:
 472              		.cfi_def_cfa_offset 8
 473 006e BD46     		mov	sp, r7
 474              	.LCFI19:
 475              		.cfi_def_cfa_register 13
 476              		@ sp needed
 477 0070 80BD     		pop	{r7, pc}
 478              		.cfi_endproc
 479              	.LFE7:
 481              		.section	.text.xTimerGenericCommand,"ax",%progbits
 482              		.align	1
 483              		.global	xTimerGenericCommand
 484              		.syntax unified
 485              		.thumb
 486              		.thumb_func
 488              	xTimerGenericCommand:
 489              	.LFB8:
 384:Middlewares/Third_Party/FreeRTOS/Source/timers.c **** /*-----------------------------------------------------------*/
 385:Middlewares/Third_Party/FreeRTOS/Source/timers.c **** 
 386:Middlewares/Third_Party/FreeRTOS/Source/timers.c ****     BaseType_t xTimerGenericCommand( TimerHandle_t xTimer,
 387:Middlewares/Third_Party/FreeRTOS/Source/timers.c ****                                      const BaseType_t xCommandID,
 388:Middlewares/Third_Party/FreeRTOS/Source/timers.c ****                                      const TickType_t xOptionalValue,
 389:Middlewares/Third_Party/FreeRTOS/Source/timers.c ****                                      BaseType_t * const pxHigherPriorityTaskWoken,
 390:Middlewares/Third_Party/FreeRTOS/Source/timers.c ****                                      const TickType_t xTicksToWait )
ARM GAS  C:\Users\alanl\AppData\Local\Temp\ccySaGgX.s 			page 20


 391:Middlewares/Third_Party/FreeRTOS/Source/timers.c ****     {
 490              		.loc 1 391 5
 491              		.cfi_startproc
 492              		@ args = 4, pretend = 0, frame = 40
 493              		@ frame_needed = 1, uses_anonymous_args = 0
 494 0000 80B5     		push	{r7, lr}
 495              	.LCFI20:
 496              		.cfi_def_cfa_offset 8
 497              		.cfi_offset 7, -8
 498              		.cfi_offset 14, -4
 499 0002 8AB0     		sub	sp, sp, #40
 500              	.LCFI21:
 501              		.cfi_def_cfa_offset 48
 502 0004 00AF     		add	r7, sp, #0
 503              	.LCFI22:
 504              		.cfi_def_cfa_register 7
 505 0006 F860     		str	r0, [r7, #12]
 506 0008 B960     		str	r1, [r7, #8]
 507 000a 7A60     		str	r2, [r7, #4]
 508 000c 3B60     		str	r3, [r7]
 392:Middlewares/Third_Party/FreeRTOS/Source/timers.c ****         BaseType_t xReturn = pdFAIL;
 509              		.loc 1 392 20
 510 000e 0023     		movs	r3, #0
 511 0010 7B62     		str	r3, [r7, #36]
 393:Middlewares/Third_Party/FreeRTOS/Source/timers.c ****         DaemonTaskMessage_t xMessage;
 394:Middlewares/Third_Party/FreeRTOS/Source/timers.c **** 
 395:Middlewares/Third_Party/FreeRTOS/Source/timers.c ****         configASSERT( xTimer );
 512              		.loc 1 395 9
 513 0012 FB68     		ldr	r3, [r7, #12]
 514 0014 002B     		cmp	r3, #0
 515 0016 0BD1     		bne	.L25
 516              	.LBB51:
 517              	.LBB52:
 205:Middlewares/Third_Party/FreeRTOS/Source/portable/GCC/ARM_CM4F/portmacro.h ****         (
 518              		.loc 2 205 9
 519              		.syntax unified
 520              	@ 205 "Middlewares/Third_Party/FreeRTOS/Source/portable/GCC/ARM_CM4F/portmacro.h" 1
 521 0018 4FF05003 		   mov r3, #80                                              
 522 001c 83F31188 	   msr basepri, r3                                         
 523 0020 BFF36F8F 	   isb                                                     
 524 0024 BFF34F8F 	   dsb                                                     
 525              	
 526              	@ 0 "" 2
 527              		.thumb
 528              		.syntax unified
 529 0028 3B62     		str	r3, [r7, #32]
 530              		.loc 2 213 5
 531 002a 00BF     		nop
 532              	.L26:
 533              	.LBE52:
 534              	.LBE51:
 535              		.loc 1 395 9
 536 002c 00BF     		nop
 537 002e FDE7     		b	.L26
 538              	.L25:
 396:Middlewares/Third_Party/FreeRTOS/Source/timers.c **** 
 397:Middlewares/Third_Party/FreeRTOS/Source/timers.c ****         /* Send a message to the timer service task to perform a particular action
ARM GAS  C:\Users\alanl\AppData\Local\Temp\ccySaGgX.s 			page 21


 398:Middlewares/Third_Party/FreeRTOS/Source/timers.c ****          * on a particular timer definition. */
 399:Middlewares/Third_Party/FreeRTOS/Source/timers.c ****         if( xTimerQueue != NULL )
 539              		.loc 1 399 25
 540 0030 194B     		ldr	r3, .L31
 541 0032 1B68     		ldr	r3, [r3]
 542              		.loc 1 399 11
 543 0034 002B     		cmp	r3, #0
 544 0036 2AD0     		beq	.L27
 400:Middlewares/Third_Party/FreeRTOS/Source/timers.c ****         {
 401:Middlewares/Third_Party/FreeRTOS/Source/timers.c ****             /* Send a command to the timer service task to start the xTimer timer. */
 402:Middlewares/Third_Party/FreeRTOS/Source/timers.c ****             xMessage.xMessageID = xCommandID;
 545              		.loc 1 402 33
 546 0038 BB68     		ldr	r3, [r7, #8]
 547 003a 3B61     		str	r3, [r7, #16]
 403:Middlewares/Third_Party/FreeRTOS/Source/timers.c ****             xMessage.u.xTimerParameters.xMessageValue = xOptionalValue;
 548              		.loc 1 403 55
 549 003c 7B68     		ldr	r3, [r7, #4]
 550 003e 7B61     		str	r3, [r7, #20]
 404:Middlewares/Third_Party/FreeRTOS/Source/timers.c ****             xMessage.u.xTimerParameters.pxTimer = xTimer;
 551              		.loc 1 404 49
 552 0040 FB68     		ldr	r3, [r7, #12]
 553 0042 BB61     		str	r3, [r7, #24]
 405:Middlewares/Third_Party/FreeRTOS/Source/timers.c **** 
 406:Middlewares/Third_Party/FreeRTOS/Source/timers.c ****             if( xCommandID < tmrFIRST_FROM_ISR_COMMAND )
 554              		.loc 1 406 15
 555 0044 BB68     		ldr	r3, [r7, #8]
 556 0046 052B     		cmp	r3, #5
 557 0048 18DC     		bgt	.L28
 407:Middlewares/Third_Party/FreeRTOS/Source/timers.c ****             {
 408:Middlewares/Third_Party/FreeRTOS/Source/timers.c ****                 if( xTaskGetSchedulerState() == taskSCHEDULER_RUNNING )
 558              		.loc 1 408 21
 559 004a FFF7FEFF 		bl	xTaskGetSchedulerState
 560 004e 0346     		mov	r3, r0
 561              		.loc 1 408 19 discriminator 1
 562 0050 022B     		cmp	r3, #2
 563 0052 09D1     		bne	.L29
 409:Middlewares/Third_Party/FreeRTOS/Source/timers.c ****                 {
 410:Middlewares/Third_Party/FreeRTOS/Source/timers.c ****                     xReturn = xQueueSendToBack( xTimerQueue, &xMessage, xTicksToWait );
 564              		.loc 1 410 31
 565 0054 104B     		ldr	r3, .L31
 566 0056 1868     		ldr	r0, [r3]
 567 0058 07F11001 		add	r1, r7, #16
 568 005c 0023     		movs	r3, #0
 569 005e 3A6B     		ldr	r2, [r7, #48]
 570 0060 FFF7FEFF 		bl	xQueueGenericSend
 571 0064 7862     		str	r0, [r7, #36]
 572 0066 12E0     		b	.L27
 573              	.L29:
 411:Middlewares/Third_Party/FreeRTOS/Source/timers.c ****                 }
 412:Middlewares/Third_Party/FreeRTOS/Source/timers.c ****                 else
 413:Middlewares/Third_Party/FreeRTOS/Source/timers.c ****                 {
 414:Middlewares/Third_Party/FreeRTOS/Source/timers.c ****                     xReturn = xQueueSendToBack( xTimerQueue, &xMessage, tmrNO_DELAY );
 574              		.loc 1 414 31
 575 0068 0B4B     		ldr	r3, .L31
 576 006a 1868     		ldr	r0, [r3]
 577 006c 07F11001 		add	r1, r7, #16
 578 0070 0023     		movs	r3, #0
ARM GAS  C:\Users\alanl\AppData\Local\Temp\ccySaGgX.s 			page 22


 579 0072 0022     		movs	r2, #0
 580 0074 FFF7FEFF 		bl	xQueueGenericSend
 581 0078 7862     		str	r0, [r7, #36]
 582 007a 08E0     		b	.L27
 583              	.L28:
 415:Middlewares/Third_Party/FreeRTOS/Source/timers.c ****                 }
 416:Middlewares/Third_Party/FreeRTOS/Source/timers.c ****             }
 417:Middlewares/Third_Party/FreeRTOS/Source/timers.c ****             else
 418:Middlewares/Third_Party/FreeRTOS/Source/timers.c ****             {
 419:Middlewares/Third_Party/FreeRTOS/Source/timers.c ****                 xReturn = xQueueSendToBackFromISR( xTimerQueue, &xMessage, pxHigherPriorityTaskWoke
 584              		.loc 1 419 27
 585 007c 064B     		ldr	r3, .L31
 586 007e 1868     		ldr	r0, [r3]
 587 0080 07F11001 		add	r1, r7, #16
 588 0084 0023     		movs	r3, #0
 589 0086 3A68     		ldr	r2, [r7]
 590 0088 FFF7FEFF 		bl	xQueueGenericSendFromISR
 591 008c 7862     		str	r0, [r7, #36]
 592              	.L27:
 420:Middlewares/Third_Party/FreeRTOS/Source/timers.c ****             }
 421:Middlewares/Third_Party/FreeRTOS/Source/timers.c **** 
 422:Middlewares/Third_Party/FreeRTOS/Source/timers.c ****             traceTIMER_COMMAND_SEND( xTimer, xCommandID, xOptionalValue, xReturn );
 423:Middlewares/Third_Party/FreeRTOS/Source/timers.c ****         }
 424:Middlewares/Third_Party/FreeRTOS/Source/timers.c ****         else
 425:Middlewares/Third_Party/FreeRTOS/Source/timers.c ****         {
 426:Middlewares/Third_Party/FreeRTOS/Source/timers.c ****             mtCOVERAGE_TEST_MARKER();
 427:Middlewares/Third_Party/FreeRTOS/Source/timers.c ****         }
 428:Middlewares/Third_Party/FreeRTOS/Source/timers.c **** 
 429:Middlewares/Third_Party/FreeRTOS/Source/timers.c ****         return xReturn;
 593              		.loc 1 429 16
 594 008e 7B6A     		ldr	r3, [r7, #36]
 430:Middlewares/Third_Party/FreeRTOS/Source/timers.c ****     }
 595              		.loc 1 430 5
 596 0090 1846     		mov	r0, r3
 597 0092 2837     		adds	r7, r7, #40
 598              	.LCFI23:
 599              		.cfi_def_cfa_offset 8
 600 0094 BD46     		mov	sp, r7
 601              	.LCFI24:
 602              		.cfi_def_cfa_register 13
 603              		@ sp needed
 604 0096 80BD     		pop	{r7, pc}
 605              	.L32:
 606              		.align	2
 607              	.L31:
 608 0098 00000000 		.word	xTimerQueue
 609              		.cfi_endproc
 610              	.LFE8:
 612              		.section	.text.xTimerGetTimerDaemonTaskHandle,"ax",%progbits
 613              		.align	1
 614              		.global	xTimerGetTimerDaemonTaskHandle
 615              		.syntax unified
 616              		.thumb
 617              		.thumb_func
 619              	xTimerGetTimerDaemonTaskHandle:
 620              	.LFB9:
 431:Middlewares/Third_Party/FreeRTOS/Source/timers.c **** /*-----------------------------------------------------------*/
ARM GAS  C:\Users\alanl\AppData\Local\Temp\ccySaGgX.s 			page 23


 432:Middlewares/Third_Party/FreeRTOS/Source/timers.c **** 
 433:Middlewares/Third_Party/FreeRTOS/Source/timers.c ****     TaskHandle_t xTimerGetTimerDaemonTaskHandle( void )
 434:Middlewares/Third_Party/FreeRTOS/Source/timers.c ****     {
 621              		.loc 1 434 5
 622              		.cfi_startproc
 623              		@ args = 0, pretend = 0, frame = 8
 624              		@ frame_needed = 1, uses_anonymous_args = 0
 625              		@ link register save eliminated.
 626 0000 80B4     		push	{r7}
 627              	.LCFI25:
 628              		.cfi_def_cfa_offset 4
 629              		.cfi_offset 7, -4
 630 0002 83B0     		sub	sp, sp, #12
 631              	.LCFI26:
 632              		.cfi_def_cfa_offset 16
 633 0004 00AF     		add	r7, sp, #0
 634              	.LCFI27:
 635              		.cfi_def_cfa_register 7
 435:Middlewares/Third_Party/FreeRTOS/Source/timers.c ****         /* If xTimerGetTimerDaemonTaskHandle() is called before the scheduler has been
 436:Middlewares/Third_Party/FreeRTOS/Source/timers.c ****          * started, then xTimerTaskHandle will be NULL. */
 437:Middlewares/Third_Party/FreeRTOS/Source/timers.c ****         configASSERT( ( xTimerTaskHandle != NULL ) );
 636              		.loc 1 437 9
 637 0006 0C4B     		ldr	r3, .L37
 638 0008 1B68     		ldr	r3, [r3]
 639 000a 002B     		cmp	r3, #0
 640 000c 0BD1     		bne	.L34
 641              	.LBB53:
 642              	.LBB54:
 205:Middlewares/Third_Party/FreeRTOS/Source/portable/GCC/ARM_CM4F/portmacro.h ****         (
 643              		.loc 2 205 9
 644              		.syntax unified
 645              	@ 205 "Middlewares/Third_Party/FreeRTOS/Source/portable/GCC/ARM_CM4F/portmacro.h" 1
 646 000e 4FF05003 		   mov r3, #80                                              
 647 0012 83F31188 	   msr basepri, r3                                         
 648 0016 BFF36F8F 	   isb                                                     
 649 001a BFF34F8F 	   dsb                                                     
 650              	
 651              	@ 0 "" 2
 652              		.thumb
 653              		.syntax unified
 654 001e 7B60     		str	r3, [r7, #4]
 655              		.loc 2 213 5
 656 0020 00BF     		nop
 657              	.L35:
 658              	.LBE54:
 659              	.LBE53:
 660              		.loc 1 437 9
 661 0022 00BF     		nop
 662 0024 FDE7     		b	.L35
 663              	.L34:
 438:Middlewares/Third_Party/FreeRTOS/Source/timers.c ****         return xTimerTaskHandle;
 664              		.loc 1 438 16
 665 0026 044B     		ldr	r3, .L37
 666 0028 1B68     		ldr	r3, [r3]
 439:Middlewares/Third_Party/FreeRTOS/Source/timers.c ****     }
 667              		.loc 1 439 5
 668 002a 1846     		mov	r0, r3
ARM GAS  C:\Users\alanl\AppData\Local\Temp\ccySaGgX.s 			page 24


 669 002c 0C37     		adds	r7, r7, #12
 670              	.LCFI28:
 671              		.cfi_def_cfa_offset 4
 672 002e BD46     		mov	sp, r7
 673              	.LCFI29:
 674              		.cfi_def_cfa_register 13
 675              		@ sp needed
 676 0030 5DF8047B 		ldr	r7, [sp], #4
 677              	.LCFI30:
 678              		.cfi_restore 7
 679              		.cfi_def_cfa_offset 0
 680 0034 7047     		bx	lr
 681              	.L38:
 682 0036 00BF     		.align	2
 683              	.L37:
 684 0038 00000000 		.word	xTimerTaskHandle
 685              		.cfi_endproc
 686              	.LFE9:
 688              		.section	.text.xTimerGetPeriod,"ax",%progbits
 689              		.align	1
 690              		.global	xTimerGetPeriod
 691              		.syntax unified
 692              		.thumb
 693              		.thumb_func
 695              	xTimerGetPeriod:
 696              	.LFB10:
 440:Middlewares/Third_Party/FreeRTOS/Source/timers.c **** /*-----------------------------------------------------------*/
 441:Middlewares/Third_Party/FreeRTOS/Source/timers.c **** 
 442:Middlewares/Third_Party/FreeRTOS/Source/timers.c ****     TickType_t xTimerGetPeriod( TimerHandle_t xTimer )
 443:Middlewares/Third_Party/FreeRTOS/Source/timers.c ****     {
 697              		.loc 1 443 5
 698              		.cfi_startproc
 699              		@ args = 0, pretend = 0, frame = 16
 700              		@ frame_needed = 1, uses_anonymous_args = 0
 701              		@ link register save eliminated.
 702 0000 80B4     		push	{r7}
 703              	.LCFI31:
 704              		.cfi_def_cfa_offset 4
 705              		.cfi_offset 7, -4
 706 0002 85B0     		sub	sp, sp, #20
 707              	.LCFI32:
 708              		.cfi_def_cfa_offset 24
 709 0004 00AF     		add	r7, sp, #0
 710              	.LCFI33:
 711              		.cfi_def_cfa_register 7
 712 0006 7860     		str	r0, [r7, #4]
 444:Middlewares/Third_Party/FreeRTOS/Source/timers.c ****         Timer_t * pxTimer = xTimer;
 713              		.loc 1 444 19
 714 0008 7B68     		ldr	r3, [r7, #4]
 715 000a FB60     		str	r3, [r7, #12]
 445:Middlewares/Third_Party/FreeRTOS/Source/timers.c **** 
 446:Middlewares/Third_Party/FreeRTOS/Source/timers.c ****         configASSERT( xTimer );
 716              		.loc 1 446 9
 717 000c 7B68     		ldr	r3, [r7, #4]
 718 000e 002B     		cmp	r3, #0
 719 0010 0BD1     		bne	.L40
 720              	.LBB55:
ARM GAS  C:\Users\alanl\AppData\Local\Temp\ccySaGgX.s 			page 25


 721              	.LBB56:
 205:Middlewares/Third_Party/FreeRTOS/Source/portable/GCC/ARM_CM4F/portmacro.h ****         (
 722              		.loc 2 205 9
 723              		.syntax unified
 724              	@ 205 "Middlewares/Third_Party/FreeRTOS/Source/portable/GCC/ARM_CM4F/portmacro.h" 1
 725 0012 4FF05003 		   mov r3, #80                                              
 726 0016 83F31188 	   msr basepri, r3                                         
 727 001a BFF36F8F 	   isb                                                     
 728 001e BFF34F8F 	   dsb                                                     
 729              	
 730              	@ 0 "" 2
 731              		.thumb
 732              		.syntax unified
 733 0022 BB60     		str	r3, [r7, #8]
 734              		.loc 2 213 5
 735 0024 00BF     		nop
 736              	.L41:
 737              	.LBE56:
 738              	.LBE55:
 739              		.loc 1 446 9
 740 0026 00BF     		nop
 741 0028 FDE7     		b	.L41
 742              	.L40:
 447:Middlewares/Third_Party/FreeRTOS/Source/timers.c ****         return pxTimer->xTimerPeriodInTicks;
 743              		.loc 1 447 23
 744 002a FB68     		ldr	r3, [r7, #12]
 745 002c 9B69     		ldr	r3, [r3, #24]
 448:Middlewares/Third_Party/FreeRTOS/Source/timers.c ****     }
 746              		.loc 1 448 5
 747 002e 1846     		mov	r0, r3
 748 0030 1437     		adds	r7, r7, #20
 749              	.LCFI34:
 750              		.cfi_def_cfa_offset 4
 751 0032 BD46     		mov	sp, r7
 752              	.LCFI35:
 753              		.cfi_def_cfa_register 13
 754              		@ sp needed
 755 0034 5DF8047B 		ldr	r7, [sp], #4
 756              	.LCFI36:
 757              		.cfi_restore 7
 758              		.cfi_def_cfa_offset 0
 759 0038 7047     		bx	lr
 760              		.cfi_endproc
 761              	.LFE10:
 763              		.section	.text.vTimerSetReloadMode,"ax",%progbits
 764              		.align	1
 765              		.global	vTimerSetReloadMode
 766              		.syntax unified
 767              		.thumb
 768              		.thumb_func
 770              	vTimerSetReloadMode:
 771              	.LFB11:
 449:Middlewares/Third_Party/FreeRTOS/Source/timers.c **** /*-----------------------------------------------------------*/
 450:Middlewares/Third_Party/FreeRTOS/Source/timers.c **** 
 451:Middlewares/Third_Party/FreeRTOS/Source/timers.c ****     void vTimerSetReloadMode( TimerHandle_t xTimer,
 452:Middlewares/Third_Party/FreeRTOS/Source/timers.c ****                               const BaseType_t xAutoReload )
 453:Middlewares/Third_Party/FreeRTOS/Source/timers.c ****     {
ARM GAS  C:\Users\alanl\AppData\Local\Temp\ccySaGgX.s 			page 26


 772              		.loc 1 453 5
 773              		.cfi_startproc
 774              		@ args = 0, pretend = 0, frame = 16
 775              		@ frame_needed = 1, uses_anonymous_args = 0
 776 0000 80B5     		push	{r7, lr}
 777              	.LCFI37:
 778              		.cfi_def_cfa_offset 8
 779              		.cfi_offset 7, -8
 780              		.cfi_offset 14, -4
 781 0002 84B0     		sub	sp, sp, #16
 782              	.LCFI38:
 783              		.cfi_def_cfa_offset 24
 784 0004 00AF     		add	r7, sp, #0
 785              	.LCFI39:
 786              		.cfi_def_cfa_register 7
 787 0006 7860     		str	r0, [r7, #4]
 788 0008 3960     		str	r1, [r7]
 454:Middlewares/Third_Party/FreeRTOS/Source/timers.c ****         Timer_t * pxTimer = xTimer;
 789              		.loc 1 454 19
 790 000a 7B68     		ldr	r3, [r7, #4]
 791 000c FB60     		str	r3, [r7, #12]
 455:Middlewares/Third_Party/FreeRTOS/Source/timers.c **** 
 456:Middlewares/Third_Party/FreeRTOS/Source/timers.c ****         configASSERT( xTimer );
 792              		.loc 1 456 9
 793 000e 7B68     		ldr	r3, [r7, #4]
 794 0010 002B     		cmp	r3, #0
 795 0012 0BD1     		bne	.L44
 796              	.LBB57:
 797              	.LBB58:
 205:Middlewares/Third_Party/FreeRTOS/Source/portable/GCC/ARM_CM4F/portmacro.h ****         (
 798              		.loc 2 205 9
 799              		.syntax unified
 800              	@ 205 "Middlewares/Third_Party/FreeRTOS/Source/portable/GCC/ARM_CM4F/portmacro.h" 1
 801 0014 4FF05003 		   mov r3, #80                                              
 802 0018 83F31188 	   msr basepri, r3                                         
 803 001c BFF36F8F 	   isb                                                     
 804 0020 BFF34F8F 	   dsb                                                     
 805              	
 806              	@ 0 "" 2
 807              		.thumb
 808              		.syntax unified
 809 0024 BB60     		str	r3, [r7, #8]
 810              		.loc 2 213 5
 811 0026 00BF     		nop
 812              	.L45:
 813              	.LBE58:
 814              	.LBE57:
 815              		.loc 1 456 9
 816 0028 00BF     		nop
 817 002a FDE7     		b	.L45
 818              	.L44:
 457:Middlewares/Third_Party/FreeRTOS/Source/timers.c ****         taskENTER_CRITICAL();
 819              		.loc 1 457 9
 820 002c FFF7FEFF 		bl	vPortEnterCritical
 458:Middlewares/Third_Party/FreeRTOS/Source/timers.c ****         {
 459:Middlewares/Third_Party/FreeRTOS/Source/timers.c ****             if( xAutoReload != pdFALSE )
 821              		.loc 1 459 15
ARM GAS  C:\Users\alanl\AppData\Local\Temp\ccySaGgX.s 			page 27


 822 0030 3B68     		ldr	r3, [r7]
 823 0032 002B     		cmp	r3, #0
 824 0034 09D0     		beq	.L46
 460:Middlewares/Third_Party/FreeRTOS/Source/timers.c ****             {
 461:Middlewares/Third_Party/FreeRTOS/Source/timers.c ****                 pxTimer->ucStatus |= tmrSTATUS_IS_AUTORELOAD;
 825              		.loc 1 461 24
 826 0036 FB68     		ldr	r3, [r7, #12]
 827 0038 93F82830 		ldrb	r3, [r3, #40]	@ zero_extendqisi2
 828              		.loc 1 461 35
 829 003c 43F00403 		orr	r3, r3, #4
 830 0040 DAB2     		uxtb	r2, r3
 831 0042 FB68     		ldr	r3, [r7, #12]
 832 0044 83F82820 		strb	r2, [r3, #40]
 833 0048 08E0     		b	.L47
 834              	.L46:
 462:Middlewares/Third_Party/FreeRTOS/Source/timers.c ****             }
 463:Middlewares/Third_Party/FreeRTOS/Source/timers.c ****             else
 464:Middlewares/Third_Party/FreeRTOS/Source/timers.c ****             {
 465:Middlewares/Third_Party/FreeRTOS/Source/timers.c ****                 pxTimer->ucStatus &= ( ( uint8_t ) ~tmrSTATUS_IS_AUTORELOAD );
 835              		.loc 1 465 24
 836 004a FB68     		ldr	r3, [r7, #12]
 837 004c 93F82830 		ldrb	r3, [r3, #40]	@ zero_extendqisi2
 838              		.loc 1 465 35
 839 0050 23F00403 		bic	r3, r3, #4
 840 0054 DAB2     		uxtb	r2, r3
 841 0056 FB68     		ldr	r3, [r7, #12]
 842 0058 83F82820 		strb	r2, [r3, #40]
 843              	.L47:
 466:Middlewares/Third_Party/FreeRTOS/Source/timers.c ****             }
 467:Middlewares/Third_Party/FreeRTOS/Source/timers.c ****         }
 468:Middlewares/Third_Party/FreeRTOS/Source/timers.c ****         taskEXIT_CRITICAL();
 844              		.loc 1 468 9
 845 005c FFF7FEFF 		bl	vPortExitCritical
 469:Middlewares/Third_Party/FreeRTOS/Source/timers.c ****     }
 846              		.loc 1 469 5
 847 0060 00BF     		nop
 848 0062 1037     		adds	r7, r7, #16
 849              	.LCFI40:
 850              		.cfi_def_cfa_offset 8
 851 0064 BD46     		mov	sp, r7
 852              	.LCFI41:
 853              		.cfi_def_cfa_register 13
 854              		@ sp needed
 855 0066 80BD     		pop	{r7, pc}
 856              		.cfi_endproc
 857              	.LFE11:
 859              		.section	.text.xTimerGetReloadMode,"ax",%progbits
 860              		.align	1
 861              		.global	xTimerGetReloadMode
 862              		.syntax unified
 863              		.thumb
 864              		.thumb_func
 866              	xTimerGetReloadMode:
 867              	.LFB12:
 470:Middlewares/Third_Party/FreeRTOS/Source/timers.c **** /*-----------------------------------------------------------*/
 471:Middlewares/Third_Party/FreeRTOS/Source/timers.c **** 
 472:Middlewares/Third_Party/FreeRTOS/Source/timers.c ****     BaseType_t xTimerGetReloadMode( TimerHandle_t xTimer )
ARM GAS  C:\Users\alanl\AppData\Local\Temp\ccySaGgX.s 			page 28


 473:Middlewares/Third_Party/FreeRTOS/Source/timers.c ****     {
 868              		.loc 1 473 5
 869              		.cfi_startproc
 870              		@ args = 0, pretend = 0, frame = 24
 871              		@ frame_needed = 1, uses_anonymous_args = 0
 872 0000 80B5     		push	{r7, lr}
 873              	.LCFI42:
 874              		.cfi_def_cfa_offset 8
 875              		.cfi_offset 7, -8
 876              		.cfi_offset 14, -4
 877 0002 86B0     		sub	sp, sp, #24
 878              	.LCFI43:
 879              		.cfi_def_cfa_offset 32
 880 0004 00AF     		add	r7, sp, #0
 881              	.LCFI44:
 882              		.cfi_def_cfa_register 7
 883 0006 7860     		str	r0, [r7, #4]
 474:Middlewares/Third_Party/FreeRTOS/Source/timers.c ****         Timer_t * pxTimer = xTimer;
 884              		.loc 1 474 19
 885 0008 7B68     		ldr	r3, [r7, #4]
 886 000a 3B61     		str	r3, [r7, #16]
 475:Middlewares/Third_Party/FreeRTOS/Source/timers.c ****         BaseType_t xReturn;
 476:Middlewares/Third_Party/FreeRTOS/Source/timers.c **** 
 477:Middlewares/Third_Party/FreeRTOS/Source/timers.c ****         configASSERT( xTimer );
 887              		.loc 1 477 9
 888 000c 7B68     		ldr	r3, [r7, #4]
 889 000e 002B     		cmp	r3, #0
 890 0010 0BD1     		bne	.L49
 891              	.LBB59:
 892              	.LBB60:
 205:Middlewares/Third_Party/FreeRTOS/Source/portable/GCC/ARM_CM4F/portmacro.h ****         (
 893              		.loc 2 205 9
 894              		.syntax unified
 895              	@ 205 "Middlewares/Third_Party/FreeRTOS/Source/portable/GCC/ARM_CM4F/portmacro.h" 1
 896 0012 4FF05003 		   mov r3, #80                                              
 897 0016 83F31188 	   msr basepri, r3                                         
 898 001a BFF36F8F 	   isb                                                     
 899 001e BFF34F8F 	   dsb                                                     
 900              	
 901              	@ 0 "" 2
 902              		.thumb
 903              		.syntax unified
 904 0022 FB60     		str	r3, [r7, #12]
 905              		.loc 2 213 5
 906 0024 00BF     		nop
 907              	.L50:
 908              	.LBE60:
 909              	.LBE59:
 910              		.loc 1 477 9
 911 0026 00BF     		nop
 912 0028 FDE7     		b	.L50
 913              	.L49:
 478:Middlewares/Third_Party/FreeRTOS/Source/timers.c ****         taskENTER_CRITICAL();
 914              		.loc 1 478 9
 915 002a FFF7FEFF 		bl	vPortEnterCritical
 479:Middlewares/Third_Party/FreeRTOS/Source/timers.c ****         {
 480:Middlewares/Third_Party/FreeRTOS/Source/timers.c ****             if( ( pxTimer->ucStatus & tmrSTATUS_IS_AUTORELOAD ) == 0 )
ARM GAS  C:\Users\alanl\AppData\Local\Temp\ccySaGgX.s 			page 29


 916              		.loc 1 480 26
 917 002e 3B69     		ldr	r3, [r7, #16]
 918 0030 93F82830 		ldrb	r3, [r3, #40]	@ zero_extendqisi2
 919              		.loc 1 480 37
 920 0034 03F00403 		and	r3, r3, #4
 921              		.loc 1 480 15
 922 0038 002B     		cmp	r3, #0
 923 003a 02D1     		bne	.L51
 481:Middlewares/Third_Party/FreeRTOS/Source/timers.c ****             {
 482:Middlewares/Third_Party/FreeRTOS/Source/timers.c ****                 /* Not an auto-reload timer. */
 483:Middlewares/Third_Party/FreeRTOS/Source/timers.c ****                 xReturn = pdFALSE;
 924              		.loc 1 483 25
 925 003c 0023     		movs	r3, #0
 926 003e 7B61     		str	r3, [r7, #20]
 927 0040 01E0     		b	.L52
 928              	.L51:
 484:Middlewares/Third_Party/FreeRTOS/Source/timers.c ****             }
 485:Middlewares/Third_Party/FreeRTOS/Source/timers.c ****             else
 486:Middlewares/Third_Party/FreeRTOS/Source/timers.c ****             {
 487:Middlewares/Third_Party/FreeRTOS/Source/timers.c ****                 /* Is an auto-reload timer. */
 488:Middlewares/Third_Party/FreeRTOS/Source/timers.c ****                 xReturn = pdTRUE;
 929              		.loc 1 488 25
 930 0042 0123     		movs	r3, #1
 931 0044 7B61     		str	r3, [r7, #20]
 932              	.L52:
 489:Middlewares/Third_Party/FreeRTOS/Source/timers.c ****             }
 490:Middlewares/Third_Party/FreeRTOS/Source/timers.c ****         }
 491:Middlewares/Third_Party/FreeRTOS/Source/timers.c ****         taskEXIT_CRITICAL();
 933              		.loc 1 491 9
 934 0046 FFF7FEFF 		bl	vPortExitCritical
 492:Middlewares/Third_Party/FreeRTOS/Source/timers.c **** 
 493:Middlewares/Third_Party/FreeRTOS/Source/timers.c ****         return xReturn;
 935              		.loc 1 493 16
 936 004a 7B69     		ldr	r3, [r7, #20]
 494:Middlewares/Third_Party/FreeRTOS/Source/timers.c ****     }
 937              		.loc 1 494 5
 938 004c 1846     		mov	r0, r3
 939 004e 1837     		adds	r7, r7, #24
 940              	.LCFI45:
 941              		.cfi_def_cfa_offset 8
 942 0050 BD46     		mov	sp, r7
 943              	.LCFI46:
 944              		.cfi_def_cfa_register 13
 945              		@ sp needed
 946 0052 80BD     		pop	{r7, pc}
 947              		.cfi_endproc
 948              	.LFE12:
 950              		.section	.text.uxTimerGetReloadMode,"ax",%progbits
 951              		.align	1
 952              		.global	uxTimerGetReloadMode
 953              		.syntax unified
 954              		.thumb
 955              		.thumb_func
 957              	uxTimerGetReloadMode:
 958              	.LFB13:
 495:Middlewares/Third_Party/FreeRTOS/Source/timers.c **** 
 496:Middlewares/Third_Party/FreeRTOS/Source/timers.c ****     UBaseType_t uxTimerGetReloadMode( TimerHandle_t xTimer )
ARM GAS  C:\Users\alanl\AppData\Local\Temp\ccySaGgX.s 			page 30


 497:Middlewares/Third_Party/FreeRTOS/Source/timers.c ****     {
 959              		.loc 1 497 5
 960              		.cfi_startproc
 961              		@ args = 0, pretend = 0, frame = 8
 962              		@ frame_needed = 1, uses_anonymous_args = 0
 963 0000 80B5     		push	{r7, lr}
 964              	.LCFI47:
 965              		.cfi_def_cfa_offset 8
 966              		.cfi_offset 7, -8
 967              		.cfi_offset 14, -4
 968 0002 82B0     		sub	sp, sp, #8
 969              	.LCFI48:
 970              		.cfi_def_cfa_offset 16
 971 0004 00AF     		add	r7, sp, #0
 972              	.LCFI49:
 973              		.cfi_def_cfa_register 7
 974 0006 7860     		str	r0, [r7, #4]
 498:Middlewares/Third_Party/FreeRTOS/Source/timers.c ****         return ( UBaseType_t ) xTimerGetReloadMode( xTimer );
 975              		.loc 1 498 32
 976 0008 7868     		ldr	r0, [r7, #4]
 977 000a FFF7FEFF 		bl	xTimerGetReloadMode
 978 000e 0346     		mov	r3, r0
 499:Middlewares/Third_Party/FreeRTOS/Source/timers.c ****     }
 979              		.loc 1 499 5
 980 0010 1846     		mov	r0, r3
 981 0012 0837     		adds	r7, r7, #8
 982              	.LCFI50:
 983              		.cfi_def_cfa_offset 8
 984 0014 BD46     		mov	sp, r7
 985              	.LCFI51:
 986              		.cfi_def_cfa_register 13
 987              		@ sp needed
 988 0016 80BD     		pop	{r7, pc}
 989              		.cfi_endproc
 990              	.LFE13:
 992              		.section	.text.xTimerGetExpiryTime,"ax",%progbits
 993              		.align	1
 994              		.global	xTimerGetExpiryTime
 995              		.syntax unified
 996              		.thumb
 997              		.thumb_func
 999              	xTimerGetExpiryTime:
 1000              	.LFB14:
 500:Middlewares/Third_Party/FreeRTOS/Source/timers.c **** /*-----------------------------------------------------------*/
 501:Middlewares/Third_Party/FreeRTOS/Source/timers.c **** 
 502:Middlewares/Third_Party/FreeRTOS/Source/timers.c ****     TickType_t xTimerGetExpiryTime( TimerHandle_t xTimer )
 503:Middlewares/Third_Party/FreeRTOS/Source/timers.c ****     {
 1001              		.loc 1 503 5
 1002              		.cfi_startproc
 1003              		@ args = 0, pretend = 0, frame = 24
 1004              		@ frame_needed = 1, uses_anonymous_args = 0
 1005              		@ link register save eliminated.
 1006 0000 80B4     		push	{r7}
 1007              	.LCFI52:
 1008              		.cfi_def_cfa_offset 4
 1009              		.cfi_offset 7, -4
 1010 0002 87B0     		sub	sp, sp, #28
ARM GAS  C:\Users\alanl\AppData\Local\Temp\ccySaGgX.s 			page 31


 1011              	.LCFI53:
 1012              		.cfi_def_cfa_offset 32
 1013 0004 00AF     		add	r7, sp, #0
 1014              	.LCFI54:
 1015              		.cfi_def_cfa_register 7
 1016 0006 7860     		str	r0, [r7, #4]
 504:Middlewares/Third_Party/FreeRTOS/Source/timers.c ****         Timer_t * pxTimer = xTimer;
 1017              		.loc 1 504 19
 1018 0008 7B68     		ldr	r3, [r7, #4]
 1019 000a 7B61     		str	r3, [r7, #20]
 505:Middlewares/Third_Party/FreeRTOS/Source/timers.c ****         TickType_t xReturn;
 506:Middlewares/Third_Party/FreeRTOS/Source/timers.c **** 
 507:Middlewares/Third_Party/FreeRTOS/Source/timers.c ****         configASSERT( xTimer );
 1020              		.loc 1 507 9
 1021 000c 7B68     		ldr	r3, [r7, #4]
 1022 000e 002B     		cmp	r3, #0
 1023 0010 0BD1     		bne	.L57
 1024              	.LBB61:
 1025              	.LBB62:
 205:Middlewares/Third_Party/FreeRTOS/Source/portable/GCC/ARM_CM4F/portmacro.h ****         (
 1026              		.loc 2 205 9
 1027              		.syntax unified
 1028              	@ 205 "Middlewares/Third_Party/FreeRTOS/Source/portable/GCC/ARM_CM4F/portmacro.h" 1
 1029 0012 4FF05003 		   mov r3, #80                                              
 1030 0016 83F31188 	   msr basepri, r3                                         
 1031 001a BFF36F8F 	   isb                                                     
 1032 001e BFF34F8F 	   dsb                                                     
 1033              	
 1034              	@ 0 "" 2
 1035              		.thumb
 1036              		.syntax unified
 1037 0022 FB60     		str	r3, [r7, #12]
 1038              		.loc 2 213 5
 1039 0024 00BF     		nop
 1040              	.L58:
 1041              	.LBE62:
 1042              	.LBE61:
 1043              		.loc 1 507 9
 1044 0026 00BF     		nop
 1045 0028 FDE7     		b	.L58
 1046              	.L57:
 508:Middlewares/Third_Party/FreeRTOS/Source/timers.c ****         xReturn = listGET_LIST_ITEM_VALUE( &( pxTimer->xTimerListItem ) );
 1047              		.loc 1 508 17
 1048 002a 7B69     		ldr	r3, [r7, #20]
 1049 002c 5B68     		ldr	r3, [r3, #4]
 1050 002e 3B61     		str	r3, [r7, #16]
 509:Middlewares/Third_Party/FreeRTOS/Source/timers.c ****         return xReturn;
 1051              		.loc 1 509 16
 1052 0030 3B69     		ldr	r3, [r7, #16]
 510:Middlewares/Third_Party/FreeRTOS/Source/timers.c ****     }
 1053              		.loc 1 510 5
 1054 0032 1846     		mov	r0, r3
 1055 0034 1C37     		adds	r7, r7, #28
 1056              	.LCFI55:
 1057              		.cfi_def_cfa_offset 4
 1058 0036 BD46     		mov	sp, r7
 1059              	.LCFI56:
ARM GAS  C:\Users\alanl\AppData\Local\Temp\ccySaGgX.s 			page 32


 1060              		.cfi_def_cfa_register 13
 1061              		@ sp needed
 1062 0038 5DF8047B 		ldr	r7, [sp], #4
 1063              	.LCFI57:
 1064              		.cfi_restore 7
 1065              		.cfi_def_cfa_offset 0
 1066 003c 7047     		bx	lr
 1067              		.cfi_endproc
 1068              	.LFE14:
 1070              		.section	.text.xTimerGetStaticBuffer,"ax",%progbits
 1071              		.align	1
 1072              		.global	xTimerGetStaticBuffer
 1073              		.syntax unified
 1074              		.thumb
 1075              		.thumb_func
 1077              	xTimerGetStaticBuffer:
 1078              	.LFB15:
 511:Middlewares/Third_Party/FreeRTOS/Source/timers.c **** /*-----------------------------------------------------------*/
 512:Middlewares/Third_Party/FreeRTOS/Source/timers.c **** 
 513:Middlewares/Third_Party/FreeRTOS/Source/timers.c ****     #if ( configSUPPORT_STATIC_ALLOCATION == 1 )
 514:Middlewares/Third_Party/FreeRTOS/Source/timers.c ****         BaseType_t xTimerGetStaticBuffer( TimerHandle_t xTimer,
 515:Middlewares/Third_Party/FreeRTOS/Source/timers.c ****                                           StaticTimer_t ** ppxTimerBuffer )
 516:Middlewares/Third_Party/FreeRTOS/Source/timers.c ****         {
 1079              		.loc 1 516 9
 1080              		.cfi_startproc
 1081              		@ args = 0, pretend = 0, frame = 24
 1082              		@ frame_needed = 1, uses_anonymous_args = 0
 1083              		@ link register save eliminated.
 1084 0000 80B4     		push	{r7}
 1085              	.LCFI58:
 1086              		.cfi_def_cfa_offset 4
 1087              		.cfi_offset 7, -4
 1088 0002 87B0     		sub	sp, sp, #28
 1089              	.LCFI59:
 1090              		.cfi_def_cfa_offset 32
 1091 0004 00AF     		add	r7, sp, #0
 1092              	.LCFI60:
 1093              		.cfi_def_cfa_register 7
 1094 0006 7860     		str	r0, [r7, #4]
 1095 0008 3960     		str	r1, [r7]
 517:Middlewares/Third_Party/FreeRTOS/Source/timers.c ****             BaseType_t xReturn;
 518:Middlewares/Third_Party/FreeRTOS/Source/timers.c ****             Timer_t * pxTimer = xTimer;
 1096              		.loc 1 518 23
 1097 000a 7B68     		ldr	r3, [r7, #4]
 1098 000c 3B61     		str	r3, [r7, #16]
 519:Middlewares/Third_Party/FreeRTOS/Source/timers.c **** 
 520:Middlewares/Third_Party/FreeRTOS/Source/timers.c ****             configASSERT( ppxTimerBuffer != NULL );
 1099              		.loc 1 520 13
 1100 000e 3B68     		ldr	r3, [r7]
 1101 0010 002B     		cmp	r3, #0
 1102 0012 0BD1     		bne	.L61
 1103              	.LBB63:
 1104              	.LBB64:
 205:Middlewares/Third_Party/FreeRTOS/Source/portable/GCC/ARM_CM4F/portmacro.h ****         (
 1105              		.loc 2 205 9
 1106              		.syntax unified
 1107              	@ 205 "Middlewares/Third_Party/FreeRTOS/Source/portable/GCC/ARM_CM4F/portmacro.h" 1
ARM GAS  C:\Users\alanl\AppData\Local\Temp\ccySaGgX.s 			page 33


 1108 0014 4FF05003 		   mov r3, #80                                              
 1109 0018 83F31188 	   msr basepri, r3                                         
 1110 001c BFF36F8F 	   isb                                                     
 1111 0020 BFF34F8F 	   dsb                                                     
 1112              	
 1113              	@ 0 "" 2
 1114              		.thumb
 1115              		.syntax unified
 1116 0024 FB60     		str	r3, [r7, #12]
 1117              		.loc 2 213 5
 1118 0026 00BF     		nop
 1119              	.L62:
 1120              	.LBE64:
 1121              	.LBE63:
 1122              		.loc 1 520 13
 1123 0028 00BF     		nop
 1124 002a FDE7     		b	.L62
 1125              	.L61:
 521:Middlewares/Third_Party/FreeRTOS/Source/timers.c **** 
 522:Middlewares/Third_Party/FreeRTOS/Source/timers.c ****             if( ( pxTimer->ucStatus & tmrSTATUS_IS_STATICALLY_ALLOCATED ) != 0 )
 1126              		.loc 1 522 26
 1127 002c 3B69     		ldr	r3, [r7, #16]
 1128 002e 93F82830 		ldrb	r3, [r3, #40]	@ zero_extendqisi2
 1129              		.loc 1 522 37
 1130 0032 03F00203 		and	r3, r3, #2
 1131              		.loc 1 522 15
 1132 0036 002B     		cmp	r3, #0
 1133 0038 05D0     		beq	.L63
 523:Middlewares/Third_Party/FreeRTOS/Source/timers.c ****             {
 524:Middlewares/Third_Party/FreeRTOS/Source/timers.c ****                 *ppxTimerBuffer = ( StaticTimer_t * ) pxTimer;
 1134              		.loc 1 524 33
 1135 003a 3B68     		ldr	r3, [r7]
 1136 003c 3A69     		ldr	r2, [r7, #16]
 1137 003e 1A60     		str	r2, [r3]
 525:Middlewares/Third_Party/FreeRTOS/Source/timers.c ****                 xReturn = pdTRUE;
 1138              		.loc 1 525 25
 1139 0040 0123     		movs	r3, #1
 1140 0042 7B61     		str	r3, [r7, #20]
 1141 0044 01E0     		b	.L64
 1142              	.L63:
 526:Middlewares/Third_Party/FreeRTOS/Source/timers.c ****             }
 527:Middlewares/Third_Party/FreeRTOS/Source/timers.c ****             else
 528:Middlewares/Third_Party/FreeRTOS/Source/timers.c ****             {
 529:Middlewares/Third_Party/FreeRTOS/Source/timers.c ****                 xReturn = pdFALSE;
 1143              		.loc 1 529 25
 1144 0046 0023     		movs	r3, #0
 1145 0048 7B61     		str	r3, [r7, #20]
 1146              	.L64:
 530:Middlewares/Third_Party/FreeRTOS/Source/timers.c ****             }
 531:Middlewares/Third_Party/FreeRTOS/Source/timers.c **** 
 532:Middlewares/Third_Party/FreeRTOS/Source/timers.c ****             return xReturn;
 1147              		.loc 1 532 20
 1148 004a 7B69     		ldr	r3, [r7, #20]
 533:Middlewares/Third_Party/FreeRTOS/Source/timers.c ****         }
 1149              		.loc 1 533 9
 1150 004c 1846     		mov	r0, r3
 1151 004e 1C37     		adds	r7, r7, #28
ARM GAS  C:\Users\alanl\AppData\Local\Temp\ccySaGgX.s 			page 34


 1152              	.LCFI61:
 1153              		.cfi_def_cfa_offset 4
 1154 0050 BD46     		mov	sp, r7
 1155              	.LCFI62:
 1156              		.cfi_def_cfa_register 13
 1157              		@ sp needed
 1158 0052 5DF8047B 		ldr	r7, [sp], #4
 1159              	.LCFI63:
 1160              		.cfi_restore 7
 1161              		.cfi_def_cfa_offset 0
 1162 0056 7047     		bx	lr
 1163              		.cfi_endproc
 1164              	.LFE15:
 1166              		.section	.text.pcTimerGetName,"ax",%progbits
 1167              		.align	1
 1168              		.global	pcTimerGetName
 1169              		.syntax unified
 1170              		.thumb
 1171              		.thumb_func
 1173              	pcTimerGetName:
 1174              	.LFB16:
 534:Middlewares/Third_Party/FreeRTOS/Source/timers.c ****     #endif /* configSUPPORT_STATIC_ALLOCATION */
 535:Middlewares/Third_Party/FreeRTOS/Source/timers.c **** /*-----------------------------------------------------------*/
 536:Middlewares/Third_Party/FreeRTOS/Source/timers.c **** 
 537:Middlewares/Third_Party/FreeRTOS/Source/timers.c ****     const char * pcTimerGetName( TimerHandle_t xTimer ) /*lint !e971 Unqualified char types are all
 538:Middlewares/Third_Party/FreeRTOS/Source/timers.c ****     {
 1175              		.loc 1 538 5
 1176              		.cfi_startproc
 1177              		@ args = 0, pretend = 0, frame = 16
 1178              		@ frame_needed = 1, uses_anonymous_args = 0
 1179              		@ link register save eliminated.
 1180 0000 80B4     		push	{r7}
 1181              	.LCFI64:
 1182              		.cfi_def_cfa_offset 4
 1183              		.cfi_offset 7, -4
 1184 0002 85B0     		sub	sp, sp, #20
 1185              	.LCFI65:
 1186              		.cfi_def_cfa_offset 24
 1187 0004 00AF     		add	r7, sp, #0
 1188              	.LCFI66:
 1189              		.cfi_def_cfa_register 7
 1190 0006 7860     		str	r0, [r7, #4]
 539:Middlewares/Third_Party/FreeRTOS/Source/timers.c ****         Timer_t * pxTimer = xTimer;
 1191              		.loc 1 539 19
 1192 0008 7B68     		ldr	r3, [r7, #4]
 1193 000a FB60     		str	r3, [r7, #12]
 540:Middlewares/Third_Party/FreeRTOS/Source/timers.c **** 
 541:Middlewares/Third_Party/FreeRTOS/Source/timers.c ****         configASSERT( xTimer );
 1194              		.loc 1 541 9
 1195 000c 7B68     		ldr	r3, [r7, #4]
 1196 000e 002B     		cmp	r3, #0
 1197 0010 0BD1     		bne	.L67
 1198              	.LBB65:
 1199              	.LBB66:
 205:Middlewares/Third_Party/FreeRTOS/Source/portable/GCC/ARM_CM4F/portmacro.h ****         (
 1200              		.loc 2 205 9
 1201              		.syntax unified
ARM GAS  C:\Users\alanl\AppData\Local\Temp\ccySaGgX.s 			page 35


 1202              	@ 205 "Middlewares/Third_Party/FreeRTOS/Source/portable/GCC/ARM_CM4F/portmacro.h" 1
 1203 0012 4FF05003 		   mov r3, #80                                              
 1204 0016 83F31188 	   msr basepri, r3                                         
 1205 001a BFF36F8F 	   isb                                                     
 1206 001e BFF34F8F 	   dsb                                                     
 1207              	
 1208              	@ 0 "" 2
 1209              		.thumb
 1210              		.syntax unified
 1211 0022 BB60     		str	r3, [r7, #8]
 1212              		.loc 2 213 5
 1213 0024 00BF     		nop
 1214              	.L68:
 1215              	.LBE66:
 1216              	.LBE65:
 1217              		.loc 1 541 9
 1218 0026 00BF     		nop
 1219 0028 FDE7     		b	.L68
 1220              	.L67:
 542:Middlewares/Third_Party/FreeRTOS/Source/timers.c ****         return pxTimer->pcTimerName;
 1221              		.loc 1 542 23
 1222 002a FB68     		ldr	r3, [r7, #12]
 1223 002c 1B68     		ldr	r3, [r3]
 543:Middlewares/Third_Party/FreeRTOS/Source/timers.c ****     }
 1224              		.loc 1 543 5
 1225 002e 1846     		mov	r0, r3
 1226 0030 1437     		adds	r7, r7, #20
 1227              	.LCFI67:
 1228              		.cfi_def_cfa_offset 4
 1229 0032 BD46     		mov	sp, r7
 1230              	.LCFI68:
 1231              		.cfi_def_cfa_register 13
 1232              		@ sp needed
 1233 0034 5DF8047B 		ldr	r7, [sp], #4
 1234              	.LCFI69:
 1235              		.cfi_restore 7
 1236              		.cfi_def_cfa_offset 0
 1237 0038 7047     		bx	lr
 1238              		.cfi_endproc
 1239              	.LFE16:
 1241              		.section	.text.prvReloadTimer,"ax",%progbits
 1242              		.align	1
 1243              		.syntax unified
 1244              		.thumb
 1245              		.thumb_func
 1247              	prvReloadTimer:
 1248              	.LFB17:
 544:Middlewares/Third_Party/FreeRTOS/Source/timers.c **** /*-----------------------------------------------------------*/
 545:Middlewares/Third_Party/FreeRTOS/Source/timers.c **** 
 546:Middlewares/Third_Party/FreeRTOS/Source/timers.c ****     static void prvReloadTimer( Timer_t * const pxTimer,
 547:Middlewares/Third_Party/FreeRTOS/Source/timers.c ****                                 TickType_t xExpiredTime,
 548:Middlewares/Third_Party/FreeRTOS/Source/timers.c ****                                 const TickType_t xTimeNow )
 549:Middlewares/Third_Party/FreeRTOS/Source/timers.c ****     {
 1249              		.loc 1 549 5
 1250              		.cfi_startproc
 1251              		@ args = 0, pretend = 0, frame = 16
 1252              		@ frame_needed = 1, uses_anonymous_args = 0
ARM GAS  C:\Users\alanl\AppData\Local\Temp\ccySaGgX.s 			page 36


 1253 0000 80B5     		push	{r7, lr}
 1254              	.LCFI70:
 1255              		.cfi_def_cfa_offset 8
 1256              		.cfi_offset 7, -8
 1257              		.cfi_offset 14, -4
 1258 0002 84B0     		sub	sp, sp, #16
 1259              	.LCFI71:
 1260              		.cfi_def_cfa_offset 24
 1261 0004 00AF     		add	r7, sp, #0
 1262              	.LCFI72:
 1263              		.cfi_def_cfa_register 7
 1264 0006 F860     		str	r0, [r7, #12]
 1265 0008 B960     		str	r1, [r7, #8]
 1266 000a 7A60     		str	r2, [r7, #4]
 550:Middlewares/Third_Party/FreeRTOS/Source/timers.c ****         /* Insert the timer into the appropriate list for the next expiry time.
 551:Middlewares/Third_Party/FreeRTOS/Source/timers.c ****          * If the next expiry time has already passed, advance the expiry time,
 552:Middlewares/Third_Party/FreeRTOS/Source/timers.c ****          * call the callback function, and try again. */
 553:Middlewares/Third_Party/FreeRTOS/Source/timers.c ****         while( prvInsertTimerInActiveList( pxTimer, ( xExpiredTime + pxTimer->xTimerPeriodInTicks )
 1267              		.loc 1 553 14
 1268 000c 08E0     		b	.L71
 1269              	.L72:
 554:Middlewares/Third_Party/FreeRTOS/Source/timers.c ****         {
 555:Middlewares/Third_Party/FreeRTOS/Source/timers.c ****             /* Advance the expiry time. */
 556:Middlewares/Third_Party/FreeRTOS/Source/timers.c ****             xExpiredTime += pxTimer->xTimerPeriodInTicks;
 1270              		.loc 1 556 36
 1271 000e FB68     		ldr	r3, [r7, #12]
 1272 0010 9B69     		ldr	r3, [r3, #24]
 1273              		.loc 1 556 26
 1274 0012 BA68     		ldr	r2, [r7, #8]
 1275 0014 1344     		add	r3, r3, r2
 1276 0016 BB60     		str	r3, [r7, #8]
 557:Middlewares/Third_Party/FreeRTOS/Source/timers.c **** 
 558:Middlewares/Third_Party/FreeRTOS/Source/timers.c ****             /* Call the timer callback. */
 559:Middlewares/Third_Party/FreeRTOS/Source/timers.c ****             traceTIMER_EXPIRED( pxTimer );
 560:Middlewares/Third_Party/FreeRTOS/Source/timers.c ****             pxTimer->pxCallbackFunction( ( TimerHandle_t ) pxTimer );
 1277              		.loc 1 560 20
 1278 0018 FB68     		ldr	r3, [r7, #12]
 1279 001a 1B6A     		ldr	r3, [r3, #32]
 1280              		.loc 1 560 13
 1281 001c F868     		ldr	r0, [r7, #12]
 1282 001e 9847     		blx	r3
 1283              	.LVL0:
 1284              	.L71:
 553:Middlewares/Third_Party/FreeRTOS/Source/timers.c ****         {
 1285              		.loc 1 553 77
 1286 0020 FB68     		ldr	r3, [r7, #12]
 1287 0022 9A69     		ldr	r2, [r3, #24]
 553:Middlewares/Third_Party/FreeRTOS/Source/timers.c ****         {
 1288              		.loc 1 553 16
 1289 0024 BB68     		ldr	r3, [r7, #8]
 1290 0026 D118     		adds	r1, r2, r3
 1291 0028 BB68     		ldr	r3, [r7, #8]
 1292 002a 7A68     		ldr	r2, [r7, #4]
 1293 002c F868     		ldr	r0, [r7, #12]
 1294 002e FFF7FEFF 		bl	prvInsertTimerInActiveList
 1295 0032 0346     		mov	r3, r0
 553:Middlewares/Third_Party/FreeRTOS/Source/timers.c ****         {
ARM GAS  C:\Users\alanl\AppData\Local\Temp\ccySaGgX.s 			page 37


 1296              		.loc 1 553 127 discriminator 1
 1297 0034 002B     		cmp	r3, #0
 1298 0036 EAD1     		bne	.L72
 561:Middlewares/Third_Party/FreeRTOS/Source/timers.c ****         }
 562:Middlewares/Third_Party/FreeRTOS/Source/timers.c ****     }
 1299              		.loc 1 562 5
 1300 0038 00BF     		nop
 1301 003a 00BF     		nop
 1302 003c 1037     		adds	r7, r7, #16
 1303              	.LCFI73:
 1304              		.cfi_def_cfa_offset 8
 1305 003e BD46     		mov	sp, r7
 1306              	.LCFI74:
 1307              		.cfi_def_cfa_register 13
 1308              		@ sp needed
 1309 0040 80BD     		pop	{r7, pc}
 1310              		.cfi_endproc
 1311              	.LFE17:
 1313              		.section	.text.prvProcessExpiredTimer,"ax",%progbits
 1314              		.align	1
 1315              		.syntax unified
 1316              		.thumb
 1317              		.thumb_func
 1319              	prvProcessExpiredTimer:
 1320              	.LFB18:
 563:Middlewares/Third_Party/FreeRTOS/Source/timers.c **** /*-----------------------------------------------------------*/
 564:Middlewares/Third_Party/FreeRTOS/Source/timers.c **** 
 565:Middlewares/Third_Party/FreeRTOS/Source/timers.c ****     static void prvProcessExpiredTimer( const TickType_t xNextExpireTime,
 566:Middlewares/Third_Party/FreeRTOS/Source/timers.c ****                                         const TickType_t xTimeNow )
 567:Middlewares/Third_Party/FreeRTOS/Source/timers.c ****     {
 1321              		.loc 1 567 5
 1322              		.cfi_startproc
 1323              		@ args = 0, pretend = 0, frame = 16
 1324              		@ frame_needed = 1, uses_anonymous_args = 0
 1325 0000 80B5     		push	{r7, lr}
 1326              	.LCFI75:
 1327              		.cfi_def_cfa_offset 8
 1328              		.cfi_offset 7, -8
 1329              		.cfi_offset 14, -4
 1330 0002 84B0     		sub	sp, sp, #16
 1331              	.LCFI76:
 1332              		.cfi_def_cfa_offset 24
 1333 0004 00AF     		add	r7, sp, #0
 1334              	.LCFI77:
 1335              		.cfi_def_cfa_register 7
 1336 0006 7860     		str	r0, [r7, #4]
 1337 0008 3960     		str	r1, [r7]
 568:Middlewares/Third_Party/FreeRTOS/Source/timers.c ****         Timer_t * const pxTimer = ( Timer_t * ) listGET_OWNER_OF_HEAD_ENTRY( pxCurrentTimerList ); 
 1338              		.loc 1 568 49
 1339 000a 144B     		ldr	r3, .L76
 1340 000c 1B68     		ldr	r3, [r3]
 1341 000e DB68     		ldr	r3, [r3, #12]
 1342              		.loc 1 568 25
 1343 0010 DB68     		ldr	r3, [r3, #12]
 1344 0012 FB60     		str	r3, [r7, #12]
 569:Middlewares/Third_Party/FreeRTOS/Source/timers.c **** 
 570:Middlewares/Third_Party/FreeRTOS/Source/timers.c ****         /* Remove the timer from the list of active timers.  A check has already
ARM GAS  C:\Users\alanl\AppData\Local\Temp\ccySaGgX.s 			page 38


 571:Middlewares/Third_Party/FreeRTOS/Source/timers.c ****          * been performed to ensure the list is not empty. */
 572:Middlewares/Third_Party/FreeRTOS/Source/timers.c **** 
 573:Middlewares/Third_Party/FreeRTOS/Source/timers.c ****         ( void ) uxListRemove( &( pxTimer->xTimerListItem ) );
 1345              		.loc 1 573 18
 1346 0014 FB68     		ldr	r3, [r7, #12]
 1347 0016 0433     		adds	r3, r3, #4
 1348 0018 1846     		mov	r0, r3
 1349 001a FFF7FEFF 		bl	uxListRemove
 574:Middlewares/Third_Party/FreeRTOS/Source/timers.c **** 
 575:Middlewares/Third_Party/FreeRTOS/Source/timers.c ****         /* If the timer is an auto-reload timer then calculate the next
 576:Middlewares/Third_Party/FreeRTOS/Source/timers.c ****          * expiry time and re-insert the timer in the list of active timers. */
 577:Middlewares/Third_Party/FreeRTOS/Source/timers.c ****         if( ( pxTimer->ucStatus & tmrSTATUS_IS_AUTORELOAD ) != 0 )
 1350              		.loc 1 577 22
 1351 001e FB68     		ldr	r3, [r7, #12]
 1352 0020 93F82830 		ldrb	r3, [r3, #40]	@ zero_extendqisi2
 1353              		.loc 1 577 33
 1354 0024 03F00403 		and	r3, r3, #4
 1355              		.loc 1 577 11
 1356 0028 002B     		cmp	r3, #0
 1357 002a 05D0     		beq	.L74
 578:Middlewares/Third_Party/FreeRTOS/Source/timers.c ****         {
 579:Middlewares/Third_Party/FreeRTOS/Source/timers.c ****             prvReloadTimer( pxTimer, xNextExpireTime, xTimeNow );
 1358              		.loc 1 579 13
 1359 002c 3A68     		ldr	r2, [r7]
 1360 002e 7968     		ldr	r1, [r7, #4]
 1361 0030 F868     		ldr	r0, [r7, #12]
 1362 0032 FFF7FEFF 		bl	prvReloadTimer
 1363 0036 08E0     		b	.L75
 1364              	.L74:
 580:Middlewares/Third_Party/FreeRTOS/Source/timers.c ****         }
 581:Middlewares/Third_Party/FreeRTOS/Source/timers.c ****         else
 582:Middlewares/Third_Party/FreeRTOS/Source/timers.c ****         {
 583:Middlewares/Third_Party/FreeRTOS/Source/timers.c ****             pxTimer->ucStatus &= ( ( uint8_t ) ~tmrSTATUS_IS_ACTIVE );
 1365              		.loc 1 583 20
 1366 0038 FB68     		ldr	r3, [r7, #12]
 1367 003a 93F82830 		ldrb	r3, [r3, #40]	@ zero_extendqisi2
 1368              		.loc 1 583 31
 1369 003e 23F00103 		bic	r3, r3, #1
 1370 0042 DAB2     		uxtb	r2, r3
 1371 0044 FB68     		ldr	r3, [r7, #12]
 1372 0046 83F82820 		strb	r2, [r3, #40]
 1373              	.L75:
 584:Middlewares/Third_Party/FreeRTOS/Source/timers.c ****         }
 585:Middlewares/Third_Party/FreeRTOS/Source/timers.c **** 
 586:Middlewares/Third_Party/FreeRTOS/Source/timers.c ****         /* Call the timer callback. */
 587:Middlewares/Third_Party/FreeRTOS/Source/timers.c ****         traceTIMER_EXPIRED( pxTimer );
 588:Middlewares/Third_Party/FreeRTOS/Source/timers.c ****         pxTimer->pxCallbackFunction( ( TimerHandle_t ) pxTimer );
 1374              		.loc 1 588 16
 1375 004a FB68     		ldr	r3, [r7, #12]
 1376 004c 1B6A     		ldr	r3, [r3, #32]
 1377              		.loc 1 588 9
 1378 004e F868     		ldr	r0, [r7, #12]
 1379 0050 9847     		blx	r3
 1380              	.LVL1:
 589:Middlewares/Third_Party/FreeRTOS/Source/timers.c ****     }
 1381              		.loc 1 589 5
 1382 0052 00BF     		nop
ARM GAS  C:\Users\alanl\AppData\Local\Temp\ccySaGgX.s 			page 39


 1383 0054 1037     		adds	r7, r7, #16
 1384              	.LCFI78:
 1385              		.cfi_def_cfa_offset 8
 1386 0056 BD46     		mov	sp, r7
 1387              	.LCFI79:
 1388              		.cfi_def_cfa_register 13
 1389              		@ sp needed
 1390 0058 80BD     		pop	{r7, pc}
 1391              	.L77:
 1392 005a 00BF     		.align	2
 1393              	.L76:
 1394 005c 00000000 		.word	pxCurrentTimerList
 1395              		.cfi_endproc
 1396              	.LFE18:
 1398              		.section	.text.prvTimerTask,"ax",%progbits
 1399              		.align	1
 1400              		.syntax unified
 1401              		.thumb
 1402              		.thumb_func
 1404              	prvTimerTask:
 1405              	.LFB19:
 590:Middlewares/Third_Party/FreeRTOS/Source/timers.c **** /*-----------------------------------------------------------*/
 591:Middlewares/Third_Party/FreeRTOS/Source/timers.c **** 
 592:Middlewares/Third_Party/FreeRTOS/Source/timers.c ****     static portTASK_FUNCTION( prvTimerTask, pvParameters )
 593:Middlewares/Third_Party/FreeRTOS/Source/timers.c ****     {
 1406              		.loc 1 593 5
 1407              		.cfi_startproc
 1408              		@ args = 0, pretend = 0, frame = 16
 1409              		@ frame_needed = 1, uses_anonymous_args = 0
 1410 0000 80B5     		push	{r7, lr}
 1411              	.LCFI80:
 1412              		.cfi_def_cfa_offset 8
 1413              		.cfi_offset 7, -8
 1414              		.cfi_offset 14, -4
 1415 0002 84B0     		sub	sp, sp, #16
 1416              	.LCFI81:
 1417              		.cfi_def_cfa_offset 24
 1418 0004 00AF     		add	r7, sp, #0
 1419              	.LCFI82:
 1420              		.cfi_def_cfa_register 7
 1421 0006 7860     		str	r0, [r7, #4]
 1422              	.L79:
 594:Middlewares/Third_Party/FreeRTOS/Source/timers.c ****         TickType_t xNextExpireTime;
 595:Middlewares/Third_Party/FreeRTOS/Source/timers.c ****         BaseType_t xListWasEmpty;
 596:Middlewares/Third_Party/FreeRTOS/Source/timers.c **** 
 597:Middlewares/Third_Party/FreeRTOS/Source/timers.c ****         /* Just to avoid compiler warnings. */
 598:Middlewares/Third_Party/FreeRTOS/Source/timers.c ****         ( void ) pvParameters;
 599:Middlewares/Third_Party/FreeRTOS/Source/timers.c **** 
 600:Middlewares/Third_Party/FreeRTOS/Source/timers.c ****         #if ( configUSE_DAEMON_TASK_STARTUP_HOOK == 1 )
 601:Middlewares/Third_Party/FreeRTOS/Source/timers.c ****         {
 602:Middlewares/Third_Party/FreeRTOS/Source/timers.c ****             /* Allow the application writer to execute some code in the context of
 603:Middlewares/Third_Party/FreeRTOS/Source/timers.c ****              * this task at the point the task starts executing.  This is useful if the
 604:Middlewares/Third_Party/FreeRTOS/Source/timers.c ****              * application includes initialisation code that would benefit from
 605:Middlewares/Third_Party/FreeRTOS/Source/timers.c ****              * executing after the scheduler has been started. */
 606:Middlewares/Third_Party/FreeRTOS/Source/timers.c ****             vApplicationDaemonTaskStartupHook();
 607:Middlewares/Third_Party/FreeRTOS/Source/timers.c ****         }
 608:Middlewares/Third_Party/FreeRTOS/Source/timers.c ****         #endif /* configUSE_DAEMON_TASK_STARTUP_HOOK */
ARM GAS  C:\Users\alanl\AppData\Local\Temp\ccySaGgX.s 			page 40


 609:Middlewares/Third_Party/FreeRTOS/Source/timers.c **** 
 610:Middlewares/Third_Party/FreeRTOS/Source/timers.c ****         for( ; ; )
 611:Middlewares/Third_Party/FreeRTOS/Source/timers.c ****         {
 612:Middlewares/Third_Party/FreeRTOS/Source/timers.c ****             /* Query the timers list to see if it contains any timers, and if so,
 613:Middlewares/Third_Party/FreeRTOS/Source/timers.c ****              * obtain the time at which the next timer will expire. */
 614:Middlewares/Third_Party/FreeRTOS/Source/timers.c ****             xNextExpireTime = prvGetNextExpireTime( &xListWasEmpty );
 1423              		.loc 1 614 31
 1424 0008 07F10803 		add	r3, r7, #8
 1425 000c 1846     		mov	r0, r3
 1426 000e FFF7FEFF 		bl	prvGetNextExpireTime
 1427 0012 F860     		str	r0, [r7, #12]
 615:Middlewares/Third_Party/FreeRTOS/Source/timers.c **** 
 616:Middlewares/Third_Party/FreeRTOS/Source/timers.c ****             /* If a timer has expired, process it.  Otherwise, block this task
 617:Middlewares/Third_Party/FreeRTOS/Source/timers.c ****              * until either a timer does expire, or a command is received. */
 618:Middlewares/Third_Party/FreeRTOS/Source/timers.c ****             prvProcessTimerOrBlockTask( xNextExpireTime, xListWasEmpty );
 1428              		.loc 1 618 13
 1429 0014 BB68     		ldr	r3, [r7, #8]
 1430 0016 1946     		mov	r1, r3
 1431 0018 F868     		ldr	r0, [r7, #12]
 1432 001a FFF7FEFF 		bl	prvProcessTimerOrBlockTask
 619:Middlewares/Third_Party/FreeRTOS/Source/timers.c **** 
 620:Middlewares/Third_Party/FreeRTOS/Source/timers.c ****             /* Empty the command queue. */
 621:Middlewares/Third_Party/FreeRTOS/Source/timers.c ****             prvProcessReceivedCommands();
 1433              		.loc 1 621 13 discriminator 1
 1434 001e FFF7FEFF 		bl	prvProcessReceivedCommands
 614:Middlewares/Third_Party/FreeRTOS/Source/timers.c **** 
 1435              		.loc 1 614 29
 1436 0022 00BF     		nop
 1437 0024 F0E7     		b	.L79
 1438              		.cfi_endproc
 1439              	.LFE19:
 1441              		.section	.text.prvProcessTimerOrBlockTask,"ax",%progbits
 1442              		.align	1
 1443              		.syntax unified
 1444              		.thumb
 1445              		.thumb_func
 1447              	prvProcessTimerOrBlockTask:
 1448              	.LFB20:
 622:Middlewares/Third_Party/FreeRTOS/Source/timers.c ****         }
 623:Middlewares/Third_Party/FreeRTOS/Source/timers.c ****     }
 624:Middlewares/Third_Party/FreeRTOS/Source/timers.c **** /*-----------------------------------------------------------*/
 625:Middlewares/Third_Party/FreeRTOS/Source/timers.c **** 
 626:Middlewares/Third_Party/FreeRTOS/Source/timers.c ****     static void prvProcessTimerOrBlockTask( const TickType_t xNextExpireTime,
 627:Middlewares/Third_Party/FreeRTOS/Source/timers.c ****                                             BaseType_t xListWasEmpty )
 628:Middlewares/Third_Party/FreeRTOS/Source/timers.c ****     {
 1449              		.loc 1 628 5
 1450              		.cfi_startproc
 1451              		@ args = 0, pretend = 0, frame = 16
 1452              		@ frame_needed = 1, uses_anonymous_args = 0
 1453 0000 80B5     		push	{r7, lr}
 1454              	.LCFI83:
 1455              		.cfi_def_cfa_offset 8
 1456              		.cfi_offset 7, -8
 1457              		.cfi_offset 14, -4
 1458 0002 84B0     		sub	sp, sp, #16
 1459              	.LCFI84:
 1460              		.cfi_def_cfa_offset 24
ARM GAS  C:\Users\alanl\AppData\Local\Temp\ccySaGgX.s 			page 41


 1461 0004 00AF     		add	r7, sp, #0
 1462              	.LCFI85:
 1463              		.cfi_def_cfa_register 7
 1464 0006 7860     		str	r0, [r7, #4]
 1465 0008 3960     		str	r1, [r7]
 629:Middlewares/Third_Party/FreeRTOS/Source/timers.c ****         TickType_t xTimeNow;
 630:Middlewares/Third_Party/FreeRTOS/Source/timers.c ****         BaseType_t xTimerListsWereSwitched;
 631:Middlewares/Third_Party/FreeRTOS/Source/timers.c **** 
 632:Middlewares/Third_Party/FreeRTOS/Source/timers.c ****         vTaskSuspendAll();
 1466              		.loc 1 632 9
 1467 000a FFF7FEFF 		bl	vTaskSuspendAll
 633:Middlewares/Third_Party/FreeRTOS/Source/timers.c ****         {
 634:Middlewares/Third_Party/FreeRTOS/Source/timers.c ****             /* Obtain the time now to make an assessment as to whether the timer
 635:Middlewares/Third_Party/FreeRTOS/Source/timers.c ****              * has expired or not.  If obtaining the time causes the lists to switch
 636:Middlewares/Third_Party/FreeRTOS/Source/timers.c ****              * then don't process this timer as any timers that remained in the list
 637:Middlewares/Third_Party/FreeRTOS/Source/timers.c ****              * when the lists were switched will have been processed within the
 638:Middlewares/Third_Party/FreeRTOS/Source/timers.c ****              * prvSampleTimeNow() function. */
 639:Middlewares/Third_Party/FreeRTOS/Source/timers.c ****             xTimeNow = prvSampleTimeNow( &xTimerListsWereSwitched );
 1468              		.loc 1 639 24
 1469 000e 07F10803 		add	r3, r7, #8
 1470 0012 1846     		mov	r0, r3
 1471 0014 FFF7FEFF 		bl	prvSampleTimeNow
 1472 0018 F860     		str	r0, [r7, #12]
 640:Middlewares/Third_Party/FreeRTOS/Source/timers.c **** 
 641:Middlewares/Third_Party/FreeRTOS/Source/timers.c ****             if( xTimerListsWereSwitched == pdFALSE )
 1473              		.loc 1 641 41
 1474 001a BB68     		ldr	r3, [r7, #8]
 1475              		.loc 1 641 15
 1476 001c 002B     		cmp	r3, #0
 1477 001e 30D1     		bne	.L81
 642:Middlewares/Third_Party/FreeRTOS/Source/timers.c ****             {
 643:Middlewares/Third_Party/FreeRTOS/Source/timers.c ****                 /* The tick count has not overflowed, has the timer expired? */
 644:Middlewares/Third_Party/FreeRTOS/Source/timers.c ****                 if( ( xListWasEmpty == pdFALSE ) && ( xNextExpireTime <= xTimeNow ) )
 1478              		.loc 1 644 19
 1479 0020 3B68     		ldr	r3, [r7]
 1480 0022 002B     		cmp	r3, #0
 1481 0024 0AD1     		bne	.L82
 1482              		.loc 1 644 50 discriminator 1
 1483 0026 7A68     		ldr	r2, [r7, #4]
 1484 0028 FB68     		ldr	r3, [r7, #12]
 1485 002a 9A42     		cmp	r2, r3
 1486 002c 06D8     		bhi	.L82
 645:Middlewares/Third_Party/FreeRTOS/Source/timers.c ****                 {
 646:Middlewares/Third_Party/FreeRTOS/Source/timers.c ****                     ( void ) xTaskResumeAll();
 1487              		.loc 1 646 30
 1488 002e FFF7FEFF 		bl	xTaskResumeAll
 647:Middlewares/Third_Party/FreeRTOS/Source/timers.c ****                     prvProcessExpiredTimer( xNextExpireTime, xTimeNow );
 1489              		.loc 1 647 21
 1490 0032 F968     		ldr	r1, [r7, #12]
 1491 0034 7868     		ldr	r0, [r7, #4]
 1492 0036 FFF7FEFF 		bl	prvProcessExpiredTimer
 648:Middlewares/Third_Party/FreeRTOS/Source/timers.c ****                 }
 649:Middlewares/Third_Party/FreeRTOS/Source/timers.c ****                 else
 650:Middlewares/Third_Party/FreeRTOS/Source/timers.c ****                 {
 651:Middlewares/Third_Party/FreeRTOS/Source/timers.c ****                     /* The tick count has not overflowed, and the next expire
 652:Middlewares/Third_Party/FreeRTOS/Source/timers.c ****                      * time has not been reached yet.  This task should therefore
 653:Middlewares/Third_Party/FreeRTOS/Source/timers.c ****                      * block to wait for the next expire time or a command to be
ARM GAS  C:\Users\alanl\AppData\Local\Temp\ccySaGgX.s 			page 42


 654:Middlewares/Third_Party/FreeRTOS/Source/timers.c ****                      * received - whichever comes first.  The following line cannot
 655:Middlewares/Third_Party/FreeRTOS/Source/timers.c ****                      * be reached unless xNextExpireTime > xTimeNow, except in the
 656:Middlewares/Third_Party/FreeRTOS/Source/timers.c ****                      * case when the current timer list is empty. */
 657:Middlewares/Third_Party/FreeRTOS/Source/timers.c ****                     if( xListWasEmpty != pdFALSE )
 658:Middlewares/Third_Party/FreeRTOS/Source/timers.c ****                     {
 659:Middlewares/Third_Party/FreeRTOS/Source/timers.c ****                         /* The current timer list is empty - is the overflow list
 660:Middlewares/Third_Party/FreeRTOS/Source/timers.c ****                          * also empty? */
 661:Middlewares/Third_Party/FreeRTOS/Source/timers.c ****                         xListWasEmpty = listLIST_IS_EMPTY( pxOverflowTimerList );
 662:Middlewares/Third_Party/FreeRTOS/Source/timers.c ****                     }
 663:Middlewares/Third_Party/FreeRTOS/Source/timers.c **** 
 664:Middlewares/Third_Party/FreeRTOS/Source/timers.c ****                     vQueueWaitForMessageRestricted( xTimerQueue, ( xNextExpireTime - xTimeNow ), xL
 665:Middlewares/Third_Party/FreeRTOS/Source/timers.c **** 
 666:Middlewares/Third_Party/FreeRTOS/Source/timers.c ****                     if( xTaskResumeAll() == pdFALSE )
 667:Middlewares/Third_Party/FreeRTOS/Source/timers.c ****                     {
 668:Middlewares/Third_Party/FreeRTOS/Source/timers.c ****                         /* Yield to wait for either a command to arrive, or the
 669:Middlewares/Third_Party/FreeRTOS/Source/timers.c ****                          * block time to expire.  If a command arrived between the
 670:Middlewares/Third_Party/FreeRTOS/Source/timers.c ****                          * critical section being exited and this yield then the yield
 671:Middlewares/Third_Party/FreeRTOS/Source/timers.c ****                          * will not cause the task to block. */
 672:Middlewares/Third_Party/FreeRTOS/Source/timers.c ****                         portYIELD_WITHIN_API();
 673:Middlewares/Third_Party/FreeRTOS/Source/timers.c ****                     }
 674:Middlewares/Third_Party/FreeRTOS/Source/timers.c ****                     else
 675:Middlewares/Third_Party/FreeRTOS/Source/timers.c ****                     {
 676:Middlewares/Third_Party/FreeRTOS/Source/timers.c ****                         mtCOVERAGE_TEST_MARKER();
 677:Middlewares/Third_Party/FreeRTOS/Source/timers.c ****                     }
 678:Middlewares/Third_Party/FreeRTOS/Source/timers.c ****                 }
 679:Middlewares/Third_Party/FreeRTOS/Source/timers.c ****             }
 680:Middlewares/Third_Party/FreeRTOS/Source/timers.c ****             else
 681:Middlewares/Third_Party/FreeRTOS/Source/timers.c ****             {
 682:Middlewares/Third_Party/FreeRTOS/Source/timers.c ****                 ( void ) xTaskResumeAll();
 683:Middlewares/Third_Party/FreeRTOS/Source/timers.c ****             }
 684:Middlewares/Third_Party/FreeRTOS/Source/timers.c ****         }
 685:Middlewares/Third_Party/FreeRTOS/Source/timers.c ****     }
 1493              		.loc 1 685 5
 1494 003a 24E0     		b	.L88
 1495              	.L82:
 657:Middlewares/Third_Party/FreeRTOS/Source/timers.c ****                     {
 1496              		.loc 1 657 23
 1497 003c 3B68     		ldr	r3, [r7]
 1498 003e 002B     		cmp	r3, #0
 1499 0040 08D0     		beq	.L84
 661:Middlewares/Third_Party/FreeRTOS/Source/timers.c ****                     }
 1500              		.loc 1 661 41
 1501 0042 134B     		ldr	r3, .L89
 1502 0044 1B68     		ldr	r3, [r3]
 1503 0046 1B68     		ldr	r3, [r3]
 1504 0048 002B     		cmp	r3, #0
 1505 004a 01D1     		bne	.L85
 661:Middlewares/Third_Party/FreeRTOS/Source/timers.c ****                     }
 1506              		.loc 1 661 41 is_stmt 0 discriminator 1
 1507 004c 0123     		movs	r3, #1
 1508 004e 00E0     		b	.L86
 1509              	.L85:
 661:Middlewares/Third_Party/FreeRTOS/Source/timers.c ****                     }
 1510              		.loc 1 661 41 discriminator 2
 1511 0050 0023     		movs	r3, #0
 1512              	.L86:
 661:Middlewares/Third_Party/FreeRTOS/Source/timers.c ****                     }
ARM GAS  C:\Users\alanl\AppData\Local\Temp\ccySaGgX.s 			page 43


 1513              		.loc 1 661 39 is_stmt 1 discriminator 4
 1514 0052 3B60     		str	r3, [r7]
 1515              	.L84:
 664:Middlewares/Third_Party/FreeRTOS/Source/timers.c **** 
 1516              		.loc 1 664 21
 1517 0054 0F4B     		ldr	r3, .L89+4
 1518 0056 1868     		ldr	r0, [r3]
 1519 0058 7A68     		ldr	r2, [r7, #4]
 1520 005a FB68     		ldr	r3, [r7, #12]
 1521 005c D31A     		subs	r3, r2, r3
 1522 005e 3A68     		ldr	r2, [r7]
 1523 0060 1946     		mov	r1, r3
 1524 0062 FFF7FEFF 		bl	vQueueWaitForMessageRestricted
 666:Middlewares/Third_Party/FreeRTOS/Source/timers.c ****                     {
 1525              		.loc 1 666 25
 1526 0066 FFF7FEFF 		bl	xTaskResumeAll
 1527 006a 0346     		mov	r3, r0
 666:Middlewares/Third_Party/FreeRTOS/Source/timers.c ****                     {
 1528              		.loc 1 666 23 discriminator 1
 1529 006c 002B     		cmp	r3, #0
 1530 006e 0AD1     		bne	.L88
 672:Middlewares/Third_Party/FreeRTOS/Source/timers.c ****                     }
 1531              		.loc 1 672 25
 1532 0070 094B     		ldr	r3, .L89+8
 1533 0072 4FF08052 		mov	r2, #268435456
 1534 0076 1A60     		str	r2, [r3]
 1535              		.syntax unified
 1536              	@ 672 "Middlewares/Third_Party/FreeRTOS/Source/timers.c" 1
 1537 0078 BFF34F8F 		dsb
 1538              	@ 0 "" 2
 1539              	@ 672 "Middlewares/Third_Party/FreeRTOS/Source/timers.c" 1
 1540 007c BFF36F8F 		isb
 1541              	@ 0 "" 2
 1542              		.loc 1 685 5
 1543              		.thumb
 1544              		.syntax unified
 1545 0080 01E0     		b	.L88
 1546              	.L81:
 682:Middlewares/Third_Party/FreeRTOS/Source/timers.c ****             }
 1547              		.loc 1 682 26
 1548 0082 FFF7FEFF 		bl	xTaskResumeAll
 1549              	.L88:
 1550              		.loc 1 685 5
 1551 0086 00BF     		nop
 1552 0088 1037     		adds	r7, r7, #16
 1553              	.LCFI86:
 1554              		.cfi_def_cfa_offset 8
 1555 008a BD46     		mov	sp, r7
 1556              	.LCFI87:
 1557              		.cfi_def_cfa_register 13
 1558              		@ sp needed
 1559 008c 80BD     		pop	{r7, pc}
 1560              	.L90:
 1561 008e 00BF     		.align	2
 1562              	.L89:
 1563 0090 00000000 		.word	pxOverflowTimerList
 1564 0094 00000000 		.word	xTimerQueue
ARM GAS  C:\Users\alanl\AppData\Local\Temp\ccySaGgX.s 			page 44


 1565 0098 04ED00E0 		.word	-536810236
 1566              		.cfi_endproc
 1567              	.LFE20:
 1569              		.section	.text.prvGetNextExpireTime,"ax",%progbits
 1570              		.align	1
 1571              		.syntax unified
 1572              		.thumb
 1573              		.thumb_func
 1575              	prvGetNextExpireTime:
 1576              	.LFB21:
 686:Middlewares/Third_Party/FreeRTOS/Source/timers.c **** /*-----------------------------------------------------------*/
 687:Middlewares/Third_Party/FreeRTOS/Source/timers.c **** 
 688:Middlewares/Third_Party/FreeRTOS/Source/timers.c ****     static TickType_t prvGetNextExpireTime( BaseType_t * const pxListWasEmpty )
 689:Middlewares/Third_Party/FreeRTOS/Source/timers.c ****     {
 1577              		.loc 1 689 5
 1578              		.cfi_startproc
 1579              		@ args = 0, pretend = 0, frame = 16
 1580              		@ frame_needed = 1, uses_anonymous_args = 0
 1581              		@ link register save eliminated.
 1582 0000 80B4     		push	{r7}
 1583              	.LCFI88:
 1584              		.cfi_def_cfa_offset 4
 1585              		.cfi_offset 7, -4
 1586 0002 85B0     		sub	sp, sp, #20
 1587              	.LCFI89:
 1588              		.cfi_def_cfa_offset 24
 1589 0004 00AF     		add	r7, sp, #0
 1590              	.LCFI90:
 1591              		.cfi_def_cfa_register 7
 1592 0006 7860     		str	r0, [r7, #4]
 690:Middlewares/Third_Party/FreeRTOS/Source/timers.c ****         TickType_t xNextExpireTime;
 691:Middlewares/Third_Party/FreeRTOS/Source/timers.c **** 
 692:Middlewares/Third_Party/FreeRTOS/Source/timers.c ****         /* Timers are listed in expiry time order, with the head of the list
 693:Middlewares/Third_Party/FreeRTOS/Source/timers.c ****          * referencing the task that will expire first.  Obtain the time at which
 694:Middlewares/Third_Party/FreeRTOS/Source/timers.c ****          * the timer with the nearest expiry time will expire.  If there are no
 695:Middlewares/Third_Party/FreeRTOS/Source/timers.c ****          * active timers then just set the next expire time to 0.  That will cause
 696:Middlewares/Third_Party/FreeRTOS/Source/timers.c ****          * this task to unblock when the tick count overflows, at which point the
 697:Middlewares/Third_Party/FreeRTOS/Source/timers.c ****          * timer lists will be switched and the next expiry time can be
 698:Middlewares/Third_Party/FreeRTOS/Source/timers.c ****          * re-assessed.  */
 699:Middlewares/Third_Party/FreeRTOS/Source/timers.c ****         *pxListWasEmpty = listLIST_IS_EMPTY( pxCurrentTimerList );
 1593              		.loc 1 699 27
 1594 0008 0E4B     		ldr	r3, .L97
 1595 000a 1B68     		ldr	r3, [r3]
 1596 000c 1B68     		ldr	r3, [r3]
 1597 000e 002B     		cmp	r3, #0
 1598 0010 01D1     		bne	.L92
 1599              		.loc 1 699 27 is_stmt 0 discriminator 1
 1600 0012 0122     		movs	r2, #1
 1601 0014 00E0     		b	.L93
 1602              	.L92:
 1603              		.loc 1 699 27 discriminator 2
 1604 0016 0022     		movs	r2, #0
 1605              	.L93:
 1606              		.loc 1 699 25 is_stmt 1 discriminator 4
 1607 0018 7B68     		ldr	r3, [r7, #4]
 1608 001a 1A60     		str	r2, [r3]
 700:Middlewares/Third_Party/FreeRTOS/Source/timers.c **** 
ARM GAS  C:\Users\alanl\AppData\Local\Temp\ccySaGgX.s 			page 45


 701:Middlewares/Third_Party/FreeRTOS/Source/timers.c ****         if( *pxListWasEmpty == pdFALSE )
 1609              		.loc 1 701 13
 1610 001c 7B68     		ldr	r3, [r7, #4]
 1611 001e 1B68     		ldr	r3, [r3]
 1612              		.loc 1 701 11
 1613 0020 002B     		cmp	r3, #0
 1614 0022 05D1     		bne	.L94
 702:Middlewares/Third_Party/FreeRTOS/Source/timers.c ****         {
 703:Middlewares/Third_Party/FreeRTOS/Source/timers.c ****             xNextExpireTime = listGET_ITEM_VALUE_OF_HEAD_ENTRY( pxCurrentTimerList );
 1615              		.loc 1 703 31
 1616 0024 074B     		ldr	r3, .L97
 1617 0026 1B68     		ldr	r3, [r3]
 1618 0028 DB68     		ldr	r3, [r3, #12]
 1619              		.loc 1 703 29
 1620 002a 1B68     		ldr	r3, [r3]
 1621 002c FB60     		str	r3, [r7, #12]
 1622 002e 01E0     		b	.L95
 1623              	.L94:
 704:Middlewares/Third_Party/FreeRTOS/Source/timers.c ****         }
 705:Middlewares/Third_Party/FreeRTOS/Source/timers.c ****         else
 706:Middlewares/Third_Party/FreeRTOS/Source/timers.c ****         {
 707:Middlewares/Third_Party/FreeRTOS/Source/timers.c ****             /* Ensure the task unblocks when the tick count rolls over. */
 708:Middlewares/Third_Party/FreeRTOS/Source/timers.c ****             xNextExpireTime = ( TickType_t ) 0U;
 1624              		.loc 1 708 29
 1625 0030 0023     		movs	r3, #0
 1626 0032 FB60     		str	r3, [r7, #12]
 1627              	.L95:
 709:Middlewares/Third_Party/FreeRTOS/Source/timers.c ****         }
 710:Middlewares/Third_Party/FreeRTOS/Source/timers.c **** 
 711:Middlewares/Third_Party/FreeRTOS/Source/timers.c ****         return xNextExpireTime;
 1628              		.loc 1 711 16
 1629 0034 FB68     		ldr	r3, [r7, #12]
 712:Middlewares/Third_Party/FreeRTOS/Source/timers.c ****     }
 1630              		.loc 1 712 5
 1631 0036 1846     		mov	r0, r3
 1632 0038 1437     		adds	r7, r7, #20
 1633              	.LCFI91:
 1634              		.cfi_def_cfa_offset 4
 1635 003a BD46     		mov	sp, r7
 1636              	.LCFI92:
 1637              		.cfi_def_cfa_register 13
 1638              		@ sp needed
 1639 003c 5DF8047B 		ldr	r7, [sp], #4
 1640              	.LCFI93:
 1641              		.cfi_restore 7
 1642              		.cfi_def_cfa_offset 0
 1643 0040 7047     		bx	lr
 1644              	.L98:
 1645 0042 00BF     		.align	2
 1646              	.L97:
 1647 0044 00000000 		.word	pxCurrentTimerList
 1648              		.cfi_endproc
 1649              	.LFE21:
 1651              		.section	.text.prvSampleTimeNow,"ax",%progbits
 1652              		.align	1
 1653              		.syntax unified
 1654              		.thumb
ARM GAS  C:\Users\alanl\AppData\Local\Temp\ccySaGgX.s 			page 46


 1655              		.thumb_func
 1657              	prvSampleTimeNow:
 1658              	.LFB22:
 713:Middlewares/Third_Party/FreeRTOS/Source/timers.c **** /*-----------------------------------------------------------*/
 714:Middlewares/Third_Party/FreeRTOS/Source/timers.c **** 
 715:Middlewares/Third_Party/FreeRTOS/Source/timers.c ****     static TickType_t prvSampleTimeNow( BaseType_t * const pxTimerListsWereSwitched )
 716:Middlewares/Third_Party/FreeRTOS/Source/timers.c ****     {
 1659              		.loc 1 716 5
 1660              		.cfi_startproc
 1661              		@ args = 0, pretend = 0, frame = 16
 1662              		@ frame_needed = 1, uses_anonymous_args = 0
 1663 0000 80B5     		push	{r7, lr}
 1664              	.LCFI94:
 1665              		.cfi_def_cfa_offset 8
 1666              		.cfi_offset 7, -8
 1667              		.cfi_offset 14, -4
 1668 0002 84B0     		sub	sp, sp, #16
 1669              	.LCFI95:
 1670              		.cfi_def_cfa_offset 24
 1671 0004 00AF     		add	r7, sp, #0
 1672              	.LCFI96:
 1673              		.cfi_def_cfa_register 7
 1674 0006 7860     		str	r0, [r7, #4]
 717:Middlewares/Third_Party/FreeRTOS/Source/timers.c ****         TickType_t xTimeNow;
 718:Middlewares/Third_Party/FreeRTOS/Source/timers.c ****         PRIVILEGED_DATA static TickType_t xLastTime = ( TickType_t ) 0U; /*lint !e956 Variable is o
 719:Middlewares/Third_Party/FreeRTOS/Source/timers.c **** 
 720:Middlewares/Third_Party/FreeRTOS/Source/timers.c ****         xTimeNow = xTaskGetTickCount();
 1675              		.loc 1 720 20
 1676 0008 FFF7FEFF 		bl	xTaskGetTickCount
 1677 000c F860     		str	r0, [r7, #12]
 721:Middlewares/Third_Party/FreeRTOS/Source/timers.c **** 
 722:Middlewares/Third_Party/FreeRTOS/Source/timers.c ****         if( xTimeNow < xLastTime )
 1678              		.loc 1 722 22
 1679 000e 0B4B     		ldr	r3, .L103
 1680 0010 1B68     		ldr	r3, [r3]
 1681              		.loc 1 722 11
 1682 0012 FA68     		ldr	r2, [r7, #12]
 1683 0014 9A42     		cmp	r2, r3
 1684 0016 05D2     		bcs	.L100
 723:Middlewares/Third_Party/FreeRTOS/Source/timers.c ****         {
 724:Middlewares/Third_Party/FreeRTOS/Source/timers.c ****             prvSwitchTimerLists();
 1685              		.loc 1 724 13
 1686 0018 FFF7FEFF 		bl	prvSwitchTimerLists
 725:Middlewares/Third_Party/FreeRTOS/Source/timers.c ****             *pxTimerListsWereSwitched = pdTRUE;
 1687              		.loc 1 725 39
 1688 001c 7B68     		ldr	r3, [r7, #4]
 1689 001e 0122     		movs	r2, #1
 1690 0020 1A60     		str	r2, [r3]
 1691 0022 02E0     		b	.L101
 1692              	.L100:
 726:Middlewares/Third_Party/FreeRTOS/Source/timers.c ****         }
 727:Middlewares/Third_Party/FreeRTOS/Source/timers.c ****         else
 728:Middlewares/Third_Party/FreeRTOS/Source/timers.c ****         {
 729:Middlewares/Third_Party/FreeRTOS/Source/timers.c ****             *pxTimerListsWereSwitched = pdFALSE;
 1693              		.loc 1 729 39
 1694 0024 7B68     		ldr	r3, [r7, #4]
 1695 0026 0022     		movs	r2, #0
ARM GAS  C:\Users\alanl\AppData\Local\Temp\ccySaGgX.s 			page 47


 1696 0028 1A60     		str	r2, [r3]
 1697              	.L101:
 730:Middlewares/Third_Party/FreeRTOS/Source/timers.c ****         }
 731:Middlewares/Third_Party/FreeRTOS/Source/timers.c **** 
 732:Middlewares/Third_Party/FreeRTOS/Source/timers.c ****         xLastTime = xTimeNow;
 1698              		.loc 1 732 19
 1699 002a 044A     		ldr	r2, .L103
 1700 002c FB68     		ldr	r3, [r7, #12]
 1701 002e 1360     		str	r3, [r2]
 733:Middlewares/Third_Party/FreeRTOS/Source/timers.c **** 
 734:Middlewares/Third_Party/FreeRTOS/Source/timers.c ****         return xTimeNow;
 1702              		.loc 1 734 16
 1703 0030 FB68     		ldr	r3, [r7, #12]
 735:Middlewares/Third_Party/FreeRTOS/Source/timers.c ****     }
 1704              		.loc 1 735 5
 1705 0032 1846     		mov	r0, r3
 1706 0034 1037     		adds	r7, r7, #16
 1707              	.LCFI97:
 1708              		.cfi_def_cfa_offset 8
 1709 0036 BD46     		mov	sp, r7
 1710              	.LCFI98:
 1711              		.cfi_def_cfa_register 13
 1712              		@ sp needed
 1713 0038 80BD     		pop	{r7, pc}
 1714              	.L104:
 1715 003a 00BF     		.align	2
 1716              	.L103:
 1717 003c 00000000 		.word	xLastTime.2
 1718              		.cfi_endproc
 1719              	.LFE22:
 1721              		.section	.text.prvInsertTimerInActiveList,"ax",%progbits
 1722              		.align	1
 1723              		.syntax unified
 1724              		.thumb
 1725              		.thumb_func
 1727              	prvInsertTimerInActiveList:
 1728              	.LFB23:
 736:Middlewares/Third_Party/FreeRTOS/Source/timers.c **** /*-----------------------------------------------------------*/
 737:Middlewares/Third_Party/FreeRTOS/Source/timers.c **** 
 738:Middlewares/Third_Party/FreeRTOS/Source/timers.c ****     static BaseType_t prvInsertTimerInActiveList( Timer_t * const pxTimer,
 739:Middlewares/Third_Party/FreeRTOS/Source/timers.c ****                                                   const TickType_t xNextExpiryTime,
 740:Middlewares/Third_Party/FreeRTOS/Source/timers.c ****                                                   const TickType_t xTimeNow,
 741:Middlewares/Third_Party/FreeRTOS/Source/timers.c ****                                                   const TickType_t xCommandTime )
 742:Middlewares/Third_Party/FreeRTOS/Source/timers.c ****     {
 1729              		.loc 1 742 5
 1730              		.cfi_startproc
 1731              		@ args = 0, pretend = 0, frame = 24
 1732              		@ frame_needed = 1, uses_anonymous_args = 0
 1733 0000 80B5     		push	{r7, lr}
 1734              	.LCFI99:
 1735              		.cfi_def_cfa_offset 8
 1736              		.cfi_offset 7, -8
 1737              		.cfi_offset 14, -4
 1738 0002 86B0     		sub	sp, sp, #24
 1739              	.LCFI100:
 1740              		.cfi_def_cfa_offset 32
 1741 0004 00AF     		add	r7, sp, #0
ARM GAS  C:\Users\alanl\AppData\Local\Temp\ccySaGgX.s 			page 48


 1742              	.LCFI101:
 1743              		.cfi_def_cfa_register 7
 1744 0006 F860     		str	r0, [r7, #12]
 1745 0008 B960     		str	r1, [r7, #8]
 1746 000a 7A60     		str	r2, [r7, #4]
 1747 000c 3B60     		str	r3, [r7]
 743:Middlewares/Third_Party/FreeRTOS/Source/timers.c ****         BaseType_t xProcessTimerNow = pdFALSE;
 1748              		.loc 1 743 20
 1749 000e 0023     		movs	r3, #0
 1750 0010 7B61     		str	r3, [r7, #20]
 744:Middlewares/Third_Party/FreeRTOS/Source/timers.c **** 
 745:Middlewares/Third_Party/FreeRTOS/Source/timers.c ****         listSET_LIST_ITEM_VALUE( &( pxTimer->xTimerListItem ), xNextExpiryTime );
 1751              		.loc 1 745 9
 1752 0012 FB68     		ldr	r3, [r7, #12]
 1753 0014 BA68     		ldr	r2, [r7, #8]
 1754 0016 5A60     		str	r2, [r3, #4]
 746:Middlewares/Third_Party/FreeRTOS/Source/timers.c ****         listSET_LIST_ITEM_OWNER( &( pxTimer->xTimerListItem ), pxTimer );
 1755              		.loc 1 746 9
 1756 0018 FB68     		ldr	r3, [r7, #12]
 1757 001a FA68     		ldr	r2, [r7, #12]
 1758 001c 1A61     		str	r2, [r3, #16]
 747:Middlewares/Third_Party/FreeRTOS/Source/timers.c **** 
 748:Middlewares/Third_Party/FreeRTOS/Source/timers.c ****         if( xNextExpiryTime <= xTimeNow )
 1759              		.loc 1 748 11
 1760 001e BA68     		ldr	r2, [r7, #8]
 1761 0020 7B68     		ldr	r3, [r7, #4]
 1762 0022 9A42     		cmp	r2, r3
 1763 0024 12D8     		bhi	.L106
 749:Middlewares/Third_Party/FreeRTOS/Source/timers.c ****         {
 750:Middlewares/Third_Party/FreeRTOS/Source/timers.c ****             /* Has the expiry time elapsed between the command to start/reset a
 751:Middlewares/Third_Party/FreeRTOS/Source/timers.c ****              * timer was issued, and the time the command was processed? */
 752:Middlewares/Third_Party/FreeRTOS/Source/timers.c ****             if( ( ( TickType_t ) ( xTimeNow - xCommandTime ) ) >= pxTimer->xTimerPeriodInTicks ) /*
 1764              		.loc 1 752 45
 1765 0026 7A68     		ldr	r2, [r7, #4]
 1766 0028 3B68     		ldr	r3, [r7]
 1767 002a D21A     		subs	r2, r2, r3
 1768              		.loc 1 752 74
 1769 002c FB68     		ldr	r3, [r7, #12]
 1770 002e 9B69     		ldr	r3, [r3, #24]
 1771              		.loc 1 752 15
 1772 0030 9A42     		cmp	r2, r3
 1773 0032 02D3     		bcc	.L107
 753:Middlewares/Third_Party/FreeRTOS/Source/timers.c ****             {
 754:Middlewares/Third_Party/FreeRTOS/Source/timers.c ****                 /* The time between a command being issued and the command being
 755:Middlewares/Third_Party/FreeRTOS/Source/timers.c ****                  * processed actually exceeds the timers period.  */
 756:Middlewares/Third_Party/FreeRTOS/Source/timers.c ****                 xProcessTimerNow = pdTRUE;
 1774              		.loc 1 756 34
 1775 0034 0123     		movs	r3, #1
 1776 0036 7B61     		str	r3, [r7, #20]
 1777 0038 1BE0     		b	.L108
 1778              	.L107:
 757:Middlewares/Third_Party/FreeRTOS/Source/timers.c ****             }
 758:Middlewares/Third_Party/FreeRTOS/Source/timers.c ****             else
 759:Middlewares/Third_Party/FreeRTOS/Source/timers.c ****             {
 760:Middlewares/Third_Party/FreeRTOS/Source/timers.c ****                 vListInsert( pxOverflowTimerList, &( pxTimer->xTimerListItem ) );
 1779              		.loc 1 760 17
 1780 003a 104B     		ldr	r3, .L111
ARM GAS  C:\Users\alanl\AppData\Local\Temp\ccySaGgX.s 			page 49


 1781 003c 1A68     		ldr	r2, [r3]
 1782 003e FB68     		ldr	r3, [r7, #12]
 1783 0040 0433     		adds	r3, r3, #4
 1784 0042 1946     		mov	r1, r3
 1785 0044 1046     		mov	r0, r2
 1786 0046 FFF7FEFF 		bl	vListInsert
 1787 004a 12E0     		b	.L108
 1788              	.L106:
 761:Middlewares/Third_Party/FreeRTOS/Source/timers.c ****             }
 762:Middlewares/Third_Party/FreeRTOS/Source/timers.c ****         }
 763:Middlewares/Third_Party/FreeRTOS/Source/timers.c ****         else
 764:Middlewares/Third_Party/FreeRTOS/Source/timers.c ****         {
 765:Middlewares/Third_Party/FreeRTOS/Source/timers.c ****             if( ( xTimeNow < xCommandTime ) && ( xNextExpiryTime >= xCommandTime ) )
 1789              		.loc 1 765 15
 1790 004c 7A68     		ldr	r2, [r7, #4]
 1791 004e 3B68     		ldr	r3, [r7]
 1792 0050 9A42     		cmp	r2, r3
 1793 0052 06D2     		bcs	.L109
 1794              		.loc 1 765 45 discriminator 1
 1795 0054 BA68     		ldr	r2, [r7, #8]
 1796 0056 3B68     		ldr	r3, [r7]
 1797 0058 9A42     		cmp	r2, r3
 1798 005a 02D3     		bcc	.L109
 766:Middlewares/Third_Party/FreeRTOS/Source/timers.c ****             {
 767:Middlewares/Third_Party/FreeRTOS/Source/timers.c ****                 /* If, since the command was issued, the tick count has overflowed
 768:Middlewares/Third_Party/FreeRTOS/Source/timers.c ****                  * but the expiry time has not, then the timer must have already passed
 769:Middlewares/Third_Party/FreeRTOS/Source/timers.c ****                  * its expiry time and should be processed immediately. */
 770:Middlewares/Third_Party/FreeRTOS/Source/timers.c ****                 xProcessTimerNow = pdTRUE;
 1799              		.loc 1 770 34
 1800 005c 0123     		movs	r3, #1
 1801 005e 7B61     		str	r3, [r7, #20]
 1802 0060 07E0     		b	.L108
 1803              	.L109:
 771:Middlewares/Third_Party/FreeRTOS/Source/timers.c ****             }
 772:Middlewares/Third_Party/FreeRTOS/Source/timers.c ****             else
 773:Middlewares/Third_Party/FreeRTOS/Source/timers.c ****             {
 774:Middlewares/Third_Party/FreeRTOS/Source/timers.c ****                 vListInsert( pxCurrentTimerList, &( pxTimer->xTimerListItem ) );
 1804              		.loc 1 774 17
 1805 0062 074B     		ldr	r3, .L111+4
 1806 0064 1A68     		ldr	r2, [r3]
 1807 0066 FB68     		ldr	r3, [r7, #12]
 1808 0068 0433     		adds	r3, r3, #4
 1809 006a 1946     		mov	r1, r3
 1810 006c 1046     		mov	r0, r2
 1811 006e FFF7FEFF 		bl	vListInsert
 1812              	.L108:
 775:Middlewares/Third_Party/FreeRTOS/Source/timers.c ****             }
 776:Middlewares/Third_Party/FreeRTOS/Source/timers.c ****         }
 777:Middlewares/Third_Party/FreeRTOS/Source/timers.c **** 
 778:Middlewares/Third_Party/FreeRTOS/Source/timers.c ****         return xProcessTimerNow;
 1813              		.loc 1 778 16
 1814 0072 7B69     		ldr	r3, [r7, #20]
 779:Middlewares/Third_Party/FreeRTOS/Source/timers.c ****     }
 1815              		.loc 1 779 5
 1816 0074 1846     		mov	r0, r3
 1817 0076 1837     		adds	r7, r7, #24
 1818              	.LCFI102:
ARM GAS  C:\Users\alanl\AppData\Local\Temp\ccySaGgX.s 			page 50


 1819              		.cfi_def_cfa_offset 8
 1820 0078 BD46     		mov	sp, r7
 1821              	.LCFI103:
 1822              		.cfi_def_cfa_register 13
 1823              		@ sp needed
 1824 007a 80BD     		pop	{r7, pc}
 1825              	.L112:
 1826              		.align	2
 1827              	.L111:
 1828 007c 00000000 		.word	pxOverflowTimerList
 1829 0080 00000000 		.word	pxCurrentTimerList
 1830              		.cfi_endproc
 1831              	.LFE23:
 1833              		.section	.text.prvProcessReceivedCommands,"ax",%progbits
 1834              		.align	1
 1835              		.syntax unified
 1836              		.thumb
 1837              		.thumb_func
 1839              	prvProcessReceivedCommands:
 1840              	.LFB24:
 780:Middlewares/Third_Party/FreeRTOS/Source/timers.c **** /*-----------------------------------------------------------*/
 781:Middlewares/Third_Party/FreeRTOS/Source/timers.c **** 
 782:Middlewares/Third_Party/FreeRTOS/Source/timers.c ****     static void prvProcessReceivedCommands( void )
 783:Middlewares/Third_Party/FreeRTOS/Source/timers.c ****     {
 1841              		.loc 1 783 5
 1842              		.cfi_startproc
 1843              		@ args = 0, pretend = 0, frame = 40
 1844              		@ frame_needed = 1, uses_anonymous_args = 0
 1845 0000 80B5     		push	{r7, lr}
 1846              	.LCFI104:
 1847              		.cfi_def_cfa_offset 8
 1848              		.cfi_offset 7, -8
 1849              		.cfi_offset 14, -4
 1850 0002 8AB0     		sub	sp, sp, #40
 1851              	.LCFI105:
 1852              		.cfi_def_cfa_offset 48
 1853 0004 00AF     		add	r7, sp, #0
 1854              	.LCFI106:
 1855              		.cfi_def_cfa_register 7
 784:Middlewares/Third_Party/FreeRTOS/Source/timers.c ****         DaemonTaskMessage_t xMessage;
 785:Middlewares/Third_Party/FreeRTOS/Source/timers.c ****         Timer_t * pxTimer;
 786:Middlewares/Third_Party/FreeRTOS/Source/timers.c ****         BaseType_t xTimerListsWereSwitched;
 787:Middlewares/Third_Party/FreeRTOS/Source/timers.c ****         TickType_t xTimeNow;
 788:Middlewares/Third_Party/FreeRTOS/Source/timers.c **** 
 789:Middlewares/Third_Party/FreeRTOS/Source/timers.c ****         while( xQueueReceive( xTimerQueue, &xMessage, tmrNO_DELAY ) != pdFAIL ) /*lint !e603 xMessa
 1856              		.loc 1 789 14
 1857 0006 C7E0     		b	.L118
 1858              	.L134:
 790:Middlewares/Third_Party/FreeRTOS/Source/timers.c ****         {
 791:Middlewares/Third_Party/FreeRTOS/Source/timers.c ****             #if ( INCLUDE_xTimerPendFunctionCall == 1 )
 792:Middlewares/Third_Party/FreeRTOS/Source/timers.c ****             {
 793:Middlewares/Third_Party/FreeRTOS/Source/timers.c ****                 /* Negative commands are pended function calls rather than timer
 794:Middlewares/Third_Party/FreeRTOS/Source/timers.c ****                  * commands. */
 795:Middlewares/Third_Party/FreeRTOS/Source/timers.c ****                 if( xMessage.xMessageID < ( BaseType_t ) 0 )
 1859              		.loc 1 795 29
 1860 0008 7B68     		ldr	r3, [r7, #4]
 1861              		.loc 1 795 19
ARM GAS  C:\Users\alanl\AppData\Local\Temp\ccySaGgX.s 			page 51


 1862 000a 002B     		cmp	r3, #0
 1863 000c 19DA     		bge	.L115
 1864              	.LBB67:
 796:Middlewares/Third_Party/FreeRTOS/Source/timers.c ****                 {
 797:Middlewares/Third_Party/FreeRTOS/Source/timers.c ****                     const CallbackParameters_t * const pxCallback = &( xMessage.u.xCallbackParamete
 1865              		.loc 1 797 56
 1866 000e 3B1D     		adds	r3, r7, #4
 1867 0010 0433     		adds	r3, r3, #4
 1868 0012 7B62     		str	r3, [r7, #36]
 798:Middlewares/Third_Party/FreeRTOS/Source/timers.c **** 
 799:Middlewares/Third_Party/FreeRTOS/Source/timers.c ****                     /* The timer uses the xCallbackParameters member to request a
 800:Middlewares/Third_Party/FreeRTOS/Source/timers.c ****                      * callback be executed.  Check the callback is not NULL. */
 801:Middlewares/Third_Party/FreeRTOS/Source/timers.c ****                     configASSERT( pxCallback );
 1869              		.loc 1 801 21
 1870 0014 7B6A     		ldr	r3, [r7, #36]
 1871 0016 002B     		cmp	r3, #0
 1872 0018 0BD1     		bne	.L116
 1873              	.LBB68:
 1874              	.LBB69:
 205:Middlewares/Third_Party/FreeRTOS/Source/portable/GCC/ARM_CM4F/portmacro.h ****         (
 1875              		.loc 2 205 9
 1876              		.syntax unified
 1877              	@ 205 "Middlewares/Third_Party/FreeRTOS/Source/portable/GCC/ARM_CM4F/portmacro.h" 1
 1878 001a 4FF05003 		   mov r3, #80                                              
 1879 001e 83F31188 	   msr basepri, r3                                         
 1880 0022 BFF36F8F 	   isb                                                     
 1881 0026 BFF34F8F 	   dsb                                                     
 1882              	
 1883              	@ 0 "" 2
 1884              		.thumb
 1885              		.syntax unified
 1886 002a BB61     		str	r3, [r7, #24]
 1887              		.loc 2 213 5
 1888 002c 00BF     		nop
 1889              	.L117:
 1890              	.LBE69:
 1891              	.LBE68:
 1892              		.loc 1 801 21
 1893 002e 00BF     		nop
 1894 0030 FDE7     		b	.L117
 1895              	.L116:
 802:Middlewares/Third_Party/FreeRTOS/Source/timers.c **** 
 803:Middlewares/Third_Party/FreeRTOS/Source/timers.c ****                     /* Call the function. */
 804:Middlewares/Third_Party/FreeRTOS/Source/timers.c ****                     pxCallback->pxCallbackFunction( pxCallback->pvParameter1, pxCallback->ulParamet
 1896              		.loc 1 804 31
 1897 0032 7B6A     		ldr	r3, [r7, #36]
 1898 0034 1B68     		ldr	r3, [r3]
 1899              		.loc 1 804 63
 1900 0036 7A6A     		ldr	r2, [r7, #36]
 1901 0038 5068     		ldr	r0, [r2, #4]
 1902              		.loc 1 804 89
 1903 003a 7A6A     		ldr	r2, [r7, #36]
 1904 003c 9268     		ldr	r2, [r2, #8]
 1905              		.loc 1 804 21
 1906 003e 1146     		mov	r1, r2
 1907 0040 9847     		blx	r3
 1908              	.LVL2:
ARM GAS  C:\Users\alanl\AppData\Local\Temp\ccySaGgX.s 			page 52


 1909              	.L115:
 1910              	.LBE67:
 805:Middlewares/Third_Party/FreeRTOS/Source/timers.c ****                 }
 806:Middlewares/Third_Party/FreeRTOS/Source/timers.c ****                 else
 807:Middlewares/Third_Party/FreeRTOS/Source/timers.c ****                 {
 808:Middlewares/Third_Party/FreeRTOS/Source/timers.c ****                     mtCOVERAGE_TEST_MARKER();
 809:Middlewares/Third_Party/FreeRTOS/Source/timers.c ****                 }
 810:Middlewares/Third_Party/FreeRTOS/Source/timers.c ****             }
 811:Middlewares/Third_Party/FreeRTOS/Source/timers.c ****             #endif /* INCLUDE_xTimerPendFunctionCall */
 812:Middlewares/Third_Party/FreeRTOS/Source/timers.c **** 
 813:Middlewares/Third_Party/FreeRTOS/Source/timers.c ****             /* Commands that are positive are timer commands rather than pended
 814:Middlewares/Third_Party/FreeRTOS/Source/timers.c ****              * function calls. */
 815:Middlewares/Third_Party/FreeRTOS/Source/timers.c ****             if( xMessage.xMessageID >= ( BaseType_t ) 0 )
 1911              		.loc 1 815 25
 1912 0042 7B68     		ldr	r3, [r7, #4]
 1913              		.loc 1 815 15
 1914 0044 002B     		cmp	r3, #0
 1915 0046 C0F2A780 		blt	.L118
 816:Middlewares/Third_Party/FreeRTOS/Source/timers.c ****             {
 817:Middlewares/Third_Party/FreeRTOS/Source/timers.c ****                 /* The messages uses the xTimerParameters member to work on a
 818:Middlewares/Third_Party/FreeRTOS/Source/timers.c ****                  * software timer. */
 819:Middlewares/Third_Party/FreeRTOS/Source/timers.c ****                 pxTimer = xMessage.u.xTimerParameters.pxTimer;
 1916              		.loc 1 819 25
 1917 004a FB68     		ldr	r3, [r7, #12]
 1918 004c 3B62     		str	r3, [r7, #32]
 820:Middlewares/Third_Party/FreeRTOS/Source/timers.c **** 
 821:Middlewares/Third_Party/FreeRTOS/Source/timers.c ****                 if( listIS_CONTAINED_WITHIN( NULL, &( pxTimer->xTimerListItem ) ) == pdFALSE ) /*li
 1919              		.loc 1 821 21
 1920 004e 3B6A     		ldr	r3, [r7, #32]
 1921 0050 5B69     		ldr	r3, [r3, #20]
 1922              		.loc 1 821 19
 1923 0052 002B     		cmp	r3, #0
 1924 0054 04D0     		beq	.L119
 822:Middlewares/Third_Party/FreeRTOS/Source/timers.c ****                 {
 823:Middlewares/Third_Party/FreeRTOS/Source/timers.c ****                     /* The timer is in a list, remove it. */
 824:Middlewares/Third_Party/FreeRTOS/Source/timers.c ****                     ( void ) uxListRemove( &( pxTimer->xTimerListItem ) );
 1925              		.loc 1 824 30
 1926 0056 3B6A     		ldr	r3, [r7, #32]
 1927 0058 0433     		adds	r3, r3, #4
 1928 005a 1846     		mov	r0, r3
 1929 005c FFF7FEFF 		bl	uxListRemove
 1930              	.L119:
 825:Middlewares/Third_Party/FreeRTOS/Source/timers.c ****                 }
 826:Middlewares/Third_Party/FreeRTOS/Source/timers.c ****                 else
 827:Middlewares/Third_Party/FreeRTOS/Source/timers.c ****                 {
 828:Middlewares/Third_Party/FreeRTOS/Source/timers.c ****                     mtCOVERAGE_TEST_MARKER();
 829:Middlewares/Third_Party/FreeRTOS/Source/timers.c ****                 }
 830:Middlewares/Third_Party/FreeRTOS/Source/timers.c **** 
 831:Middlewares/Third_Party/FreeRTOS/Source/timers.c ****                 traceTIMER_COMMAND_RECEIVED( pxTimer, xMessage.xMessageID, xMessage.u.xTimerParamet
 832:Middlewares/Third_Party/FreeRTOS/Source/timers.c **** 
 833:Middlewares/Third_Party/FreeRTOS/Source/timers.c ****                 /* In this case the xTimerListsWereSwitched parameter is not used, but
 834:Middlewares/Third_Party/FreeRTOS/Source/timers.c ****                  *  it must be present in the function call.  prvSampleTimeNow() must be
 835:Middlewares/Third_Party/FreeRTOS/Source/timers.c ****                  *  called after the message is received from xTimerQueue so there is no
 836:Middlewares/Third_Party/FreeRTOS/Source/timers.c ****                  *  possibility of a higher priority task adding a message to the message
 837:Middlewares/Third_Party/FreeRTOS/Source/timers.c ****                  *  queue with a time that is ahead of the timer daemon task (because it
 838:Middlewares/Third_Party/FreeRTOS/Source/timers.c ****                  *  pre-empted the timer daemon task after the xTimeNow value was set). */
 839:Middlewares/Third_Party/FreeRTOS/Source/timers.c ****                 xTimeNow = prvSampleTimeNow( &xTimerListsWereSwitched );
ARM GAS  C:\Users\alanl\AppData\Local\Temp\ccySaGgX.s 			page 53


 1931              		.loc 1 839 28
 1932 0060 3B46     		mov	r3, r7
 1933 0062 1846     		mov	r0, r3
 1934 0064 FFF7FEFF 		bl	prvSampleTimeNow
 1935 0068 F861     		str	r0, [r7, #28]
 840:Middlewares/Third_Party/FreeRTOS/Source/timers.c **** 
 841:Middlewares/Third_Party/FreeRTOS/Source/timers.c ****                 switch( xMessage.xMessageID )
 1936              		.loc 1 841 33
 1937 006a 7B68     		ldr	r3, [r7, #4]
 1938              		.loc 1 841 17
 1939 006c 013B     		subs	r3, r3, #1
 1940 006e 082B     		cmp	r3, #8
 1941 0070 00F28F80 		bhi	.L135
 1942 0074 01A2     		adr	r2, .L122
 1943 0076 52F823F0 		ldr	pc, [r2, r3, lsl #2]
 1944 007a 00BF     		.p2align 2
 1945              	.L122:
 1946 007c A1000000 		.word	.L124+1
 1947 0080 A1000000 		.word	.L124+1
 1948 0084 09010000 		.word	.L123+1
 1949 0088 1D010000 		.word	.L121+1
 1950 008c 69010000 		.word	.L125+1
 1951 0090 A1000000 		.word	.L124+1
 1952 0094 A1000000 		.word	.L124+1
 1953 0098 09010000 		.word	.L123+1
 1954 009c 1D010000 		.word	.L121+1
 1955              		.p2align 1
 1956              	.L124:
 842:Middlewares/Third_Party/FreeRTOS/Source/timers.c ****                 {
 843:Middlewares/Third_Party/FreeRTOS/Source/timers.c ****                     case tmrCOMMAND_START:
 844:Middlewares/Third_Party/FreeRTOS/Source/timers.c ****                     case tmrCOMMAND_START_FROM_ISR:
 845:Middlewares/Third_Party/FreeRTOS/Source/timers.c ****                     case tmrCOMMAND_RESET:
 846:Middlewares/Third_Party/FreeRTOS/Source/timers.c ****                     case tmrCOMMAND_RESET_FROM_ISR:
 847:Middlewares/Third_Party/FreeRTOS/Source/timers.c ****                         /* Start or restart a timer. */
 848:Middlewares/Third_Party/FreeRTOS/Source/timers.c ****                         pxTimer->ucStatus |= tmrSTATUS_IS_ACTIVE;
 1957              		.loc 1 848 32
 1958 00a0 3B6A     		ldr	r3, [r7, #32]
 1959 00a2 93F82830 		ldrb	r3, [r3, #40]	@ zero_extendqisi2
 1960              		.loc 1 848 43
 1961 00a6 43F00103 		orr	r3, r3, #1
 1962 00aa DAB2     		uxtb	r2, r3
 1963 00ac 3B6A     		ldr	r3, [r7, #32]
 1964 00ae 83F82820 		strb	r2, [r3, #40]
 849:Middlewares/Third_Party/FreeRTOS/Source/timers.c **** 
 850:Middlewares/Third_Party/FreeRTOS/Source/timers.c ****                         if( prvInsertTimerInActiveList( pxTimer, xMessage.u.xTimerParameters.xMessa
 1965              		.loc 1 850 93
 1966 00b2 BA68     		ldr	r2, [r7, #8]
 1967              		.loc 1 850 117
 1968 00b4 3B6A     		ldr	r3, [r7, #32]
 1969 00b6 9B69     		ldr	r3, [r3, #24]
 1970              		.loc 1 850 29
 1971 00b8 D118     		adds	r1, r2, r3
 1972 00ba BB68     		ldr	r3, [r7, #8]
 1973 00bc FA69     		ldr	r2, [r7, #28]
 1974 00be 386A     		ldr	r0, [r7, #32]
 1975 00c0 FFF7FEFF 		bl	prvInsertTimerInActiveList
 1976 00c4 0346     		mov	r3, r0
ARM GAS  C:\Users\alanl\AppData\Local\Temp\ccySaGgX.s 			page 54


 1977              		.loc 1 850 27 discriminator 1
 1978 00c6 002B     		cmp	r3, #0
 1979 00c8 65D0     		beq	.L136
 851:Middlewares/Third_Party/FreeRTOS/Source/timers.c ****                         {
 852:Middlewares/Third_Party/FreeRTOS/Source/timers.c ****                             /* The timer expired before it was added to the active
 853:Middlewares/Third_Party/FreeRTOS/Source/timers.c ****                              * timer list.  Process it now. */
 854:Middlewares/Third_Party/FreeRTOS/Source/timers.c ****                             if( ( pxTimer->ucStatus & tmrSTATUS_IS_AUTORELOAD ) != 0 )
 1980              		.loc 1 854 42
 1981 00ca 3B6A     		ldr	r3, [r7, #32]
 1982 00cc 93F82830 		ldrb	r3, [r3, #40]	@ zero_extendqisi2
 1983              		.loc 1 854 53
 1984 00d0 03F00403 		and	r3, r3, #4
 1985              		.loc 1 854 31
 1986 00d4 002B     		cmp	r3, #0
 1987 00d6 09D0     		beq	.L127
 855:Middlewares/Third_Party/FreeRTOS/Source/timers.c ****                             {
 856:Middlewares/Third_Party/FreeRTOS/Source/timers.c ****                                 prvReloadTimer( pxTimer, xMessage.u.xTimerParameters.xMessageValue 
 1988              		.loc 1 856 85
 1989 00d8 BA68     		ldr	r2, [r7, #8]
 1990              		.loc 1 856 109
 1991 00da 3B6A     		ldr	r3, [r7, #32]
 1992 00dc 9B69     		ldr	r3, [r3, #24]
 1993              		.loc 1 856 33
 1994 00de 1344     		add	r3, r3, r2
 1995 00e0 FA69     		ldr	r2, [r7, #28]
 1996 00e2 1946     		mov	r1, r3
 1997 00e4 386A     		ldr	r0, [r7, #32]
 1998 00e6 FFF7FEFF 		bl	prvReloadTimer
 1999 00ea 08E0     		b	.L128
 2000              	.L127:
 857:Middlewares/Third_Party/FreeRTOS/Source/timers.c ****                             }
 858:Middlewares/Third_Party/FreeRTOS/Source/timers.c ****                             else
 859:Middlewares/Third_Party/FreeRTOS/Source/timers.c ****                             {
 860:Middlewares/Third_Party/FreeRTOS/Source/timers.c ****                                 pxTimer->ucStatus &= ( ( uint8_t ) ~tmrSTATUS_IS_ACTIVE );
 2001              		.loc 1 860 40
 2002 00ec 3B6A     		ldr	r3, [r7, #32]
 2003 00ee 93F82830 		ldrb	r3, [r3, #40]	@ zero_extendqisi2
 2004              		.loc 1 860 51
 2005 00f2 23F00103 		bic	r3, r3, #1
 2006 00f6 DAB2     		uxtb	r2, r3
 2007 00f8 3B6A     		ldr	r3, [r7, #32]
 2008 00fa 83F82820 		strb	r2, [r3, #40]
 2009              	.L128:
 861:Middlewares/Third_Party/FreeRTOS/Source/timers.c ****                             }
 862:Middlewares/Third_Party/FreeRTOS/Source/timers.c **** 
 863:Middlewares/Third_Party/FreeRTOS/Source/timers.c ****                             /* Call the timer callback. */
 864:Middlewares/Third_Party/FreeRTOS/Source/timers.c ****                             traceTIMER_EXPIRED( pxTimer );
 865:Middlewares/Third_Party/FreeRTOS/Source/timers.c ****                             pxTimer->pxCallbackFunction( ( TimerHandle_t ) pxTimer );
 2010              		.loc 1 865 36
 2011 00fe 3B6A     		ldr	r3, [r7, #32]
 2012 0100 1B6A     		ldr	r3, [r3, #32]
 2013              		.loc 1 865 29
 2014 0102 386A     		ldr	r0, [r7, #32]
 2015 0104 9847     		blx	r3
 2016              	.LVL3:
 866:Middlewares/Third_Party/FreeRTOS/Source/timers.c ****                         }
 867:Middlewares/Third_Party/FreeRTOS/Source/timers.c ****                         else
ARM GAS  C:\Users\alanl\AppData\Local\Temp\ccySaGgX.s 			page 55


 868:Middlewares/Third_Party/FreeRTOS/Source/timers.c ****                         {
 869:Middlewares/Third_Party/FreeRTOS/Source/timers.c ****                             mtCOVERAGE_TEST_MARKER();
 870:Middlewares/Third_Party/FreeRTOS/Source/timers.c ****                         }
 871:Middlewares/Third_Party/FreeRTOS/Source/timers.c **** 
 872:Middlewares/Third_Party/FreeRTOS/Source/timers.c ****                         break;
 2017              		.loc 1 872 25
 2018 0106 46E0     		b	.L136
 2019              	.L123:
 873:Middlewares/Third_Party/FreeRTOS/Source/timers.c **** 
 874:Middlewares/Third_Party/FreeRTOS/Source/timers.c ****                     case tmrCOMMAND_STOP:
 875:Middlewares/Third_Party/FreeRTOS/Source/timers.c ****                     case tmrCOMMAND_STOP_FROM_ISR:
 876:Middlewares/Third_Party/FreeRTOS/Source/timers.c ****                         /* The timer has already been removed from the active list. */
 877:Middlewares/Third_Party/FreeRTOS/Source/timers.c ****                         pxTimer->ucStatus &= ( ( uint8_t ) ~tmrSTATUS_IS_ACTIVE );
 2020              		.loc 1 877 32
 2021 0108 3B6A     		ldr	r3, [r7, #32]
 2022 010a 93F82830 		ldrb	r3, [r3, #40]	@ zero_extendqisi2
 2023              		.loc 1 877 43
 2024 010e 23F00103 		bic	r3, r3, #1
 2025 0112 DAB2     		uxtb	r2, r3
 2026 0114 3B6A     		ldr	r3, [r7, #32]
 2027 0116 83F82820 		strb	r2, [r3, #40]
 878:Middlewares/Third_Party/FreeRTOS/Source/timers.c ****                         break;
 2028              		.loc 1 878 25
 2029 011a 3DE0     		b	.L118
 2030              	.L121:
 879:Middlewares/Third_Party/FreeRTOS/Source/timers.c **** 
 880:Middlewares/Third_Party/FreeRTOS/Source/timers.c ****                     case tmrCOMMAND_CHANGE_PERIOD:
 881:Middlewares/Third_Party/FreeRTOS/Source/timers.c ****                     case tmrCOMMAND_CHANGE_PERIOD_FROM_ISR:
 882:Middlewares/Third_Party/FreeRTOS/Source/timers.c ****                         pxTimer->ucStatus |= tmrSTATUS_IS_ACTIVE;
 2031              		.loc 1 882 32
 2032 011c 3B6A     		ldr	r3, [r7, #32]
 2033 011e 93F82830 		ldrb	r3, [r3, #40]	@ zero_extendqisi2
 2034              		.loc 1 882 43
 2035 0122 43F00103 		orr	r3, r3, #1
 2036 0126 DAB2     		uxtb	r2, r3
 2037 0128 3B6A     		ldr	r3, [r7, #32]
 2038 012a 83F82820 		strb	r2, [r3, #40]
 883:Middlewares/Third_Party/FreeRTOS/Source/timers.c ****                         pxTimer->xTimerPeriodInTicks = xMessage.u.xTimerParameters.xMessageValue;
 2039              		.loc 1 883 83
 2040 012e BA68     		ldr	r2, [r7, #8]
 2041              		.loc 1 883 54
 2042 0130 3B6A     		ldr	r3, [r7, #32]
 2043 0132 9A61     		str	r2, [r3, #24]
 884:Middlewares/Third_Party/FreeRTOS/Source/timers.c ****                         configASSERT( ( pxTimer->xTimerPeriodInTicks > 0 ) );
 2044              		.loc 1 884 25
 2045 0134 3B6A     		ldr	r3, [r7, #32]
 2046 0136 9B69     		ldr	r3, [r3, #24]
 2047 0138 002B     		cmp	r3, #0
 2048 013a 0BD1     		bne	.L130
 2049              	.LBB70:
 2050              	.LBB71:
 205:Middlewares/Third_Party/FreeRTOS/Source/portable/GCC/ARM_CM4F/portmacro.h ****         (
 2051              		.loc 2 205 9
 2052              		.syntax unified
 2053              	@ 205 "Middlewares/Third_Party/FreeRTOS/Source/portable/GCC/ARM_CM4F/portmacro.h" 1
 2054 013c 4FF05003 		   mov r3, #80                                              
 2055 0140 83F31188 	   msr basepri, r3                                         
ARM GAS  C:\Users\alanl\AppData\Local\Temp\ccySaGgX.s 			page 56


 2056 0144 BFF36F8F 	   isb                                                     
 2057 0148 BFF34F8F 	   dsb                                                     
 2058              	
 2059              	@ 0 "" 2
 2060              		.thumb
 2061              		.syntax unified
 2062 014c 7B61     		str	r3, [r7, #20]
 2063              		.loc 2 213 5
 2064 014e 00BF     		nop
 2065              	.L131:
 2066              	.LBE71:
 2067              	.LBE70:
 2068              		.loc 1 884 25
 2069 0150 00BF     		nop
 2070 0152 FDE7     		b	.L131
 2071              	.L130:
 885:Middlewares/Third_Party/FreeRTOS/Source/timers.c **** 
 886:Middlewares/Third_Party/FreeRTOS/Source/timers.c ****                         /* The new period does not really have a reference, and can
 887:Middlewares/Third_Party/FreeRTOS/Source/timers.c ****                          * be longer or shorter than the old one.  The command time is
 888:Middlewares/Third_Party/FreeRTOS/Source/timers.c ****                          * therefore set to the current time, and as the period cannot
 889:Middlewares/Third_Party/FreeRTOS/Source/timers.c ****                          * be zero the next expiry time can only be in the future,
 890:Middlewares/Third_Party/FreeRTOS/Source/timers.c ****                          * meaning (unlike for the xTimerStart() case above) there is
 891:Middlewares/Third_Party/FreeRTOS/Source/timers.c ****                          * no fail case that needs to be handled here. */
 892:Middlewares/Third_Party/FreeRTOS/Source/timers.c ****                         ( void ) prvInsertTimerInActiveList( pxTimer, ( xTimeNow + pxTimer->xTimerP
 2072              		.loc 1 892 91
 2073 0154 3B6A     		ldr	r3, [r7, #32]
 2074 0156 9A69     		ldr	r2, [r3, #24]
 2075              		.loc 1 892 34
 2076 0158 FB69     		ldr	r3, [r7, #28]
 2077 015a D118     		adds	r1, r2, r3
 2078 015c FB69     		ldr	r3, [r7, #28]
 2079 015e FA69     		ldr	r2, [r7, #28]
 2080 0160 386A     		ldr	r0, [r7, #32]
 2081 0162 FFF7FEFF 		bl	prvInsertTimerInActiveList
 893:Middlewares/Third_Party/FreeRTOS/Source/timers.c ****                         break;
 2082              		.loc 1 893 25
 2083 0166 17E0     		b	.L118
 2084              	.L125:
 894:Middlewares/Third_Party/FreeRTOS/Source/timers.c **** 
 895:Middlewares/Third_Party/FreeRTOS/Source/timers.c ****                     case tmrCOMMAND_DELETE:
 896:Middlewares/Third_Party/FreeRTOS/Source/timers.c ****                         #if ( configSUPPORT_DYNAMIC_ALLOCATION == 1 )
 897:Middlewares/Third_Party/FreeRTOS/Source/timers.c ****                         {
 898:Middlewares/Third_Party/FreeRTOS/Source/timers.c ****                             /* The timer has already been removed from the active list,
 899:Middlewares/Third_Party/FreeRTOS/Source/timers.c ****                              * just free up the memory if the memory was dynamically
 900:Middlewares/Third_Party/FreeRTOS/Source/timers.c ****                              * allocated. */
 901:Middlewares/Third_Party/FreeRTOS/Source/timers.c ****                             if( ( pxTimer->ucStatus & tmrSTATUS_IS_STATICALLY_ALLOCATED ) == ( uint
 2085              		.loc 1 901 42
 2086 0168 3B6A     		ldr	r3, [r7, #32]
 2087 016a 93F82830 		ldrb	r3, [r3, #40]	@ zero_extendqisi2
 2088              		.loc 1 901 53
 2089 016e 03F00203 		and	r3, r3, #2
 2090              		.loc 1 901 31
 2091 0172 002B     		cmp	r3, #0
 2092 0174 03D1     		bne	.L132
 902:Middlewares/Third_Party/FreeRTOS/Source/timers.c ****                             {
 903:Middlewares/Third_Party/FreeRTOS/Source/timers.c ****                                 vPortFree( pxTimer );
 2093              		.loc 1 903 33
ARM GAS  C:\Users\alanl\AppData\Local\Temp\ccySaGgX.s 			page 57


 2094 0176 386A     		ldr	r0, [r7, #32]
 2095 0178 FFF7FEFF 		bl	vPortFree
 904:Middlewares/Third_Party/FreeRTOS/Source/timers.c ****                             }
 905:Middlewares/Third_Party/FreeRTOS/Source/timers.c ****                             else
 906:Middlewares/Third_Party/FreeRTOS/Source/timers.c ****                             {
 907:Middlewares/Third_Party/FreeRTOS/Source/timers.c ****                                 pxTimer->ucStatus &= ( ( uint8_t ) ~tmrSTATUS_IS_ACTIVE );
 908:Middlewares/Third_Party/FreeRTOS/Source/timers.c ****                             }
 909:Middlewares/Third_Party/FreeRTOS/Source/timers.c ****                         }
 910:Middlewares/Third_Party/FreeRTOS/Source/timers.c ****                         #else /* if ( configSUPPORT_DYNAMIC_ALLOCATION == 1 ) */
 911:Middlewares/Third_Party/FreeRTOS/Source/timers.c ****                         {
 912:Middlewares/Third_Party/FreeRTOS/Source/timers.c ****                             /* If dynamic allocation is not enabled, the memory
 913:Middlewares/Third_Party/FreeRTOS/Source/timers.c ****                              * could not have been dynamically allocated. So there is
 914:Middlewares/Third_Party/FreeRTOS/Source/timers.c ****                              * no need to free the memory - just mark the timer as
 915:Middlewares/Third_Party/FreeRTOS/Source/timers.c ****                              * "not active". */
 916:Middlewares/Third_Party/FreeRTOS/Source/timers.c ****                             pxTimer->ucStatus &= ( ( uint8_t ) ~tmrSTATUS_IS_ACTIVE );
 917:Middlewares/Third_Party/FreeRTOS/Source/timers.c ****                         }
 918:Middlewares/Third_Party/FreeRTOS/Source/timers.c ****                         #endif /* configSUPPORT_DYNAMIC_ALLOCATION */
 919:Middlewares/Third_Party/FreeRTOS/Source/timers.c ****                         break;
 2096              		.loc 1 919 25
 2097 017c 0CE0     		b	.L118
 2098              	.L132:
 907:Middlewares/Third_Party/FreeRTOS/Source/timers.c ****                             }
 2099              		.loc 1 907 40
 2100 017e 3B6A     		ldr	r3, [r7, #32]
 2101 0180 93F82830 		ldrb	r3, [r3, #40]	@ zero_extendqisi2
 907:Middlewares/Third_Party/FreeRTOS/Source/timers.c ****                             }
 2102              		.loc 1 907 51
 2103 0184 23F00103 		bic	r3, r3, #1
 2104 0188 DAB2     		uxtb	r2, r3
 2105 018a 3B6A     		ldr	r3, [r7, #32]
 2106 018c 83F82820 		strb	r2, [r3, #40]
 2107              		.loc 1 919 25
 2108 0190 02E0     		b	.L118
 2109              	.L135:
 920:Middlewares/Third_Party/FreeRTOS/Source/timers.c **** 
 921:Middlewares/Third_Party/FreeRTOS/Source/timers.c ****                     default:
 922:Middlewares/Third_Party/FreeRTOS/Source/timers.c ****                         /* Don't expect to get here. */
 923:Middlewares/Third_Party/FreeRTOS/Source/timers.c ****                         break;
 2110              		.loc 1 923 25
 2111 0192 00BF     		nop
 2112 0194 00E0     		b	.L118
 2113              	.L136:
 872:Middlewares/Third_Party/FreeRTOS/Source/timers.c **** 
 2114              		.loc 1 872 25
 2115 0196 00BF     		nop
 2116              	.L118:
 789:Middlewares/Third_Party/FreeRTOS/Source/timers.c ****         {
 2117              		.loc 1 789 16
 2118 0198 074B     		ldr	r3, .L137
 2119 019a 1B68     		ldr	r3, [r3]
 2120 019c 391D     		adds	r1, r7, #4
 2121 019e 0022     		movs	r2, #0
 2122 01a0 1846     		mov	r0, r3
 2123 01a2 FFF7FEFF 		bl	xQueueReceive
 2124 01a6 0346     		mov	r3, r0
 789:Middlewares/Third_Party/FreeRTOS/Source/timers.c ****         {
 2125              		.loc 1 789 69 discriminator 1
ARM GAS  C:\Users\alanl\AppData\Local\Temp\ccySaGgX.s 			page 58


 2126 01a8 002B     		cmp	r3, #0
 2127 01aa 7FF42DAF 		bne	.L134
 924:Middlewares/Third_Party/FreeRTOS/Source/timers.c ****                 }
 925:Middlewares/Third_Party/FreeRTOS/Source/timers.c ****             }
 926:Middlewares/Third_Party/FreeRTOS/Source/timers.c ****         }
 927:Middlewares/Third_Party/FreeRTOS/Source/timers.c ****     }
 2128              		.loc 1 927 5
 2129 01ae 00BF     		nop
 2130 01b0 00BF     		nop
 2131 01b2 2837     		adds	r7, r7, #40
 2132              	.LCFI107:
 2133              		.cfi_def_cfa_offset 8
 2134 01b4 BD46     		mov	sp, r7
 2135              	.LCFI108:
 2136              		.cfi_def_cfa_register 13
 2137              		@ sp needed
 2138 01b6 80BD     		pop	{r7, pc}
 2139              	.L138:
 2140              		.align	2
 2141              	.L137:
 2142 01b8 00000000 		.word	xTimerQueue
 2143              		.cfi_endproc
 2144              	.LFE24:
 2146              		.section	.text.prvSwitchTimerLists,"ax",%progbits
 2147              		.align	1
 2148              		.syntax unified
 2149              		.thumb
 2150              		.thumb_func
 2152              	prvSwitchTimerLists:
 2153              	.LFB25:
 928:Middlewares/Third_Party/FreeRTOS/Source/timers.c **** /*-----------------------------------------------------------*/
 929:Middlewares/Third_Party/FreeRTOS/Source/timers.c **** 
 930:Middlewares/Third_Party/FreeRTOS/Source/timers.c ****     static void prvSwitchTimerLists( void )
 931:Middlewares/Third_Party/FreeRTOS/Source/timers.c ****     {
 2154              		.loc 1 931 5
 2155              		.cfi_startproc
 2156              		@ args = 0, pretend = 0, frame = 8
 2157              		@ frame_needed = 1, uses_anonymous_args = 0
 2158 0000 80B5     		push	{r7, lr}
 2159              	.LCFI109:
 2160              		.cfi_def_cfa_offset 8
 2161              		.cfi_offset 7, -8
 2162              		.cfi_offset 14, -4
 2163 0002 82B0     		sub	sp, sp, #8
 2164              	.LCFI110:
 2165              		.cfi_def_cfa_offset 16
 2166 0004 00AF     		add	r7, sp, #0
 2167              	.LCFI111:
 2168              		.cfi_def_cfa_register 7
 932:Middlewares/Third_Party/FreeRTOS/Source/timers.c ****         TickType_t xNextExpireTime;
 933:Middlewares/Third_Party/FreeRTOS/Source/timers.c ****         List_t * pxTemp;
 934:Middlewares/Third_Party/FreeRTOS/Source/timers.c **** 
 935:Middlewares/Third_Party/FreeRTOS/Source/timers.c ****         /* The tick count has overflowed.  The timer lists must be switched.
 936:Middlewares/Third_Party/FreeRTOS/Source/timers.c ****          * If there are any timers still referenced from the current timer list
 937:Middlewares/Third_Party/FreeRTOS/Source/timers.c ****          * then they must have expired and should be processed before the lists
 938:Middlewares/Third_Party/FreeRTOS/Source/timers.c ****          * are switched. */
 939:Middlewares/Third_Party/FreeRTOS/Source/timers.c ****         while( listLIST_IS_EMPTY( pxCurrentTimerList ) == pdFALSE )
ARM GAS  C:\Users\alanl\AppData\Local\Temp\ccySaGgX.s 			page 59


 2169              		.loc 1 939 14
 2170 0006 09E0     		b	.L140
 2171              	.L141:
 940:Middlewares/Third_Party/FreeRTOS/Source/timers.c ****         {
 941:Middlewares/Third_Party/FreeRTOS/Source/timers.c ****             xNextExpireTime = listGET_ITEM_VALUE_OF_HEAD_ENTRY( pxCurrentTimerList );
 2172              		.loc 1 941 31
 2173 0008 0E4B     		ldr	r3, .L142
 2174 000a 1B68     		ldr	r3, [r3]
 2175 000c DB68     		ldr	r3, [r3, #12]
 2176              		.loc 1 941 29
 2177 000e 1B68     		ldr	r3, [r3]
 2178 0010 3B60     		str	r3, [r7]
 942:Middlewares/Third_Party/FreeRTOS/Source/timers.c **** 
 943:Middlewares/Third_Party/FreeRTOS/Source/timers.c ****             /* Process the expired timer.  For auto-reload timers, be careful to
 944:Middlewares/Third_Party/FreeRTOS/Source/timers.c ****              * process only expirations that occur on the current list.  Further
 945:Middlewares/Third_Party/FreeRTOS/Source/timers.c ****              * expirations must wait until after the lists are switched. */
 946:Middlewares/Third_Party/FreeRTOS/Source/timers.c ****             prvProcessExpiredTimer( xNextExpireTime, tmrMAX_TIME_BEFORE_OVERFLOW );
 2179              		.loc 1 946 13
 2180 0012 4FF0FF31 		mov	r1, #-1
 2181 0016 3868     		ldr	r0, [r7]
 2182 0018 FFF7FEFF 		bl	prvProcessExpiredTimer
 2183              	.L140:
 939:Middlewares/Third_Party/FreeRTOS/Source/timers.c ****         {
 2184              		.loc 1 939 16
 2185 001c 094B     		ldr	r3, .L142
 2186 001e 1B68     		ldr	r3, [r3]
 2187 0020 1B68     		ldr	r3, [r3]
 939:Middlewares/Third_Party/FreeRTOS/Source/timers.c ****         {
 2188              		.loc 1 939 56
 2189 0022 002B     		cmp	r3, #0
 2190 0024 F0D1     		bne	.L141
 947:Middlewares/Third_Party/FreeRTOS/Source/timers.c ****         }
 948:Middlewares/Third_Party/FreeRTOS/Source/timers.c **** 
 949:Middlewares/Third_Party/FreeRTOS/Source/timers.c ****         pxTemp = pxCurrentTimerList;
 2191              		.loc 1 949 16
 2192 0026 074B     		ldr	r3, .L142
 2193 0028 1B68     		ldr	r3, [r3]
 2194 002a 7B60     		str	r3, [r7, #4]
 950:Middlewares/Third_Party/FreeRTOS/Source/timers.c ****         pxCurrentTimerList = pxOverflowTimerList;
 2195              		.loc 1 950 28
 2196 002c 064B     		ldr	r3, .L142+4
 2197 002e 1B68     		ldr	r3, [r3]
 2198 0030 044A     		ldr	r2, .L142
 2199 0032 1360     		str	r3, [r2]
 951:Middlewares/Third_Party/FreeRTOS/Source/timers.c ****         pxOverflowTimerList = pxTemp;
 2200              		.loc 1 951 29
 2201 0034 044A     		ldr	r2, .L142+4
 2202 0036 7B68     		ldr	r3, [r7, #4]
 2203 0038 1360     		str	r3, [r2]
 952:Middlewares/Third_Party/FreeRTOS/Source/timers.c ****     }
 2204              		.loc 1 952 5
 2205 003a 00BF     		nop
 2206 003c 0837     		adds	r7, r7, #8
 2207              	.LCFI112:
 2208              		.cfi_def_cfa_offset 8
 2209 003e BD46     		mov	sp, r7
 2210              	.LCFI113:
ARM GAS  C:\Users\alanl\AppData\Local\Temp\ccySaGgX.s 			page 60


 2211              		.cfi_def_cfa_register 13
 2212              		@ sp needed
 2213 0040 80BD     		pop	{r7, pc}
 2214              	.L143:
 2215 0042 00BF     		.align	2
 2216              	.L142:
 2217 0044 00000000 		.word	pxCurrentTimerList
 2218 0048 00000000 		.word	pxOverflowTimerList
 2219              		.cfi_endproc
 2220              	.LFE25:
 2222              		.section	.rodata
 2223              		.align	2
 2224              	.LC1:
 2225 0008 546D7251 		.ascii	"TmrQ\000"
 2225      00
 2226              		.section	.text.prvCheckForValidListAndQueue,"ax",%progbits
 2227              		.align	1
 2228              		.syntax unified
 2229              		.thumb
 2230              		.thumb_func
 2232              	prvCheckForValidListAndQueue:
 2233              	.LFB26:
 953:Middlewares/Third_Party/FreeRTOS/Source/timers.c **** /*-----------------------------------------------------------*/
 954:Middlewares/Third_Party/FreeRTOS/Source/timers.c **** 
 955:Middlewares/Third_Party/FreeRTOS/Source/timers.c ****     static void prvCheckForValidListAndQueue( void )
 956:Middlewares/Third_Party/FreeRTOS/Source/timers.c ****     {
 2234              		.loc 1 956 5
 2235              		.cfi_startproc
 2236              		@ args = 0, pretend = 0, frame = 0
 2237              		@ frame_needed = 1, uses_anonymous_args = 0
 2238 0000 80B5     		push	{r7, lr}
 2239              	.LCFI114:
 2240              		.cfi_def_cfa_offset 8
 2241              		.cfi_offset 7, -8
 2242              		.cfi_offset 14, -4
 2243 0002 82B0     		sub	sp, sp, #8
 2244              	.LCFI115:
 2245              		.cfi_def_cfa_offset 16
 2246 0004 02AF     		add	r7, sp, #8
 2247              	.LCFI116:
 2248              		.cfi_def_cfa 7, 8
 957:Middlewares/Third_Party/FreeRTOS/Source/timers.c ****         /* Check that the list from which active timers are referenced, and the
 958:Middlewares/Third_Party/FreeRTOS/Source/timers.c ****          * queue used to communicate with the timer service, have been
 959:Middlewares/Third_Party/FreeRTOS/Source/timers.c ****          * initialised. */
 960:Middlewares/Third_Party/FreeRTOS/Source/timers.c ****         taskENTER_CRITICAL();
 2249              		.loc 1 960 9
 2250 0006 FFF7FEFF 		bl	vPortEnterCritical
 961:Middlewares/Third_Party/FreeRTOS/Source/timers.c ****         {
 962:Middlewares/Third_Party/FreeRTOS/Source/timers.c ****             if( xTimerQueue == NULL )
 2251              		.loc 1 962 29
 2252 000a 154B     		ldr	r3, .L146
 2253 000c 1B68     		ldr	r3, [r3]
 2254              		.loc 1 962 15
 2255 000e 002B     		cmp	r3, #0
 2256 0010 20D1     		bne	.L145
 963:Middlewares/Third_Party/FreeRTOS/Source/timers.c ****             {
 964:Middlewares/Third_Party/FreeRTOS/Source/timers.c ****                 vListInitialise( &xActiveTimerList1 );
ARM GAS  C:\Users\alanl\AppData\Local\Temp\ccySaGgX.s 			page 61


 2257              		.loc 1 964 17
 2258 0012 1448     		ldr	r0, .L146+4
 2259 0014 FFF7FEFF 		bl	vListInitialise
 965:Middlewares/Third_Party/FreeRTOS/Source/timers.c ****                 vListInitialise( &xActiveTimerList2 );
 2260              		.loc 1 965 17
 2261 0018 1348     		ldr	r0, .L146+8
 2262 001a FFF7FEFF 		bl	vListInitialise
 966:Middlewares/Third_Party/FreeRTOS/Source/timers.c ****                 pxCurrentTimerList = &xActiveTimerList1;
 2263              		.loc 1 966 36
 2264 001e 134B     		ldr	r3, .L146+12
 2265 0020 104A     		ldr	r2, .L146+4
 2266 0022 1A60     		str	r2, [r3]
 967:Middlewares/Third_Party/FreeRTOS/Source/timers.c ****                 pxOverflowTimerList = &xActiveTimerList2;
 2267              		.loc 1 967 37
 2268 0024 124B     		ldr	r3, .L146+16
 2269 0026 104A     		ldr	r2, .L146+8
 2270 0028 1A60     		str	r2, [r3]
 2271              	.LBB72:
 968:Middlewares/Third_Party/FreeRTOS/Source/timers.c **** 
 969:Middlewares/Third_Party/FreeRTOS/Source/timers.c ****                 #if ( configSUPPORT_STATIC_ALLOCATION == 1 )
 970:Middlewares/Third_Party/FreeRTOS/Source/timers.c ****                 {
 971:Middlewares/Third_Party/FreeRTOS/Source/timers.c ****                     /* The timer queue is allocated statically in case
 972:Middlewares/Third_Party/FreeRTOS/Source/timers.c ****                      * configSUPPORT_DYNAMIC_ALLOCATION is 0. */
 973:Middlewares/Third_Party/FreeRTOS/Source/timers.c ****                     PRIVILEGED_DATA static StaticQueue_t xStaticTimerQueue;                        
 974:Middlewares/Third_Party/FreeRTOS/Source/timers.c ****                     PRIVILEGED_DATA static uint8_t ucStaticTimerQueueStorage[ ( size_t ) configTIME
 975:Middlewares/Third_Party/FreeRTOS/Source/timers.c **** 
 976:Middlewares/Third_Party/FreeRTOS/Source/timers.c ****                     xTimerQueue = xQueueCreateStatic( ( UBaseType_t ) configTIMER_QUEUE_LENGTH, ( U
 2272              		.loc 1 976 35
 2273 002a 0023     		movs	r3, #0
 2274 002c 0093     		str	r3, [sp]
 2275 002e 114B     		ldr	r3, .L146+20
 2276 0030 114A     		ldr	r2, .L146+24
 2277 0032 1021     		movs	r1, #16
 2278 0034 0A20     		movs	r0, #10
 2279 0036 FFF7FEFF 		bl	xQueueGenericCreateStatic
 2280 003a 0346     		mov	r3, r0
 2281              		.loc 1 976 33 discriminator 1
 2282 003c 084A     		ldr	r2, .L146
 2283 003e 1360     		str	r3, [r2]
 2284              	.LBE72:
 977:Middlewares/Third_Party/FreeRTOS/Source/timers.c ****                 }
 978:Middlewares/Third_Party/FreeRTOS/Source/timers.c ****                 #else
 979:Middlewares/Third_Party/FreeRTOS/Source/timers.c ****                 {
 980:Middlewares/Third_Party/FreeRTOS/Source/timers.c ****                     xTimerQueue = xQueueCreate( ( UBaseType_t ) configTIMER_QUEUE_LENGTH, sizeof( D
 981:Middlewares/Third_Party/FreeRTOS/Source/timers.c ****                 }
 982:Middlewares/Third_Party/FreeRTOS/Source/timers.c ****                 #endif /* if ( configSUPPORT_STATIC_ALLOCATION == 1 ) */
 983:Middlewares/Third_Party/FreeRTOS/Source/timers.c **** 
 984:Middlewares/Third_Party/FreeRTOS/Source/timers.c ****                 #if ( configQUEUE_REGISTRY_SIZE > 0 )
 985:Middlewares/Third_Party/FreeRTOS/Source/timers.c ****                 {
 986:Middlewares/Third_Party/FreeRTOS/Source/timers.c ****                     if( xTimerQueue != NULL )
 2285              		.loc 1 986 37
 2286 0040 074B     		ldr	r3, .L146
 2287 0042 1B68     		ldr	r3, [r3]
 2288              		.loc 1 986 23
 2289 0044 002B     		cmp	r3, #0
 2290 0046 05D0     		beq	.L145
 987:Middlewares/Third_Party/FreeRTOS/Source/timers.c ****                     {
ARM GAS  C:\Users\alanl\AppData\Local\Temp\ccySaGgX.s 			page 62


 988:Middlewares/Third_Party/FreeRTOS/Source/timers.c ****                         vQueueAddToRegistry( xTimerQueue, "TmrQ" );
 2291              		.loc 1 988 25
 2292 0048 054B     		ldr	r3, .L146
 2293 004a 1B68     		ldr	r3, [r3]
 2294 004c 0B49     		ldr	r1, .L146+28
 2295 004e 1846     		mov	r0, r3
 2296 0050 FFF7FEFF 		bl	vQueueAddToRegistry
 2297              	.L145:
 989:Middlewares/Third_Party/FreeRTOS/Source/timers.c ****                     }
 990:Middlewares/Third_Party/FreeRTOS/Source/timers.c ****                     else
 991:Middlewares/Third_Party/FreeRTOS/Source/timers.c ****                     {
 992:Middlewares/Third_Party/FreeRTOS/Source/timers.c ****                         mtCOVERAGE_TEST_MARKER();
 993:Middlewares/Third_Party/FreeRTOS/Source/timers.c ****                     }
 994:Middlewares/Third_Party/FreeRTOS/Source/timers.c ****                 }
 995:Middlewares/Third_Party/FreeRTOS/Source/timers.c ****                 #endif /* configQUEUE_REGISTRY_SIZE */
 996:Middlewares/Third_Party/FreeRTOS/Source/timers.c ****             }
 997:Middlewares/Third_Party/FreeRTOS/Source/timers.c ****             else
 998:Middlewares/Third_Party/FreeRTOS/Source/timers.c ****             {
 999:Middlewares/Third_Party/FreeRTOS/Source/timers.c ****                 mtCOVERAGE_TEST_MARKER();
1000:Middlewares/Third_Party/FreeRTOS/Source/timers.c ****             }
1001:Middlewares/Third_Party/FreeRTOS/Source/timers.c ****         }
1002:Middlewares/Third_Party/FreeRTOS/Source/timers.c ****         taskEXIT_CRITICAL();
 2298              		.loc 1 1002 9
 2299 0054 FFF7FEFF 		bl	vPortExitCritical
1003:Middlewares/Third_Party/FreeRTOS/Source/timers.c ****     }
 2300              		.loc 1 1003 5
 2301 0058 00BF     		nop
 2302 005a BD46     		mov	sp, r7
 2303              	.LCFI117:
 2304              		.cfi_def_cfa_register 13
 2305              		@ sp needed
 2306 005c 80BD     		pop	{r7, pc}
 2307              	.L147:
 2308 005e 00BF     		.align	2
 2309              	.L146:
 2310 0060 00000000 		.word	xTimerQueue
 2311 0064 00000000 		.word	xActiveTimerList1
 2312 0068 00000000 		.word	xActiveTimerList2
 2313 006c 00000000 		.word	pxCurrentTimerList
 2314 0070 00000000 		.word	pxOverflowTimerList
 2315 0074 00000000 		.word	xStaticTimerQueue.0
 2316 0078 00000000 		.word	ucStaticTimerQueueStorage.1
 2317 007c 08000000 		.word	.LC1
 2318              		.cfi_endproc
 2319              	.LFE26:
 2321              		.section	.text.xTimerIsTimerActive,"ax",%progbits
 2322              		.align	1
 2323              		.global	xTimerIsTimerActive
 2324              		.syntax unified
 2325              		.thumb
 2326              		.thumb_func
 2328              	xTimerIsTimerActive:
 2329              	.LFB27:
1004:Middlewares/Third_Party/FreeRTOS/Source/timers.c **** /*-----------------------------------------------------------*/
1005:Middlewares/Third_Party/FreeRTOS/Source/timers.c **** 
1006:Middlewares/Third_Party/FreeRTOS/Source/timers.c ****     BaseType_t xTimerIsTimerActive( TimerHandle_t xTimer )
1007:Middlewares/Third_Party/FreeRTOS/Source/timers.c ****     {
ARM GAS  C:\Users\alanl\AppData\Local\Temp\ccySaGgX.s 			page 63


 2330              		.loc 1 1007 5
 2331              		.cfi_startproc
 2332              		@ args = 0, pretend = 0, frame = 24
 2333              		@ frame_needed = 1, uses_anonymous_args = 0
 2334 0000 80B5     		push	{r7, lr}
 2335              	.LCFI118:
 2336              		.cfi_def_cfa_offset 8
 2337              		.cfi_offset 7, -8
 2338              		.cfi_offset 14, -4
 2339 0002 86B0     		sub	sp, sp, #24
 2340              	.LCFI119:
 2341              		.cfi_def_cfa_offset 32
 2342 0004 00AF     		add	r7, sp, #0
 2343              	.LCFI120:
 2344              		.cfi_def_cfa_register 7
 2345 0006 7860     		str	r0, [r7, #4]
1008:Middlewares/Third_Party/FreeRTOS/Source/timers.c ****         BaseType_t xReturn;
1009:Middlewares/Third_Party/FreeRTOS/Source/timers.c ****         Timer_t * pxTimer = xTimer;
 2346              		.loc 1 1009 19
 2347 0008 7B68     		ldr	r3, [r7, #4]
 2348 000a 3B61     		str	r3, [r7, #16]
1010:Middlewares/Third_Party/FreeRTOS/Source/timers.c **** 
1011:Middlewares/Third_Party/FreeRTOS/Source/timers.c ****         configASSERT( xTimer );
 2349              		.loc 1 1011 9
 2350 000c 7B68     		ldr	r3, [r7, #4]
 2351 000e 002B     		cmp	r3, #0
 2352 0010 0BD1     		bne	.L149
 2353              	.LBB73:
 2354              	.LBB74:
 205:Middlewares/Third_Party/FreeRTOS/Source/portable/GCC/ARM_CM4F/portmacro.h ****         (
 2355              		.loc 2 205 9
 2356              		.syntax unified
 2357              	@ 205 "Middlewares/Third_Party/FreeRTOS/Source/portable/GCC/ARM_CM4F/portmacro.h" 1
 2358 0012 4FF05003 		   mov r3, #80                                              
 2359 0016 83F31188 	   msr basepri, r3                                         
 2360 001a BFF36F8F 	   isb                                                     
 2361 001e BFF34F8F 	   dsb                                                     
 2362              	
 2363              	@ 0 "" 2
 2364              		.thumb
 2365              		.syntax unified
 2366 0022 FB60     		str	r3, [r7, #12]
 2367              		.loc 2 213 5
 2368 0024 00BF     		nop
 2369              	.L150:
 2370              	.LBE74:
 2371              	.LBE73:
 2372              		.loc 1 1011 9
 2373 0026 00BF     		nop
 2374 0028 FDE7     		b	.L150
 2375              	.L149:
1012:Middlewares/Third_Party/FreeRTOS/Source/timers.c **** 
1013:Middlewares/Third_Party/FreeRTOS/Source/timers.c ****         /* Is the timer in the list of active timers? */
1014:Middlewares/Third_Party/FreeRTOS/Source/timers.c ****         taskENTER_CRITICAL();
 2376              		.loc 1 1014 9
 2377 002a FFF7FEFF 		bl	vPortEnterCritical
1015:Middlewares/Third_Party/FreeRTOS/Source/timers.c ****         {
ARM GAS  C:\Users\alanl\AppData\Local\Temp\ccySaGgX.s 			page 64


1016:Middlewares/Third_Party/FreeRTOS/Source/timers.c ****             if( ( pxTimer->ucStatus & tmrSTATUS_IS_ACTIVE ) == 0 )
 2378              		.loc 1 1016 26
 2379 002e 3B69     		ldr	r3, [r7, #16]
 2380 0030 93F82830 		ldrb	r3, [r3, #40]	@ zero_extendqisi2
 2381              		.loc 1 1016 37
 2382 0034 03F00103 		and	r3, r3, #1
 2383              		.loc 1 1016 15
 2384 0038 002B     		cmp	r3, #0
 2385 003a 02D1     		bne	.L151
1017:Middlewares/Third_Party/FreeRTOS/Source/timers.c ****             {
1018:Middlewares/Third_Party/FreeRTOS/Source/timers.c ****                 xReturn = pdFALSE;
 2386              		.loc 1 1018 25
 2387 003c 0023     		movs	r3, #0
 2388 003e 7B61     		str	r3, [r7, #20]
 2389 0040 01E0     		b	.L152
 2390              	.L151:
1019:Middlewares/Third_Party/FreeRTOS/Source/timers.c ****             }
1020:Middlewares/Third_Party/FreeRTOS/Source/timers.c ****             else
1021:Middlewares/Third_Party/FreeRTOS/Source/timers.c ****             {
1022:Middlewares/Third_Party/FreeRTOS/Source/timers.c ****                 xReturn = pdTRUE;
 2391              		.loc 1 1022 25
 2392 0042 0123     		movs	r3, #1
 2393 0044 7B61     		str	r3, [r7, #20]
 2394              	.L152:
1023:Middlewares/Third_Party/FreeRTOS/Source/timers.c ****             }
1024:Middlewares/Third_Party/FreeRTOS/Source/timers.c ****         }
1025:Middlewares/Third_Party/FreeRTOS/Source/timers.c ****         taskEXIT_CRITICAL();
 2395              		.loc 1 1025 9
 2396 0046 FFF7FEFF 		bl	vPortExitCritical
1026:Middlewares/Third_Party/FreeRTOS/Source/timers.c **** 
1027:Middlewares/Third_Party/FreeRTOS/Source/timers.c ****         return xReturn;
 2397              		.loc 1 1027 16
 2398 004a 7B69     		ldr	r3, [r7, #20]
1028:Middlewares/Third_Party/FreeRTOS/Source/timers.c ****     } /*lint !e818 Can't be pointer to const due to the typedef. */
 2399              		.loc 1 1028 5
 2400 004c 1846     		mov	r0, r3
 2401 004e 1837     		adds	r7, r7, #24
 2402              	.LCFI121:
 2403              		.cfi_def_cfa_offset 8
 2404 0050 BD46     		mov	sp, r7
 2405              	.LCFI122:
 2406              		.cfi_def_cfa_register 13
 2407              		@ sp needed
 2408 0052 80BD     		pop	{r7, pc}
 2409              		.cfi_endproc
 2410              	.LFE27:
 2412              		.section	.text.pvTimerGetTimerID,"ax",%progbits
 2413              		.align	1
 2414              		.global	pvTimerGetTimerID
 2415              		.syntax unified
 2416              		.thumb
 2417              		.thumb_func
 2419              	pvTimerGetTimerID:
 2420              	.LFB28:
1029:Middlewares/Third_Party/FreeRTOS/Source/timers.c **** /*-----------------------------------------------------------*/
1030:Middlewares/Third_Party/FreeRTOS/Source/timers.c **** 
1031:Middlewares/Third_Party/FreeRTOS/Source/timers.c ****     void * pvTimerGetTimerID( const TimerHandle_t xTimer )
ARM GAS  C:\Users\alanl\AppData\Local\Temp\ccySaGgX.s 			page 65


1032:Middlewares/Third_Party/FreeRTOS/Source/timers.c ****     {
 2421              		.loc 1 1032 5
 2422              		.cfi_startproc
 2423              		@ args = 0, pretend = 0, frame = 24
 2424              		@ frame_needed = 1, uses_anonymous_args = 0
 2425 0000 80B5     		push	{r7, lr}
 2426              	.LCFI123:
 2427              		.cfi_def_cfa_offset 8
 2428              		.cfi_offset 7, -8
 2429              		.cfi_offset 14, -4
 2430 0002 86B0     		sub	sp, sp, #24
 2431              	.LCFI124:
 2432              		.cfi_def_cfa_offset 32
 2433 0004 00AF     		add	r7, sp, #0
 2434              	.LCFI125:
 2435              		.cfi_def_cfa_register 7
 2436 0006 7860     		str	r0, [r7, #4]
1033:Middlewares/Third_Party/FreeRTOS/Source/timers.c ****         Timer_t * const pxTimer = xTimer;
 2437              		.loc 1 1033 25
 2438 0008 7B68     		ldr	r3, [r7, #4]
 2439 000a 7B61     		str	r3, [r7, #20]
1034:Middlewares/Third_Party/FreeRTOS/Source/timers.c ****         void * pvReturn;
1035:Middlewares/Third_Party/FreeRTOS/Source/timers.c **** 
1036:Middlewares/Third_Party/FreeRTOS/Source/timers.c ****         configASSERT( xTimer );
 2440              		.loc 1 1036 9
 2441 000c 7B68     		ldr	r3, [r7, #4]
 2442 000e 002B     		cmp	r3, #0
 2443 0010 0BD1     		bne	.L155
 2444              	.LBB75:
 2445              	.LBB76:
 205:Middlewares/Third_Party/FreeRTOS/Source/portable/GCC/ARM_CM4F/portmacro.h ****         (
 2446              		.loc 2 205 9
 2447              		.syntax unified
 2448              	@ 205 "Middlewares/Third_Party/FreeRTOS/Source/portable/GCC/ARM_CM4F/portmacro.h" 1
 2449 0012 4FF05003 		   mov r3, #80                                              
 2450 0016 83F31188 	   msr basepri, r3                                         
 2451 001a BFF36F8F 	   isb                                                     
 2452 001e BFF34F8F 	   dsb                                                     
 2453              	
 2454              	@ 0 "" 2
 2455              		.thumb
 2456              		.syntax unified
 2457 0022 FB60     		str	r3, [r7, #12]
 2458              		.loc 2 213 5
 2459 0024 00BF     		nop
 2460              	.L156:
 2461              	.LBE76:
 2462              	.LBE75:
 2463              		.loc 1 1036 9
 2464 0026 00BF     		nop
 2465 0028 FDE7     		b	.L156
 2466              	.L155:
1037:Middlewares/Third_Party/FreeRTOS/Source/timers.c **** 
1038:Middlewares/Third_Party/FreeRTOS/Source/timers.c ****         taskENTER_CRITICAL();
 2467              		.loc 1 1038 9
 2468 002a FFF7FEFF 		bl	vPortEnterCritical
1039:Middlewares/Third_Party/FreeRTOS/Source/timers.c ****         {
ARM GAS  C:\Users\alanl\AppData\Local\Temp\ccySaGgX.s 			page 66


1040:Middlewares/Third_Party/FreeRTOS/Source/timers.c ****             pvReturn = pxTimer->pvTimerID;
 2469              		.loc 1 1040 22
 2470 002e 7B69     		ldr	r3, [r7, #20]
 2471 0030 DB69     		ldr	r3, [r3, #28]
 2472 0032 3B61     		str	r3, [r7, #16]
1041:Middlewares/Third_Party/FreeRTOS/Source/timers.c ****         }
1042:Middlewares/Third_Party/FreeRTOS/Source/timers.c ****         taskEXIT_CRITICAL();
 2473              		.loc 1 1042 9
 2474 0034 FFF7FEFF 		bl	vPortExitCritical
1043:Middlewares/Third_Party/FreeRTOS/Source/timers.c **** 
1044:Middlewares/Third_Party/FreeRTOS/Source/timers.c ****         return pvReturn;
 2475              		.loc 1 1044 16
 2476 0038 3B69     		ldr	r3, [r7, #16]
1045:Middlewares/Third_Party/FreeRTOS/Source/timers.c ****     }
 2477              		.loc 1 1045 5
 2478 003a 1846     		mov	r0, r3
 2479 003c 1837     		adds	r7, r7, #24
 2480              	.LCFI126:
 2481              		.cfi_def_cfa_offset 8
 2482 003e BD46     		mov	sp, r7
 2483              	.LCFI127:
 2484              		.cfi_def_cfa_register 13
 2485              		@ sp needed
 2486 0040 80BD     		pop	{r7, pc}
 2487              		.cfi_endproc
 2488              	.LFE28:
 2490              		.section	.text.vTimerSetTimerID,"ax",%progbits
 2491              		.align	1
 2492              		.global	vTimerSetTimerID
 2493              		.syntax unified
 2494              		.thumb
 2495              		.thumb_func
 2497              	vTimerSetTimerID:
 2498              	.LFB29:
1046:Middlewares/Third_Party/FreeRTOS/Source/timers.c **** /*-----------------------------------------------------------*/
1047:Middlewares/Third_Party/FreeRTOS/Source/timers.c **** 
1048:Middlewares/Third_Party/FreeRTOS/Source/timers.c ****     void vTimerSetTimerID( TimerHandle_t xTimer,
1049:Middlewares/Third_Party/FreeRTOS/Source/timers.c ****                            void * pvNewID )
1050:Middlewares/Third_Party/FreeRTOS/Source/timers.c ****     {
 2499              		.loc 1 1050 5
 2500              		.cfi_startproc
 2501              		@ args = 0, pretend = 0, frame = 16
 2502              		@ frame_needed = 1, uses_anonymous_args = 0
 2503 0000 80B5     		push	{r7, lr}
 2504              	.LCFI128:
 2505              		.cfi_def_cfa_offset 8
 2506              		.cfi_offset 7, -8
 2507              		.cfi_offset 14, -4
 2508 0002 84B0     		sub	sp, sp, #16
 2509              	.LCFI129:
 2510              		.cfi_def_cfa_offset 24
 2511 0004 00AF     		add	r7, sp, #0
 2512              	.LCFI130:
 2513              		.cfi_def_cfa_register 7
 2514 0006 7860     		str	r0, [r7, #4]
 2515 0008 3960     		str	r1, [r7]
1051:Middlewares/Third_Party/FreeRTOS/Source/timers.c ****         Timer_t * const pxTimer = xTimer;
ARM GAS  C:\Users\alanl\AppData\Local\Temp\ccySaGgX.s 			page 67


 2516              		.loc 1 1051 25
 2517 000a 7B68     		ldr	r3, [r7, #4]
 2518 000c FB60     		str	r3, [r7, #12]
1052:Middlewares/Third_Party/FreeRTOS/Source/timers.c **** 
1053:Middlewares/Third_Party/FreeRTOS/Source/timers.c ****         configASSERT( xTimer );
 2519              		.loc 1 1053 9
 2520 000e 7B68     		ldr	r3, [r7, #4]
 2521 0010 002B     		cmp	r3, #0
 2522 0012 0BD1     		bne	.L159
 2523              	.LBB77:
 2524              	.LBB78:
 205:Middlewares/Third_Party/FreeRTOS/Source/portable/GCC/ARM_CM4F/portmacro.h ****         (
 2525              		.loc 2 205 9
 2526              		.syntax unified
 2527              	@ 205 "Middlewares/Third_Party/FreeRTOS/Source/portable/GCC/ARM_CM4F/portmacro.h" 1
 2528 0014 4FF05003 		   mov r3, #80                                              
 2529 0018 83F31188 	   msr basepri, r3                                         
 2530 001c BFF36F8F 	   isb                                                     
 2531 0020 BFF34F8F 	   dsb                                                     
 2532              	
 2533              	@ 0 "" 2
 2534              		.thumb
 2535              		.syntax unified
 2536 0024 BB60     		str	r3, [r7, #8]
 2537              		.loc 2 213 5
 2538 0026 00BF     		nop
 2539              	.L160:
 2540              	.LBE78:
 2541              	.LBE77:
 2542              		.loc 1 1053 9
 2543 0028 00BF     		nop
 2544 002a FDE7     		b	.L160
 2545              	.L159:
1054:Middlewares/Third_Party/FreeRTOS/Source/timers.c **** 
1055:Middlewares/Third_Party/FreeRTOS/Source/timers.c ****         taskENTER_CRITICAL();
 2546              		.loc 1 1055 9
 2547 002c FFF7FEFF 		bl	vPortEnterCritical
1056:Middlewares/Third_Party/FreeRTOS/Source/timers.c ****         {
1057:Middlewares/Third_Party/FreeRTOS/Source/timers.c ****             pxTimer->pvTimerID = pvNewID;
 2548              		.loc 1 1057 32
 2549 0030 FB68     		ldr	r3, [r7, #12]
 2550 0032 3A68     		ldr	r2, [r7]
 2551 0034 DA61     		str	r2, [r3, #28]
1058:Middlewares/Third_Party/FreeRTOS/Source/timers.c ****         }
1059:Middlewares/Third_Party/FreeRTOS/Source/timers.c ****         taskEXIT_CRITICAL();
 2552              		.loc 1 1059 9
 2553 0036 FFF7FEFF 		bl	vPortExitCritical
1060:Middlewares/Third_Party/FreeRTOS/Source/timers.c ****     }
 2554              		.loc 1 1060 5
 2555 003a 00BF     		nop
 2556 003c 1037     		adds	r7, r7, #16
 2557              	.LCFI131:
 2558              		.cfi_def_cfa_offset 8
 2559 003e BD46     		mov	sp, r7
 2560              	.LCFI132:
 2561              		.cfi_def_cfa_register 13
 2562              		@ sp needed
ARM GAS  C:\Users\alanl\AppData\Local\Temp\ccySaGgX.s 			page 68


 2563 0040 80BD     		pop	{r7, pc}
 2564              		.cfi_endproc
 2565              	.LFE29:
 2567              		.section	.text.xTimerPendFunctionCallFromISR,"ax",%progbits
 2568              		.align	1
 2569              		.global	xTimerPendFunctionCallFromISR
 2570              		.syntax unified
 2571              		.thumb
 2572              		.thumb_func
 2574              	xTimerPendFunctionCallFromISR:
 2575              	.LFB30:
1061:Middlewares/Third_Party/FreeRTOS/Source/timers.c **** /*-----------------------------------------------------------*/
1062:Middlewares/Third_Party/FreeRTOS/Source/timers.c **** 
1063:Middlewares/Third_Party/FreeRTOS/Source/timers.c ****     #if ( INCLUDE_xTimerPendFunctionCall == 1 )
1064:Middlewares/Third_Party/FreeRTOS/Source/timers.c **** 
1065:Middlewares/Third_Party/FreeRTOS/Source/timers.c ****         BaseType_t xTimerPendFunctionCallFromISR( PendedFunction_t xFunctionToPend,
1066:Middlewares/Third_Party/FreeRTOS/Source/timers.c ****                                                   void * pvParameter1,
1067:Middlewares/Third_Party/FreeRTOS/Source/timers.c ****                                                   uint32_t ulParameter2,
1068:Middlewares/Third_Party/FreeRTOS/Source/timers.c ****                                                   BaseType_t * pxHigherPriorityTaskWoken )
1069:Middlewares/Third_Party/FreeRTOS/Source/timers.c ****         {
 2576              		.loc 1 1069 9
 2577              		.cfi_startproc
 2578              		@ args = 0, pretend = 0, frame = 40
 2579              		@ frame_needed = 1, uses_anonymous_args = 0
 2580 0000 80B5     		push	{r7, lr}
 2581              	.LCFI133:
 2582              		.cfi_def_cfa_offset 8
 2583              		.cfi_offset 7, -8
 2584              		.cfi_offset 14, -4
 2585 0002 8AB0     		sub	sp, sp, #40
 2586              	.LCFI134:
 2587              		.cfi_def_cfa_offset 48
 2588 0004 00AF     		add	r7, sp, #0
 2589              	.LCFI135:
 2590              		.cfi_def_cfa_register 7
 2591 0006 F860     		str	r0, [r7, #12]
 2592 0008 B960     		str	r1, [r7, #8]
 2593 000a 7A60     		str	r2, [r7, #4]
 2594 000c 3B60     		str	r3, [r7]
1070:Middlewares/Third_Party/FreeRTOS/Source/timers.c ****             DaemonTaskMessage_t xMessage;
1071:Middlewares/Third_Party/FreeRTOS/Source/timers.c ****             BaseType_t xReturn;
1072:Middlewares/Third_Party/FreeRTOS/Source/timers.c **** 
1073:Middlewares/Third_Party/FreeRTOS/Source/timers.c ****             /* Complete the message with the function parameters and post it to the
1074:Middlewares/Third_Party/FreeRTOS/Source/timers.c ****              * daemon task. */
1075:Middlewares/Third_Party/FreeRTOS/Source/timers.c ****             xMessage.xMessageID = tmrCOMMAND_EXECUTE_CALLBACK_FROM_ISR;
 2595              		.loc 1 1075 33
 2596 000e 6FF00103 		mvn	r3, #1
 2597 0012 7B61     		str	r3, [r7, #20]
1076:Middlewares/Third_Party/FreeRTOS/Source/timers.c ****             xMessage.u.xCallbackParameters.pxCallbackFunction = xFunctionToPend;
 2598              		.loc 1 1076 63
 2599 0014 FB68     		ldr	r3, [r7, #12]
 2600 0016 BB61     		str	r3, [r7, #24]
1077:Middlewares/Third_Party/FreeRTOS/Source/timers.c ****             xMessage.u.xCallbackParameters.pvParameter1 = pvParameter1;
 2601              		.loc 1 1077 57
 2602 0018 BB68     		ldr	r3, [r7, #8]
 2603 001a FB61     		str	r3, [r7, #28]
1078:Middlewares/Third_Party/FreeRTOS/Source/timers.c ****             xMessage.u.xCallbackParameters.ulParameter2 = ulParameter2;
ARM GAS  C:\Users\alanl\AppData\Local\Temp\ccySaGgX.s 			page 69


 2604              		.loc 1 1078 57
 2605 001c 7B68     		ldr	r3, [r7, #4]
 2606 001e 3B62     		str	r3, [r7, #32]
1079:Middlewares/Third_Party/FreeRTOS/Source/timers.c **** 
1080:Middlewares/Third_Party/FreeRTOS/Source/timers.c ****             xReturn = xQueueSendFromISR( xTimerQueue, &xMessage, pxHigherPriorityTaskWoken );
 2607              		.loc 1 1080 23
 2608 0020 064B     		ldr	r3, .L163
 2609 0022 1868     		ldr	r0, [r3]
 2610 0024 07F11401 		add	r1, r7, #20
 2611 0028 0023     		movs	r3, #0
 2612 002a 3A68     		ldr	r2, [r7]
 2613 002c FFF7FEFF 		bl	xQueueGenericSendFromISR
 2614 0030 7862     		str	r0, [r7, #36]
1081:Middlewares/Third_Party/FreeRTOS/Source/timers.c **** 
1082:Middlewares/Third_Party/FreeRTOS/Source/timers.c ****             tracePEND_FUNC_CALL_FROM_ISR( xFunctionToPend, pvParameter1, ulParameter2, xReturn );
1083:Middlewares/Third_Party/FreeRTOS/Source/timers.c **** 
1084:Middlewares/Third_Party/FreeRTOS/Source/timers.c ****             return xReturn;
 2615              		.loc 1 1084 20
 2616 0032 7B6A     		ldr	r3, [r7, #36]
1085:Middlewares/Third_Party/FreeRTOS/Source/timers.c ****         }
 2617              		.loc 1 1085 9
 2618 0034 1846     		mov	r0, r3
 2619 0036 2837     		adds	r7, r7, #40
 2620              	.LCFI136:
 2621              		.cfi_def_cfa_offset 8
 2622 0038 BD46     		mov	sp, r7
 2623              	.LCFI137:
 2624              		.cfi_def_cfa_register 13
 2625              		@ sp needed
 2626 003a 80BD     		pop	{r7, pc}
 2627              	.L164:
 2628              		.align	2
 2629              	.L163:
 2630 003c 00000000 		.word	xTimerQueue
 2631              		.cfi_endproc
 2632              	.LFE30:
 2634              		.section	.text.xTimerPendFunctionCall,"ax",%progbits
 2635              		.align	1
 2636              		.global	xTimerPendFunctionCall
 2637              		.syntax unified
 2638              		.thumb
 2639              		.thumb_func
 2641              	xTimerPendFunctionCall:
 2642              	.LFB31:
1086:Middlewares/Third_Party/FreeRTOS/Source/timers.c **** 
1087:Middlewares/Third_Party/FreeRTOS/Source/timers.c ****     #endif /* INCLUDE_xTimerPendFunctionCall */
1088:Middlewares/Third_Party/FreeRTOS/Source/timers.c **** /*-----------------------------------------------------------*/
1089:Middlewares/Third_Party/FreeRTOS/Source/timers.c **** 
1090:Middlewares/Third_Party/FreeRTOS/Source/timers.c ****     #if ( INCLUDE_xTimerPendFunctionCall == 1 )
1091:Middlewares/Third_Party/FreeRTOS/Source/timers.c **** 
1092:Middlewares/Third_Party/FreeRTOS/Source/timers.c ****         BaseType_t xTimerPendFunctionCall( PendedFunction_t xFunctionToPend,
1093:Middlewares/Third_Party/FreeRTOS/Source/timers.c ****                                            void * pvParameter1,
1094:Middlewares/Third_Party/FreeRTOS/Source/timers.c ****                                            uint32_t ulParameter2,
1095:Middlewares/Third_Party/FreeRTOS/Source/timers.c ****                                            TickType_t xTicksToWait )
1096:Middlewares/Third_Party/FreeRTOS/Source/timers.c ****         {
 2643              		.loc 1 1096 9
 2644              		.cfi_startproc
ARM GAS  C:\Users\alanl\AppData\Local\Temp\ccySaGgX.s 			page 70


 2645              		@ args = 0, pretend = 0, frame = 40
 2646              		@ frame_needed = 1, uses_anonymous_args = 0
 2647 0000 80B5     		push	{r7, lr}
 2648              	.LCFI138:
 2649              		.cfi_def_cfa_offset 8
 2650              		.cfi_offset 7, -8
 2651              		.cfi_offset 14, -4
 2652 0002 8AB0     		sub	sp, sp, #40
 2653              	.LCFI139:
 2654              		.cfi_def_cfa_offset 48
 2655 0004 00AF     		add	r7, sp, #0
 2656              	.LCFI140:
 2657              		.cfi_def_cfa_register 7
 2658 0006 F860     		str	r0, [r7, #12]
 2659 0008 B960     		str	r1, [r7, #8]
 2660 000a 7A60     		str	r2, [r7, #4]
 2661 000c 3B60     		str	r3, [r7]
1097:Middlewares/Third_Party/FreeRTOS/Source/timers.c ****             DaemonTaskMessage_t xMessage;
1098:Middlewares/Third_Party/FreeRTOS/Source/timers.c ****             BaseType_t xReturn;
1099:Middlewares/Third_Party/FreeRTOS/Source/timers.c **** 
1100:Middlewares/Third_Party/FreeRTOS/Source/timers.c ****             /* This function can only be called after a timer has been created or
1101:Middlewares/Third_Party/FreeRTOS/Source/timers.c ****              * after the scheduler has been started because, until then, the timer
1102:Middlewares/Third_Party/FreeRTOS/Source/timers.c ****              * queue does not exist. */
1103:Middlewares/Third_Party/FreeRTOS/Source/timers.c ****             configASSERT( xTimerQueue );
 2662              		.loc 1 1103 13
 2663 000e 134B     		ldr	r3, .L169
 2664 0010 1B68     		ldr	r3, [r3]
 2665 0012 002B     		cmp	r3, #0
 2666 0014 0BD1     		bne	.L166
 2667              	.LBB79:
 2668              	.LBB80:
 205:Middlewares/Third_Party/FreeRTOS/Source/portable/GCC/ARM_CM4F/portmacro.h ****         (
 2669              		.loc 2 205 9
 2670              		.syntax unified
 2671              	@ 205 "Middlewares/Third_Party/FreeRTOS/Source/portable/GCC/ARM_CM4F/portmacro.h" 1
 2672 0016 4FF05003 		   mov r3, #80                                              
 2673 001a 83F31188 	   msr basepri, r3                                         
 2674 001e BFF36F8F 	   isb                                                     
 2675 0022 BFF34F8F 	   dsb                                                     
 2676              	
 2677              	@ 0 "" 2
 2678              		.thumb
 2679              		.syntax unified
 2680 0026 3B62     		str	r3, [r7, #32]
 2681              		.loc 2 213 5
 2682 0028 00BF     		nop
 2683              	.L167:
 2684              	.LBE80:
 2685              	.LBE79:
 2686              		.loc 1 1103 13
 2687 002a 00BF     		nop
 2688 002c FDE7     		b	.L167
 2689              	.L166:
1104:Middlewares/Third_Party/FreeRTOS/Source/timers.c **** 
1105:Middlewares/Third_Party/FreeRTOS/Source/timers.c ****             /* Complete the message with the function parameters and post it to the
1106:Middlewares/Third_Party/FreeRTOS/Source/timers.c ****              * daemon task. */
1107:Middlewares/Third_Party/FreeRTOS/Source/timers.c ****             xMessage.xMessageID = tmrCOMMAND_EXECUTE_CALLBACK;
ARM GAS  C:\Users\alanl\AppData\Local\Temp\ccySaGgX.s 			page 71


 2690              		.loc 1 1107 33
 2691 002e 4FF0FF33 		mov	r3, #-1
 2692 0032 3B61     		str	r3, [r7, #16]
1108:Middlewares/Third_Party/FreeRTOS/Source/timers.c ****             xMessage.u.xCallbackParameters.pxCallbackFunction = xFunctionToPend;
 2693              		.loc 1 1108 63
 2694 0034 FB68     		ldr	r3, [r7, #12]
 2695 0036 7B61     		str	r3, [r7, #20]
1109:Middlewares/Third_Party/FreeRTOS/Source/timers.c ****             xMessage.u.xCallbackParameters.pvParameter1 = pvParameter1;
 2696              		.loc 1 1109 57
 2697 0038 BB68     		ldr	r3, [r7, #8]
 2698 003a BB61     		str	r3, [r7, #24]
1110:Middlewares/Third_Party/FreeRTOS/Source/timers.c ****             xMessage.u.xCallbackParameters.ulParameter2 = ulParameter2;
 2699              		.loc 1 1110 57
 2700 003c 7B68     		ldr	r3, [r7, #4]
 2701 003e FB61     		str	r3, [r7, #28]
1111:Middlewares/Third_Party/FreeRTOS/Source/timers.c **** 
1112:Middlewares/Third_Party/FreeRTOS/Source/timers.c ****             xReturn = xQueueSendToBack( xTimerQueue, &xMessage, xTicksToWait );
 2702              		.loc 1 1112 23
 2703 0040 064B     		ldr	r3, .L169
 2704 0042 1868     		ldr	r0, [r3]
 2705 0044 07F11001 		add	r1, r7, #16
 2706 0048 0023     		movs	r3, #0
 2707 004a 3A68     		ldr	r2, [r7]
 2708 004c FFF7FEFF 		bl	xQueueGenericSend
 2709 0050 7862     		str	r0, [r7, #36]
1113:Middlewares/Third_Party/FreeRTOS/Source/timers.c **** 
1114:Middlewares/Third_Party/FreeRTOS/Source/timers.c ****             tracePEND_FUNC_CALL( xFunctionToPend, pvParameter1, ulParameter2, xReturn );
1115:Middlewares/Third_Party/FreeRTOS/Source/timers.c **** 
1116:Middlewares/Third_Party/FreeRTOS/Source/timers.c ****             return xReturn;
 2710              		.loc 1 1116 20
 2711 0052 7B6A     		ldr	r3, [r7, #36]
1117:Middlewares/Third_Party/FreeRTOS/Source/timers.c ****         }
 2712              		.loc 1 1117 9
 2713 0054 1846     		mov	r0, r3
 2714 0056 2837     		adds	r7, r7, #40
 2715              	.LCFI141:
 2716              		.cfi_def_cfa_offset 8
 2717 0058 BD46     		mov	sp, r7
 2718              	.LCFI142:
 2719              		.cfi_def_cfa_register 13
 2720              		@ sp needed
 2721 005a 80BD     		pop	{r7, pc}
 2722              	.L170:
 2723              		.align	2
 2724              	.L169:
 2725 005c 00000000 		.word	xTimerQueue
 2726              		.cfi_endproc
 2727              	.LFE31:
 2729              		.section	.text.uxTimerGetTimerNumber,"ax",%progbits
 2730              		.align	1
 2731              		.global	uxTimerGetTimerNumber
 2732              		.syntax unified
 2733              		.thumb
 2734              		.thumb_func
 2736              	uxTimerGetTimerNumber:
 2737              	.LFB32:
1118:Middlewares/Third_Party/FreeRTOS/Source/timers.c **** 
ARM GAS  C:\Users\alanl\AppData\Local\Temp\ccySaGgX.s 			page 72


1119:Middlewares/Third_Party/FreeRTOS/Source/timers.c ****     #endif /* INCLUDE_xTimerPendFunctionCall */
1120:Middlewares/Third_Party/FreeRTOS/Source/timers.c **** /*-----------------------------------------------------------*/
1121:Middlewares/Third_Party/FreeRTOS/Source/timers.c **** 
1122:Middlewares/Third_Party/FreeRTOS/Source/timers.c ****     #if ( configUSE_TRACE_FACILITY == 1 )
1123:Middlewares/Third_Party/FreeRTOS/Source/timers.c **** 
1124:Middlewares/Third_Party/FreeRTOS/Source/timers.c ****         UBaseType_t uxTimerGetTimerNumber( TimerHandle_t xTimer )
1125:Middlewares/Third_Party/FreeRTOS/Source/timers.c ****         {
 2738              		.loc 1 1125 9
 2739              		.cfi_startproc
 2740              		@ args = 0, pretend = 0, frame = 8
 2741              		@ frame_needed = 1, uses_anonymous_args = 0
 2742              		@ link register save eliminated.
 2743 0000 80B4     		push	{r7}
 2744              	.LCFI143:
 2745              		.cfi_def_cfa_offset 4
 2746              		.cfi_offset 7, -4
 2747 0002 83B0     		sub	sp, sp, #12
 2748              	.LCFI144:
 2749              		.cfi_def_cfa_offset 16
 2750 0004 00AF     		add	r7, sp, #0
 2751              	.LCFI145:
 2752              		.cfi_def_cfa_register 7
 2753 0006 7860     		str	r0, [r7, #4]
1126:Middlewares/Third_Party/FreeRTOS/Source/timers.c ****             return ( ( Timer_t * ) xTimer )->uxTimerNumber;
 2754              		.loc 1 1126 44
 2755 0008 7B68     		ldr	r3, [r7, #4]
 2756 000a 5B6A     		ldr	r3, [r3, #36]
1127:Middlewares/Third_Party/FreeRTOS/Source/timers.c ****         }
 2757              		.loc 1 1127 9
 2758 000c 1846     		mov	r0, r3
 2759 000e 0C37     		adds	r7, r7, #12
 2760              	.LCFI146:
 2761              		.cfi_def_cfa_offset 4
 2762 0010 BD46     		mov	sp, r7
 2763              	.LCFI147:
 2764              		.cfi_def_cfa_register 13
 2765              		@ sp needed
 2766 0012 5DF8047B 		ldr	r7, [sp], #4
 2767              	.LCFI148:
 2768              		.cfi_restore 7
 2769              		.cfi_def_cfa_offset 0
 2770 0016 7047     		bx	lr
 2771              		.cfi_endproc
 2772              	.LFE32:
 2774              		.section	.text.vTimerSetTimerNumber,"ax",%progbits
 2775              		.align	1
 2776              		.global	vTimerSetTimerNumber
 2777              		.syntax unified
 2778              		.thumb
 2779              		.thumb_func
 2781              	vTimerSetTimerNumber:
 2782              	.LFB33:
1128:Middlewares/Third_Party/FreeRTOS/Source/timers.c **** 
